ARM GAS  C:\Users\quint\AppData\Local\Temp\cch5caYh.s 			page 1


   1              		.syntax unified
   2              		.cpu cortex-m0
   3              		.fpu softvfp
   4              		.eabi_attribute 20, 1
   5              		.eabi_attribute 21, 1
   6              		.eabi_attribute 23, 3
   7              		.eabi_attribute 24, 1
   8              		.eabi_attribute 25, 1
   9              		.eabi_attribute 26, 1
  10              		.eabi_attribute 30, 1
  11              		.eabi_attribute 34, 0
  12              		.eabi_attribute 18, 4
  13              		.thumb
  14              		.syntax unified
  15              		.file	"main.c"
  16              		.text
  17              	.Ltext0:
  18              		.cfi_sections	.debug_frame
  19              		.section	.text.drawStars,"ax",%progbits
  20              		.align	2
  21              		.global	drawStars
  22              		.code	16
  23              		.thumb_func
  24              		.type	drawStars, %function
  25              	drawStars:
  26              	.LFB32:
  27              		.file 1 "main.c"
   1:main.c        **** /* ========================================
   2:main.c        ****  *
   3:main.c        ****  * Copyright YOUR COMPANY, THE YEAR
   4:main.c        ****  * All Rights Reserved
   5:main.c        ****  * UNPUBLISHED, LICENSED SOFTWARE.
   6:main.c        ****  *
   7:main.c        ****  * CONFIDENTIAL AND PROPRIETARY INFORMATION
   8:main.c        ****  * WHICH IS THE PROPERTY OF your company.
   9:main.c        ****  *
  10:main.c        ****  * ========================================
  11:main.c        **** */
  12:main.c        **** #include "project.h"
  13:main.c        **** #include "stdlib.h"
  14:main.c        **** #include  "stdbool.h"
  15:main.c        **** 
  16:main.c        **** 
  17:main.c        **** //Function that is used to draw the stars from the array
  18:main.c        **** void drawStars(int16 starArray[])
  19:main.c        **** {
  28              		.loc 1 19 0
  29              		.cfi_startproc
  30              		@ args = 0, pretend = 0, frame = 0
  31              		@ frame_needed = 0, uses_anonymous_args = 0
  32              	.LVL0:
  33 0000 30B5     		push	{r4, r5, lr}
  34              		.cfi_def_cfa_offset 12
  35              		.cfi_offset 4, -12
  36              		.cfi_offset 5, -8
  37              		.cfi_offset 14, -4
  38 0002 83B0     		sub	sp, sp, #12
ARM GAS  C:\Users\quint\AppData\Local\Temp\cch5caYh.s 			page 2


  39              		.cfi_def_cfa_offset 24
  40 0004 0500     		movs	r5, r0
  41              	.LVL1:
  20:main.c        ****    int16 i=0;
  21:main.c        ****     for(i=0;i<300;i++)
  42              		.loc 1 21 0
  43 0006 0024     		movs	r4, #0
  44 0008 0CE0     		b	.L2
  45              	.LVL2:
  46              	.L3:
  22:main.c        ****     {
  23:main.c        ****         GLCD_DrawLine(starArray[i],starArray[i+1],starArray[i],starArray[i+1],GLCD_WHITE);
  47              		.loc 1 23 0 discriminator 3
  48 000a 6300     		lsls	r3, r4, #1
  49 000c 585F     		ldrsh	r0, [r3, r5]
  50 000e 631C     		adds	r3, r4, #1
  51 0010 5B00     		lsls	r3, r3, #1
  52 0012 595F     		ldrsh	r1, [r3, r5]
  53 0014 064B     		ldr	r3, .L4
  54 0016 0093     		str	r3, [sp]
  55 0018 0B00     		movs	r3, r1
  56 001a 0200     		movs	r2, r0
  57 001c FFF7FEFF 		bl	GLCD_DrawLine
  58              	.LVL3:
  21:main.c        ****     {
  59              		.loc 1 21 0 discriminator 3
  60 0020 0134     		adds	r4, r4, #1
  61              	.LVL4:
  62 0022 24B2     		sxth	r4, r4
  63              	.LVL5:
  64              	.L2:
  21:main.c        ****     {
  65              		.loc 1 21 0 is_stmt 0 discriminator 1
  66 0024 2C23     		movs	r3, #44
  67 0026 FF33     		adds	r3, r3, #255
  68 0028 9C42     		cmp	r4, r3
  69 002a EEDD     		ble	.L3
  24:main.c        ****     }
  25:main.c        **** }
  70              		.loc 1 25 0 is_stmt 1
  71 002c 03B0     		add	sp, sp, #12
  72              		@ sp needed
  73              	.LVL6:
  74              	.LVL7:
  75 002e 30BD     		pop	{r4, r5, pc}
  76              	.L5:
  77              		.align	2
  78              	.L4:
  79 0030 FF0F0000 		.word	4095
  80              		.cfi_endproc
  81              	.LFE32:
  82              		.size	drawStars, .-drawStars
  83              		.section	.text.drawScope,"ax",%progbits
  84              		.align	2
  85              		.global	drawScope
  86              		.code	16
  87              		.thumb_func
ARM GAS  C:\Users\quint\AppData\Local\Temp\cch5caYh.s 			page 3


  88              		.type	drawScope, %function
  89              	drawScope:
  90              	.LFB33:
  26:main.c        **** 
  27:main.c        **** //Draws the scope centered 
  28:main.c        **** void  drawScope(int16 x,int16 y,int32 color)
  29:main.c        **** {
  91              		.loc 1 29 0
  92              		.cfi_startproc
  93              		@ args = 0, pretend = 0, frame = 0
  94              		@ frame_needed = 0, uses_anonymous_args = 0
  95              	.LVL8:
  96 0000 70B5     		push	{r4, r5, r6, lr}
  97              		.cfi_def_cfa_offset 16
  98              		.cfi_offset 4, -16
  99              		.cfi_offset 5, -12
 100              		.cfi_offset 6, -8
 101              		.cfi_offset 14, -4
 102 0002 82B0     		sub	sp, sp, #8
 103              		.cfi_def_cfa_offset 24
 104 0004 0500     		movs	r5, r0
 105 0006 0C00     		movs	r4, r1
 106 0008 1600     		movs	r6, r2
  30:main.c        ****     GLCD_DrawCircle(x,y,8,color);
 107              		.loc 1 30 0
 108 000a 1300     		movs	r3, r2
 109 000c 0822     		movs	r2, #8
 110              	.LVL9:
 111 000e FFF7FEFF 		bl	GLCD_DrawCircle
 112              	.LVL10:
  31:main.c        ****     GLCD_DrawLine((x-15),(y),(x+15),y,color);
 113              		.loc 1 31 0
 114 0012 2800     		movs	r0, r5
 115 0014 0F38     		subs	r0, r0, #15
 116 0016 2A00     		movs	r2, r5
 117 0018 0F32     		adds	r2, r2, #15
 118 001a 0096     		str	r6, [sp]
 119 001c 2300     		movs	r3, r4
 120 001e 2100     		movs	r1, r4
 121 0020 FFF7FEFF 		bl	GLCD_DrawLine
 122              	.LVL11:
  32:main.c        ****     GLCD_DrawLine(x,(y-15),x,(y+15),color);
 123              		.loc 1 32 0
 124 0024 2100     		movs	r1, r4
 125 0026 0F39     		subs	r1, r1, #15
 126 0028 2300     		movs	r3, r4
 127 002a 0F33     		adds	r3, r3, #15
 128 002c 0096     		str	r6, [sp]
 129 002e 2A00     		movs	r2, r5
 130 0030 2800     		movs	r0, r5
 131 0032 FFF7FEFF 		bl	GLCD_DrawLine
 132              	.LVL12:
  33:main.c        ****      
  34:main.c        **** }
 133              		.loc 1 34 0
 134 0036 02B0     		add	sp, sp, #8
 135              		@ sp needed
ARM GAS  C:\Users\quint\AppData\Local\Temp\cch5caYh.s 			page 4


 136              	.LVL13:
 137 0038 70BD     		pop	{r4, r5, r6, pc}
 138              		.cfi_endproc
 139              	.LFE33:
 140              		.size	drawScope, .-drawScope
 141 003a C046     		.section	.text.drawBlast,"ax",%progbits
 142              		.align	2
 143              		.global	drawBlast
 144              		.code	16
 145              		.thumb_func
 146              		.type	drawBlast, %function
 147              	drawBlast:
 148              	.LFB34:
  35:main.c        **** 
  36:main.c        **** //Draws the blast 
  37:main.c        **** //X and Y is the center of the circle
  38:main.c        **** //Size for normal is 0 and bigger is a greater specified number
  39:main.c        **** void drawBlast(int16 x,int16 y,int16 size,int32 color,int16 starArray[])
  40:main.c        **** {
 149              		.loc 1 40 0
 150              		.cfi_startproc
 151              		@ args = 4, pretend = 0, frame = 8
 152              		@ frame_needed = 0, uses_anonymous_args = 0
 153              	.LVL14:
 154 0000 F0B5     		push	{r4, r5, r6, r7, lr}
 155              		.cfi_def_cfa_offset 20
 156              		.cfi_offset 4, -20
 157              		.cfi_offset 5, -16
 158              		.cfi_offset 6, -12
 159              		.cfi_offset 7, -8
 160              		.cfi_offset 14, -4
 161 0002 83B0     		sub	sp, sp, #12
 162              		.cfi_def_cfa_offset 32
 163 0004 0090     		str	r0, [sp]
 164 0006 0E00     		movs	r6, r1
 165 0008 1500     		movs	r5, r2
 166 000a 0193     		str	r3, [sp, #4]
 167              	.LVL15:
  41:main.c        ****    
  42:main.c        ****     int16 i=0;
  43:main.c        ****     for(i=0;i<(40+size);i++)
 168              		.loc 1 43 0
 169 000c 0024     		movs	r4, #0
 170 000e 07E0     		b	.L8
 171              	.LVL16:
 172              	.L9:
  44:main.c        ****     {
  45:main.c        ****      GLCD_DrawCircle(x,y,i,color);
 173              		.loc 1 45 0 discriminator 3
 174 0010 019B     		ldr	r3, [sp, #4]
 175 0012 2200     		movs	r2, r4
 176 0014 3100     		movs	r1, r6
 177 0016 0098     		ldr	r0, [sp]
 178 0018 FFF7FEFF 		bl	GLCD_DrawCircle
 179              	.LVL17:
  43:main.c        ****     {
 180              		.loc 1 43 0 discriminator 3
ARM GAS  C:\Users\quint\AppData\Local\Temp\cch5caYh.s 			page 5


 181 001c 0134     		adds	r4, r4, #1
 182              	.LVL18:
 183 001e 24B2     		sxth	r4, r4
 184              	.LVL19:
 185              	.L8:
  43:main.c        ****     {
 186              		.loc 1 43 0 is_stmt 0 discriminator 1
 187 0020 2F00     		movs	r7, r5
 188 0022 2837     		adds	r7, r7, #40
 189 0024 BC42     		cmp	r4, r7
 190 0026 F3DB     		blt	.L9
 191 0028 0024     		movs	r4, #0
 192              	.LVL20:
 193 002a 07E0     		b	.L10
 194              	.LVL21:
 195              	.L11:
  46:main.c        ****     }
  47:main.c        ****      for(i=0;i<(40+size);i++)
  48:main.c        ****     {
  49:main.c        ****      GLCD_DrawCircle(x,y,i,GLCD_BLACK);
 196              		.loc 1 49 0 is_stmt 1 discriminator 3
 197 002c 0023     		movs	r3, #0
 198 002e 2200     		movs	r2, r4
 199 0030 3100     		movs	r1, r6
 200 0032 0098     		ldr	r0, [sp]
 201 0034 FFF7FEFF 		bl	GLCD_DrawCircle
 202              	.LVL22:
  47:main.c        ****     {
 203              		.loc 1 47 0 discriminator 3
 204 0038 0134     		adds	r4, r4, #1
 205              	.LVL23:
 206 003a 24B2     		sxth	r4, r4
 207              	.LVL24:
 208              	.L10:
  47:main.c        ****     {
 209              		.loc 1 47 0 is_stmt 0 discriminator 1
 210 003c A742     		cmp	r7, r4
 211 003e F5DC     		bgt	.L11
  50:main.c        ****     }
  51:main.c        ****        drawStars(starArray);
 212              		.loc 1 51 0 is_stmt 1
 213 0040 0898     		ldr	r0, [sp, #32]
 214 0042 FFF7FEFF 		bl	drawStars
 215              	.LVL25:
  52:main.c        ****     drawScope(x,y,GLCD_YELLOW);
 216              		.loc 1 52 0
 217 0046 FF22     		movs	r2, #255
 218 0048 1201     		lsls	r2, r2, #4
 219 004a 3100     		movs	r1, r6
 220 004c 0098     		ldr	r0, [sp]
 221 004e FFF7FEFF 		bl	drawScope
 222              	.LVL26:
  53:main.c        ****  
  54:main.c        **** }
 223              		.loc 1 54 0
 224 0052 03B0     		add	sp, sp, #12
 225              		@ sp needed
ARM GAS  C:\Users\quint\AppData\Local\Temp\cch5caYh.s 			page 6


 226              	.LVL27:
 227 0054 F0BD     		pop	{r4, r5, r6, r7, pc}
 228              		.cfi_endproc
 229              	.LFE34:
 230              		.size	drawBlast, .-drawBlast
 231 0056 C046     		.section	.text.ledSet,"ax",%progbits
 232              		.align	2
 233              		.global	ledSet
 234              		.code	16
 235              		.thumb_func
 236              		.type	ledSet, %function
 237              	ledSet:
 238              	.LFB35:
  55:main.c        **** void ledSet(int16 r,int16 g, int16 b)
  56:main.c        **** {
 239              		.loc 1 56 0
 240              		.cfi_startproc
 241              		@ args = 0, pretend = 0, frame = 0
 242              		@ frame_needed = 0, uses_anonymous_args = 0
 243              	.LVL28:
 244 0000 70B5     		push	{r4, r5, r6, lr}
 245              		.cfi_def_cfa_offset 16
 246              		.cfi_offset 4, -16
 247              		.cfi_offset 5, -12
 248              		.cfi_offset 6, -8
 249              		.cfi_offset 14, -4
 250 0002 0D00     		movs	r5, r1
 251 0004 1400     		movs	r4, r2
  57:main.c        ****     R_LED_Write(r);
 252              		.loc 1 57 0
 253 0006 C0B2     		uxtb	r0, r0
 254              	.LVL29:
 255 0008 FFF7FEFF 		bl	R_LED_Write
 256              	.LVL30:
  58:main.c        ****     G_LED_Write(g);
 257              		.loc 1 58 0
 258 000c E8B2     		uxtb	r0, r5
 259 000e FFF7FEFF 		bl	G_LED_Write
 260              	.LVL31:
  59:main.c        ****     B_LED_Write(b);
 261              		.loc 1 59 0
 262 0012 E0B2     		uxtb	r0, r4
 263 0014 FFF7FEFF 		bl	B_LED_Write
 264              	.LVL32:
  60:main.c        **** }
 265              		.loc 1 60 0
 266              		@ sp needed
 267 0018 70BD     		pop	{r4, r5, r6, pc}
 268              		.cfi_endproc
 269              	.LFE35:
 270              		.size	ledSet, .-ledSet
 271              		.global	__aeabi_idivmod
 272 001a C046     		.section	.text.main,"ax",%progbits
 273              		.align	2
 274              		.global	main
 275              		.code	16
 276              		.thumb_func
ARM GAS  C:\Users\quint\AppData\Local\Temp\cch5caYh.s 			page 7


 277              		.type	main, %function
 278              	main:
 279              	.LFB36:
  61:main.c        **** 
  62:main.c        **** 
  63:main.c        **** int main(void)
  64:main.c        **** {
 280              		.loc 1 64 0
 281              		.cfi_startproc
 282              		@ args = 0, pretend = 0, frame = 608
 283              		@ frame_needed = 0, uses_anonymous_args = 0
 284 0000 F0B5     		push	{r4, r5, r6, r7, lr}
 285              		.cfi_def_cfa_offset 20
 286              		.cfi_offset 4, -20
 287              		.cfi_offset 5, -16
 288              		.cfi_offset 6, -12
 289              		.cfi_offset 7, -8
 290              		.cfi_offset 14, -4
 291 0002 5F46     		mov	r7, fp
 292 0004 5646     		mov	r6, r10
 293 0006 4D46     		mov	r5, r9
 294 0008 4446     		mov	r4, r8
 295 000a F0B4     		push	{r4, r5, r6, r7}
 296              		.cfi_def_cfa_offset 36
 297              		.cfi_offset 8, -36
 298              		.cfi_offset 9, -32
 299              		.cfi_offset 10, -28
 300              		.cfi_offset 11, -24
 301 000c 964C     		ldr	r4, .L39
 302 000e A544     		add	sp, sp, r4
 303              		.cfi_def_cfa_offset 656
  65:main.c        ****     int16 stars [300]={0}; 
 304              		.loc 1 65 0
 305 0010 9622     		movs	r2, #150
 306 0012 9200     		lsls	r2, r2, #2
 307 0014 0021     		movs	r1, #0
 308 0016 04A8     		add	r0, sp, #16
 309 0018 FFF7FEFF 		bl	memset
 310              	.LVL33:
  66:main.c        ****     int16 twinkleStars=0;
  67:main.c        ****     int16 i=0;
  68:main.c        ****     int16 x=62;
  69:main.c        ****     int16 y=62;
  70:main.c        ****     uint32 counter=0;
  71:main.c        ****     bool blasterReady=true;
  72:main.c        ****     bool hyperblasterReady=true;
  73:main.c        ****     
  74:main.c        ****     
  75:main.c        ****     for(i=0;i<300;i++)
 311              		.loc 1 75 0
 312 001c 0024     		movs	r4, #0
 313 001e 09E0     		b	.L14
 314              	.LVL34:
 315              	.L15:
  76:main.c        ****     {
  77:main.c        ****         stars[i]=rand()%132;
 316              		.loc 1 77 0 discriminator 3
ARM GAS  C:\Users\quint\AppData\Local\Temp\cch5caYh.s 			page 8


 317 0020 FFF7FEFF 		bl	rand
 318              	.LVL35:
 319 0024 8421     		movs	r1, #132
 320 0026 FFF7FEFF 		bl	__aeabi_idivmod
 321              	.LVL36:
 322 002a 6200     		lsls	r2, r4, #1
 323 002c 04AB     		add	r3, sp, #16
 324 002e D152     		strh	r1, [r2, r3]
  75:main.c        ****     {
 325              		.loc 1 75 0 discriminator 3
 326 0030 0134     		adds	r4, r4, #1
 327              	.LVL37:
 328 0032 24B2     		sxth	r4, r4
 329              	.LVL38:
 330              	.L14:
  75:main.c        ****     {
 331              		.loc 1 75 0 is_stmt 0 discriminator 1
 332 0034 2C23     		movs	r3, #44
 333 0036 FF33     		adds	r3, r3, #255
 334 0038 9C42     		cmp	r4, r3
 335 003a F1DD     		ble	.L15
  78:main.c        ****         
  79:main.c        ****     }
  80:main.c        ****     
  81:main.c        ****     CyGlobalIntEnable; /* Enable global interrupts. */
 336              		.loc 1 81 0 is_stmt 1
 337              		.syntax divided
 338              	@ 81 "main.c" 1
 339 003c 62B6     		CPSIE   i
 340              	@ 0 "" 2
  82:main.c        **** 
  83:main.c        ****     /* Place your initialization/startup code here (e.g. MyInst_Start()) */
  84:main.c        ****     GLCD_Start();
 341              		.loc 1 84 0
 342              		.thumb
 343              		.syntax unified
 344 003e FFF7FEFF 		bl	GLCD_Start
 345              	.LVL39:
  85:main.c        ****     GLCD_Clear(GLCD_BLACK);
 346              		.loc 1 85 0
 347 0042 0020     		movs	r0, #0
 348 0044 FFF7FEFF 		bl	GLCD_Clear
 349              	.LVL40:
  86:main.c        ****     Backlight_Write(1);
 350              		.loc 1 86 0
 351 0048 0120     		movs	r0, #1
 352 004a FFF7FEFF 		bl	Backlight_Write
 353              	.LVL41:
  87:main.c        ****     drawStars(stars);
 354              		.loc 1 87 0
 355 004e 04A8     		add	r0, sp, #16
 356 0050 FFF7FEFF 		bl	drawStars
 357              	.LVL42:
  88:main.c        ****     drawScope(x,y,GLCD_YELLOW);
 358              		.loc 1 88 0
 359 0054 FF22     		movs	r2, #255
 360 0056 1201     		lsls	r2, r2, #4
ARM GAS  C:\Users\quint\AppData\Local\Temp\cch5caYh.s 			page 9


 361 0058 3E21     		movs	r1, #62
 362 005a 3E20     		movs	r0, #62
 363 005c FFF7FEFF 		bl	drawScope
 364              	.LVL43:
  89:main.c        ****     ledSet(1,1,0); //Set to blue
 365              		.loc 1 89 0
 366 0060 0022     		movs	r2, #0
 367 0062 0121     		movs	r1, #1
 368 0064 0120     		movs	r0, #1
 369 0066 FFF7FEFF 		bl	ledSet
 370              	.LVL44:
  72:main.c        ****     
 371              		.loc 1 72 0
 372 006a 0123     		movs	r3, #1
 373 006c 9B46     		mov	fp, r3
  71:main.c        ****     bool hyperblasterReady=true;
 374              		.loc 1 71 0
 375 006e 0393     		str	r3, [sp, #12]
  70:main.c        ****     bool blasterReady=true;
 376              		.loc 1 70 0
 377 0070 0023     		movs	r3, #0
 378 0072 9846     		mov	r8, r3
  69:main.c        ****     uint32 counter=0;
 379              		.loc 1 69 0
 380 0074 3E25     		movs	r5, #62
  68:main.c        ****     int16 y=62;
 381              		.loc 1 68 0
 382 0076 3E24     		movs	r4, #62
 383              	.LVL45:
 384              	.L37:
  90:main.c        **** 
  91:main.c        ****     
  92:main.c        **** 
  93:main.c        **** 
  94:main.c        ****     while(1)
  95:main.c        ****     {
  96:main.c        ****           drawStars(stars);
 385              		.loc 1 96 0
 386 0078 04A8     		add	r0, sp, #16
 387 007a FFF7FEFF 		bl	drawStars
 388              	.LVL46:
  97:main.c        ****         //twinkleStars=(rand()%300)%2+1;
  98:main.c        **** 
  99:main.c        ****         twinkleStars=(rand()%300);
 389              		.loc 1 99 0
 390 007e FFF7FEFF 		bl	rand
 391              	.LVL47:
 392 0082 9621     		movs	r1, #150
 393 0084 4900     		lsls	r1, r1, #1
 394 0086 FFF7FEFF 		bl	__aeabi_idivmod
 395              	.LVL48:
 396 008a 0EB2     		sxth	r6, r1
 397              	.LVL49:
 100:main.c        ****         if(twinkleStars%2==1)
 398              		.loc 1 100 0
 399 008c F00F     		lsrs	r0, r6, #31
 400 008e 3218     		adds	r2, r6, r0
ARM GAS  C:\Users\quint\AppData\Local\Temp\cch5caYh.s 			page 10


 401 0090 0123     		movs	r3, #1
 402 0092 1340     		ands	r3, r2
 403 0094 1B1A     		subs	r3, r3, r0
 404 0096 1BB2     		sxth	r3, r3
 405 0098 012B     		cmp	r3, #1
 406 009a 01D1     		bne	.L16
 101:main.c        ****             twinkleStars+=1;
 407              		.loc 1 101 0
 408 009c 0131     		adds	r1, r1, #1
 409 009e 0EB2     		sxth	r6, r1
 410              	.LVL50:
 411              	.L16:
 102:main.c        ****         
 103:main.c        ****        GLCD_DrawLine(stars[twinkleStars],stars[twinkleStars+1],stars[twinkleStars],stars[twinkleSta
 412              		.loc 1 103 0
 413 00a0 04AF     		add	r7, sp, #16
 414 00a2 7300     		lsls	r3, r6, #1
 415 00a4 9A46     		mov	r10, r3
 416 00a6 D85F     		ldrsh	r0, [r3, r7]
 417 00a8 0136     		adds	r6, r6, #1
 418              	.LVL51:
 419 00aa 7600     		lsls	r6, r6, #1
 420 00ac F15F     		ldrsh	r1, [r6, r7]
 421 00ae 0023     		movs	r3, #0
 422 00b0 9946     		mov	r9, r3
 423 00b2 0093     		str	r3, [sp]
 424 00b4 0B00     		movs	r3, r1
 425 00b6 0200     		movs	r2, r0
 426 00b8 FFF7FEFF 		bl	GLCD_DrawLine
 427              	.LVL52:
 104:main.c        ****        GLCD_DrawLine(stars[twinkleStars]+5,stars[twinkleStars+1]+5,stars[twinkleStars]+5,stars[twin
 428              		.loc 1 104 0
 429 00bc 5346     		mov	r3, r10
 430 00be D85F     		ldrsh	r0, [r3, r7]
 431 00c0 F15F     		ldrsh	r1, [r6, r7]
 432 00c2 0530     		adds	r0, r0, #5
 433 00c4 0531     		adds	r1, r1, #5
 434 00c6 4B46     		mov	r3, r9
 435 00c8 0093     		str	r3, [sp]
 436 00ca 0B00     		movs	r3, r1
 437 00cc 0200     		movs	r2, r0
 438 00ce FFF7FEFF 		bl	GLCD_DrawLine
 439              	.LVL53:
 105:main.c        ****       GLCD_DrawLine(stars[twinkleStars]+8,stars[twinkleStars+1]+8,stars[twinkleStars]+8,stars[twink
 440              		.loc 1 105 0
 441 00d2 5346     		mov	r3, r10
 442 00d4 D85F     		ldrsh	r0, [r3, r7]
 443 00d6 F15F     		ldrsh	r1, [r6, r7]
 444 00d8 0830     		adds	r0, r0, #8
 445 00da 0831     		adds	r1, r1, #8
 446 00dc 4B46     		mov	r3, r9
 447 00de 0093     		str	r3, [sp]
 448 00e0 0B00     		movs	r3, r1
 449 00e2 0200     		movs	r2, r0
 450 00e4 FFF7FEFF 		bl	GLCD_DrawLine
 451              	.LVL54:
 106:main.c        **** 
ARM GAS  C:\Users\quint\AppData\Local\Temp\cch5caYh.s 			page 11


 107:main.c        ****         if(counter==3000)
 452              		.loc 1 107 0
 453 00e8 604B     		ldr	r3, .L39+4
 454 00ea 9845     		cmp	r8, r3
 455 00ec 06D1     		bne	.L17
 456              	.LVL55:
 108:main.c        ****         {
 109:main.c        ****             blasterReady=true;
 110:main.c        ****             ledSet(1,0,1);//Set to green
 457              		.loc 1 110 0
 458 00ee 0122     		movs	r2, #1
 459 00f0 0021     		movs	r1, #0
 460 00f2 0120     		movs	r0, #1
 461 00f4 FFF7FEFF 		bl	ledSet
 462              	.LVL56:
 109:main.c        ****             ledSet(1,0,1);//Set to green
 463              		.loc 1 109 0
 464 00f8 0123     		movs	r3, #1
 465 00fa 0393     		str	r3, [sp, #12]
 466              	.LVL57:
 467              	.L17:
 111:main.c        ****         }
 112:main.c        ****          if(counter==5000)
 468              		.loc 1 112 0
 469 00fc 5C4B     		ldr	r3, .L39+8
 470 00fe 9845     		cmp	r8, r3
 471 0100 21D1     		bne	.L19
 472              	.LVL58:
 113:main.c        ****         {
 114:main.c        ****             hyperblasterReady=true;
 115:main.c        ****             ledSet(1,1,0); //Set to blue
 473              		.loc 1 115 0
 474 0102 0022     		movs	r2, #0
 475 0104 0121     		movs	r1, #1
 476 0106 0120     		movs	r0, #1
 477 0108 FFF7FEFF 		bl	ledSet
 478              	.LVL59:
 114:main.c        ****             ledSet(1,1,0); //Set to blue
 479              		.loc 1 114 0
 480 010c 0123     		movs	r3, #1
 481 010e 9B46     		mov	fp, r3
 482 0110 19E0     		b	.L19
 483              	.LVL60:
 484              	.L22:
 116:main.c        ****         }
 117:main.c        ****         // If A pressed, move up
 118:main.c        ****      while (A_Button_Read()==0)
 119:main.c        ****     {
 120:main.c        ****         
 121:main.c        ****         drawScope(x,y,GLCD_BLACK);
 485              		.loc 1 121 0
 486 0112 0022     		movs	r2, #0
 487 0114 2900     		movs	r1, r5
 488 0116 2000     		movs	r0, r4
 489 0118 FFF7FEFF 		bl	drawScope
 490              	.LVL61:
 122:main.c        ****         //drawStars(stars); 
ARM GAS  C:\Users\quint\AppData\Local\Temp\cch5caYh.s 			page 12


 123:main.c        ****         x--;
 491              		.loc 1 123 0
 492 011c 013C     		subs	r4, r4, #1
 493              	.LVL62:
 494 011e 24B2     		sxth	r4, r4
 495              	.LVL63:
 124:main.c        ****         if(B_Button_Read()==0)
 496              		.loc 1 124 0
 497 0120 FFF7FEFF 		bl	B_Button_Read
 498              	.LVL64:
 499 0124 0028     		cmp	r0, #0
 500 0126 02D1     		bne	.L20
 125:main.c        ****         {
 126:main.c        ****             y++;
 501              		.loc 1 126 0
 502 0128 0135     		adds	r5, r5, #1
 503              	.LVL65:
 504 012a 2DB2     		sxth	r5, r5
 505              	.LVL66:
 506 012c 05E0     		b	.L21
 507              	.L20:
 127:main.c        ****         }
 128:main.c        ****         else if(D_Button_Read()==0)
 508              		.loc 1 128 0
 509 012e FFF7FEFF 		bl	D_Button_Read
 510              	.LVL67:
 511 0132 0028     		cmp	r0, #0
 512 0134 01D1     		bne	.L21
 129:main.c        ****         {
 130:main.c        ****            y--;
 513              		.loc 1 130 0
 514 0136 013D     		subs	r5, r5, #1
 515              	.LVL68:
 516 0138 2DB2     		sxth	r5, r5
 517              	.LVL69:
 518              	.L21:
 131:main.c        ****         }
 132:main.c        ****         drawScope(x,y,GLCD_YELLOW);
 519              		.loc 1 132 0
 520 013a FF22     		movs	r2, #255
 521 013c 1201     		lsls	r2, r2, #4
 522 013e 2900     		movs	r1, r5
 523 0140 2000     		movs	r0, r4
 524 0142 FFF7FEFF 		bl	drawScope
 525              	.LVL70:
 526              	.L19:
 118:main.c        ****     {
 527              		.loc 1 118 0
 528 0146 FFF7FEFF 		bl	A_Button_Read
 529              	.LVL71:
 530 014a 0028     		cmp	r0, #0
 531 014c E1D0     		beq	.L22
 532 014e 19E0     		b	.L23
 533              	.L26:
 133:main.c        ****     }
 134:main.c        ****     
 135:main.c        ****     // If B pressed, move right
ARM GAS  C:\Users\quint\AppData\Local\Temp\cch5caYh.s 			page 13


 136:main.c        ****     while (B_Button_Read()==0) 
 137:main.c        ****     {
 138:main.c        ****         drawScope(x,y,GLCD_BLACK);
 534              		.loc 1 138 0
 535 0150 0022     		movs	r2, #0
 536 0152 2900     		movs	r1, r5
 537 0154 2000     		movs	r0, r4
 538 0156 FFF7FEFF 		bl	drawScope
 539              	.LVL72:
 139:main.c        ****         //drawStars(stars); 
 140:main.c        ****         y++;
 540              		.loc 1 140 0
 541 015a 0135     		adds	r5, r5, #1
 542              	.LVL73:
 543 015c 2DB2     		sxth	r5, r5
 544              	.LVL74:
 141:main.c        ****         if(A_Button_Read()==0)
 545              		.loc 1 141 0
 546 015e FFF7FEFF 		bl	A_Button_Read
 547              	.LVL75:
 548 0162 0028     		cmp	r0, #0
 549 0164 02D1     		bne	.L24
 142:main.c        ****         {
 143:main.c        ****             x--;
 550              		.loc 1 143 0
 551 0166 013C     		subs	r4, r4, #1
 552              	.LVL76:
 553 0168 24B2     		sxth	r4, r4
 554              	.LVL77:
 555 016a 05E0     		b	.L25
 556              	.L24:
 144:main.c        ****         }
 145:main.c        ****         else if(C_Button_Read()==0)
 557              		.loc 1 145 0
 558 016c FFF7FEFF 		bl	C_Button_Read
 559              	.LVL78:
 560 0170 0028     		cmp	r0, #0
 561 0172 01D1     		bne	.L25
 146:main.c        ****         {
 147:main.c        ****            x++;
 562              		.loc 1 147 0
 563 0174 0134     		adds	r4, r4, #1
 564              	.LVL79:
 565 0176 24B2     		sxth	r4, r4
 566              	.LVL80:
 567              	.L25:
 148:main.c        ****         }
 149:main.c        ****         drawScope(x,y,GLCD_YELLOW);
 568              		.loc 1 149 0
 569 0178 FF22     		movs	r2, #255
 570 017a 1201     		lsls	r2, r2, #4
 571 017c 2900     		movs	r1, r5
 572 017e 2000     		movs	r0, r4
 573 0180 FFF7FEFF 		bl	drawScope
 574              	.LVL81:
 575              	.L23:
 136:main.c        ****     {
ARM GAS  C:\Users\quint\AppData\Local\Temp\cch5caYh.s 			page 14


 576              		.loc 1 136 0
 577 0184 FFF7FEFF 		bl	B_Button_Read
 578              	.LVL82:
 579 0188 0028     		cmp	r0, #0
 580 018a E1D0     		beq	.L26
 581 018c 19E0     		b	.L27
 582              	.L30:
 150:main.c        ****     }
 151:main.c        ****     
 152:main.c        ****     // If C pressed, move down
 153:main.c        ****     while (C_Button_Read()==0) 
 154:main.c        ****     {
 155:main.c        ****         drawScope(x,y,GLCD_BLACK);
 583              		.loc 1 155 0
 584 018e 0022     		movs	r2, #0
 585 0190 2900     		movs	r1, r5
 586 0192 2000     		movs	r0, r4
 587 0194 FFF7FEFF 		bl	drawScope
 588              	.LVL83:
 156:main.c        ****         //drawStars(stars); 
 157:main.c        ****         x++;
 589              		.loc 1 157 0
 590 0198 0134     		adds	r4, r4, #1
 591              	.LVL84:
 592 019a 24B2     		sxth	r4, r4
 593              	.LVL85:
 158:main.c        ****         if(B_Button_Read()==0)
 594              		.loc 1 158 0
 595 019c FFF7FEFF 		bl	B_Button_Read
 596              	.LVL86:
 597 01a0 0028     		cmp	r0, #0
 598 01a2 02D1     		bne	.L28
 159:main.c        ****         {
 160:main.c        ****             y++;
 599              		.loc 1 160 0
 600 01a4 0135     		adds	r5, r5, #1
 601              	.LVL87:
 602 01a6 2DB2     		sxth	r5, r5
 603              	.LVL88:
 604 01a8 05E0     		b	.L29
 605              	.L28:
 161:main.c        ****         }
 162:main.c        ****         else if(D_Button_Read()==0)
 606              		.loc 1 162 0
 607 01aa FFF7FEFF 		bl	D_Button_Read
 608              	.LVL89:
 609 01ae 0028     		cmp	r0, #0
 610 01b0 01D1     		bne	.L29
 163:main.c        ****         {
 164:main.c        ****            y--;
 611              		.loc 1 164 0
 612 01b2 013D     		subs	r5, r5, #1
 613              	.LVL90:
 614 01b4 2DB2     		sxth	r5, r5
 615              	.LVL91:
 616              	.L29:
 165:main.c        ****         }
ARM GAS  C:\Users\quint\AppData\Local\Temp\cch5caYh.s 			page 15


 166:main.c        ****         drawScope(x,y,GLCD_YELLOW);
 617              		.loc 1 166 0
 618 01b6 FF22     		movs	r2, #255
 619 01b8 1201     		lsls	r2, r2, #4
 620 01ba 2900     		movs	r1, r5
 621 01bc 2000     		movs	r0, r4
 622 01be FFF7FEFF 		bl	drawScope
 623              	.LVL92:
 624              	.L27:
 153:main.c        ****     {
 625              		.loc 1 153 0
 626 01c2 FFF7FEFF 		bl	C_Button_Read
 627              	.LVL93:
 628 01c6 0028     		cmp	r0, #0
 629 01c8 E1D0     		beq	.L30
 630 01ca 19E0     		b	.L31
 631              	.L34:
 167:main.c        ****     }
 168:main.c        ****     
 169:main.c        ****     // If D pressed, move left
 170:main.c        ****     while (D_Button_Read()==0) 
 171:main.c        ****     {
 172:main.c        ****         drawScope(x,y,GLCD_BLACK);
 632              		.loc 1 172 0
 633 01cc 0022     		movs	r2, #0
 634 01ce 2900     		movs	r1, r5
 635 01d0 2000     		movs	r0, r4
 636 01d2 FFF7FEFF 		bl	drawScope
 637              	.LVL94:
 173:main.c        ****         //drawStars(stars); 
 174:main.c        ****         y--;
 638              		.loc 1 174 0
 639 01d6 013D     		subs	r5, r5, #1
 640              	.LVL95:
 641 01d8 2DB2     		sxth	r5, r5
 642              	.LVL96:
 175:main.c        ****         if(A_Button_Read()==0)
 643              		.loc 1 175 0
 644 01da FFF7FEFF 		bl	A_Button_Read
 645              	.LVL97:
 646 01de 0028     		cmp	r0, #0
 647 01e0 02D1     		bne	.L32
 176:main.c        ****         {
 177:main.c        ****             x--;
 648              		.loc 1 177 0
 649 01e2 013C     		subs	r4, r4, #1
 650              	.LVL98:
 651 01e4 24B2     		sxth	r4, r4
 652              	.LVL99:
 653 01e6 05E0     		b	.L33
 654              	.L32:
 178:main.c        ****         }
 179:main.c        ****         else if(C_Button_Read()==0)
 655              		.loc 1 179 0
 656 01e8 FFF7FEFF 		bl	C_Button_Read
 657              	.LVL100:
 658 01ec 0028     		cmp	r0, #0
ARM GAS  C:\Users\quint\AppData\Local\Temp\cch5caYh.s 			page 16


 659 01ee 01D1     		bne	.L33
 180:main.c        ****         {
 181:main.c        ****            x++;
 660              		.loc 1 181 0
 661 01f0 0134     		adds	r4, r4, #1
 662              	.LVL101:
 663 01f2 24B2     		sxth	r4, r4
 664              	.LVL102:
 665              	.L33:
 182:main.c        ****         }
 183:main.c        ****         drawScope(x,y,GLCD_YELLOW);
 666              		.loc 1 183 0
 667 01f4 FF22     		movs	r2, #255
 668 01f6 1201     		lsls	r2, r2, #4
 669 01f8 2900     		movs	r1, r5
 670 01fa 2000     		movs	r0, r4
 671 01fc FFF7FEFF 		bl	drawScope
 672              	.LVL103:
 673              	.L31:
 170:main.c        ****     {
 674              		.loc 1 170 0
 675 0200 FFF7FEFF 		bl	D_Button_Read
 676              	.LVL104:
 677 0204 0028     		cmp	r0, #0
 678 0206 E1D0     		beq	.L34
 184:main.c        ****     }
 185:main.c        ****         
 186:main.c        **** 
 187:main.c        ****     
 188:main.c        ****     // If joystick center pushed, turn on Blue and Red LEDs and draw lines in White
 189:main.c        ****     if (Joystick_button_Read()==0) 
 679              		.loc 1 189 0
 680 0208 FFF7FEFF 		bl	Joystick_button_Read
 681              	.LVL105:
 682 020c 0028     		cmp	r0, #0
 683 020e 27D1     		bne	.L35
 190:main.c        ****     {      if(hyperblasterReady==true)
 684              		.loc 1 190 0
 685 0210 5B46     		mov	r3, fp
 686 0212 002B     		cmp	r3, #0
 687 0214 11D0     		beq	.L36
 191:main.c        ****             {
 192:main.c        ****                 drawBlast(x,y,0,GLCD_BLUE,stars);  
 688              		.loc 1 192 0
 689 0216 04AB     		add	r3, sp, #16
 690 0218 0093     		str	r3, [sp]
 691 021a 0F23     		movs	r3, #15
 692 021c 0022     		movs	r2, #0
 693 021e 2900     		movs	r1, r5
 694 0220 2000     		movs	r0, r4
 695 0222 FFF7FEFF 		bl	drawBlast
 696              	.LVL106:
 193:main.c        ****                 blasterReady=false;
 194:main.c        ****                 hyperblasterReady=false;
 195:main.c        ****                 counter=0;
 196:main.c        ****                 ledSet(0,1,1); //Set to red
 697              		.loc 1 196 0
ARM GAS  C:\Users\quint\AppData\Local\Temp\cch5caYh.s 			page 17


 698 0226 0122     		movs	r2, #1
 699 0228 0121     		movs	r1, #1
 700 022a 0020     		movs	r0, #0
 701 022c FFF7FEFF 		bl	ledSet
 702              	.LVL107:
 194:main.c        ****                 counter=0;
 703              		.loc 1 194 0
 704 0230 0023     		movs	r3, #0
 705 0232 9B46     		mov	fp, r3
 193:main.c        ****                 blasterReady=false;
 706              		.loc 1 193 0
 707 0234 0393     		str	r3, [sp, #12]
 195:main.c        ****                 ledSet(0,1,1); //Set to red
 708              		.loc 1 195 0
 709 0236 9846     		mov	r8, r3
 710 0238 12E0     		b	.L35
 711              	.LVL108:
 712              	.L36:
 197:main.c        ****             }
 198:main.c        ****         
 199:main.c        ****             else if(blasterReady==true)
 713              		.loc 1 199 0
 714 023a 039B     		ldr	r3, [sp, #12]
 715 023c 002B     		cmp	r3, #0
 716 023e 0FD0     		beq	.L35
 200:main.c        ****             {
 201:main.c        ****                 drawBlast(x,y,0,GLCD_GREEN,stars);  
 717              		.loc 1 201 0
 718 0240 04AB     		add	r3, sp, #16
 719 0242 0093     		str	r3, [sp]
 720 0244 F023     		movs	r3, #240
 721 0246 0022     		movs	r2, #0
 722 0248 2900     		movs	r1, r5
 723 024a 2000     		movs	r0, r4
 724 024c FFF7FEFF 		bl	drawBlast
 725              	.LVL109:
 202:main.c        ****                 blasterReady=false;
 203:main.c        ****                 counter=0;
 204:main.c        ****                 ledSet(0,1,1); //Set to red
 726              		.loc 1 204 0
 727 0250 0122     		movs	r2, #1
 728 0252 0121     		movs	r1, #1
 729 0254 0020     		movs	r0, #0
 730 0256 FFF7FEFF 		bl	ledSet
 731              	.LVL110:
 202:main.c        ****                 blasterReady=false;
 732              		.loc 1 202 0
 733 025a 0023     		movs	r3, #0
 734 025c 0393     		str	r3, [sp, #12]
 203:main.c        ****                 ledSet(0,1,1); //Set to red
 735              		.loc 1 203 0
 736 025e 9846     		mov	r8, r3
 737              	.LVL111:
 738              	.L35:
 205:main.c        ****             }
 206:main.c        ****         
 207:main.c        ****     }   
ARM GAS  C:\Users\quint\AppData\Local\Temp\cch5caYh.s 			page 18


 208:main.c        ****             
 209:main.c        **** 
 210:main.c        ****         
 211:main.c        **** 
 212:main.c        ****      counter++;
 739              		.loc 1 212 0
 740 0260 0123     		movs	r3, #1
 741 0262 9C46     		mov	ip, r3
 742 0264 E044     		add	r8, r8, ip
 743              	.LVL112:
 213:main.c        ****     }
 744              		.loc 1 213 0
 745 0266 07E7     		b	.L37
 746              	.L40:
 747              		.align	2
 748              	.L39:
 749 0268 94FDFFFF 		.word	-620
 750 026c B80B0000 		.word	3000
 751 0270 88130000 		.word	5000
 752              		.cfi_endproc
 753              	.LFE36:
 754              		.size	main, .-main
 755              		.comm	GLCD_FONT8x16,1552,4
 756              		.text
 757              	.Letext0:
 758              		.file 2 "Generated_Source\\PSoC4/cytypes.h"
 759              		.file 3 "Generated_Source\\PSoC4/GLCD.h"
 760              		.file 4 "Generated_Source\\PSoC4/R_LED.h"
 761              		.file 5 "Generated_Source\\PSoC4/G_LED.h"
 762              		.file 6 "Generated_Source\\PSoC4/B_LED.h"
 763              		.file 7 "c:\\program files (x86)\\cypress\\psoc creator\\4.2\\psoc creator\\import\\gnu\\arm\\5.4.
 764              		.file 8 "Generated_Source\\PSoC4/Backlight.h"
 765              		.file 9 "Generated_Source\\PSoC4/B_Button.h"
 766              		.file 10 "Generated_Source\\PSoC4/D_Button.h"
 767              		.file 11 "Generated_Source\\PSoC4/A_Button.h"
 768              		.file 12 "Generated_Source\\PSoC4/C_Button.h"
 769              		.file 13 "Generated_Source\\PSoC4/Joystick_button.h"