ARM GAS  C:\Users\quint\AppData\Local\Temp\cc5i79fD.s 			page 1


   1              		.syntax unified
   2              		.cpu cortex-m0
   3              		.fpu softvfp
   4              		.eabi_attribute 20, 1
   5              		.eabi_attribute 21, 1
   6              		.eabi_attribute 23, 3
   7              		.eabi_attribute 24, 1
   8              		.eabi_attribute 25, 1
   9              		.eabi_attribute 26, 1
  10              		.eabi_attribute 30, 1
  11              		.eabi_attribute 34, 0
  12              		.eabi_attribute 18, 4
  13              		.thumb
  14              		.syntax unified
  15              		.file	"cyfitter_cfg.c"
  16              		.text
  17              	.Ltext0:
  18              		.cfi_sections	.debug_frame
  19              		.section	.text.cfg_write_bytes32,"ax",%progbits
  20              		.align	2
  21              		.code	16
  22              		.thumb_func
  23              		.type	cfg_write_bytes32, %function
  24              	cfg_write_bytes32:
  25              	.LFB3:
  26              		.file 1 "Generated_Source\\PSoC4\\cyfitter_cfg.c"
   1:Generated_Source\PSoC4/cyfitter_cfg.c **** 
   2:Generated_Source\PSoC4/cyfitter_cfg.c **** /*******************************************************************************
   3:Generated_Source\PSoC4/cyfitter_cfg.c **** * File Name: cyfitter_cfg.c
   4:Generated_Source\PSoC4/cyfitter_cfg.c **** * 
   5:Generated_Source\PSoC4/cyfitter_cfg.c **** * PSoC Creator  4.2
   6:Generated_Source\PSoC4/cyfitter_cfg.c **** *
   7:Generated_Source\PSoC4/cyfitter_cfg.c **** * Description:
   8:Generated_Source\PSoC4/cyfitter_cfg.c **** * This file contains device initialization code.
   9:Generated_Source\PSoC4/cyfitter_cfg.c **** * Except for the user defined sections in CyClockStartupError(), this file should not be modified.
  10:Generated_Source\PSoC4/cyfitter_cfg.c **** * This file is automatically generated by PSoC Creator.
  11:Generated_Source\PSoC4/cyfitter_cfg.c **** *
  12:Generated_Source\PSoC4/cyfitter_cfg.c **** ********************************************************************************
  13:Generated_Source\PSoC4/cyfitter_cfg.c **** * Copyright (c) 2007-2018 Cypress Semiconductor.  All rights reserved.
  14:Generated_Source\PSoC4/cyfitter_cfg.c **** * You may use this file only in accordance with the license, terms, conditions, 
  15:Generated_Source\PSoC4/cyfitter_cfg.c **** * disclaimers, and limitations in the end user license agreement accompanying 
  16:Generated_Source\PSoC4/cyfitter_cfg.c **** * the software package with which this file was provided.
  17:Generated_Source\PSoC4/cyfitter_cfg.c **** ********************************************************************************/
  18:Generated_Source\PSoC4/cyfitter_cfg.c **** 
  19:Generated_Source\PSoC4/cyfitter_cfg.c **** #include <string.h>
  20:Generated_Source\PSoC4/cyfitter_cfg.c **** #include "cytypes.h"
  21:Generated_Source\PSoC4/cyfitter_cfg.c **** #include "cydevice_trm.h"
  22:Generated_Source\PSoC4/cyfitter_cfg.c **** #include "cyfitter.h"
  23:Generated_Source\PSoC4/cyfitter_cfg.c **** #include "CyLib.h"
  24:Generated_Source\PSoC4/cyfitter_cfg.c **** #include "CyLFClk.h"
  25:Generated_Source\PSoC4/cyfitter_cfg.c **** #include "cyfitter_cfg.h"
  26:Generated_Source\PSoC4/cyfitter_cfg.c **** #include "cyapicallbacks.h"
  27:Generated_Source\PSoC4/cyfitter_cfg.c **** 
  28:Generated_Source\PSoC4/cyfitter_cfg.c **** 
  29:Generated_Source\PSoC4/cyfitter_cfg.c **** #if defined(__GNUC__) || defined(__ARMCC_VERSION)
  30:Generated_Source\PSoC4/cyfitter_cfg.c ****     #define CYPACKED 
  31:Generated_Source\PSoC4/cyfitter_cfg.c ****     #define CYPACKED_ATTR __attribute__ ((packed))
ARM GAS  C:\Users\quint\AppData\Local\Temp\cc5i79fD.s 			page 2


  32:Generated_Source\PSoC4/cyfitter_cfg.c ****     #define CYALIGNED __attribute__ ((aligned))
  33:Generated_Source\PSoC4/cyfitter_cfg.c ****     #define CY_CFG_UNUSED __attribute__ ((unused))
  34:Generated_Source\PSoC4/cyfitter_cfg.c ****     #ifndef CY_CFG_SECTION
  35:Generated_Source\PSoC4/cyfitter_cfg.c ****         #define CY_CFG_SECTION __attribute__ ((section(".psocinit")))
  36:Generated_Source\PSoC4/cyfitter_cfg.c ****     #endif
  37:Generated_Source\PSoC4/cyfitter_cfg.c ****     
  38:Generated_Source\PSoC4/cyfitter_cfg.c ****     #if defined(__ARMCC_VERSION)
  39:Generated_Source\PSoC4/cyfitter_cfg.c ****         #define CY_CFG_MEMORY_BARRIER() __memory_changed()
  40:Generated_Source\PSoC4/cyfitter_cfg.c ****     #else
  41:Generated_Source\PSoC4/cyfitter_cfg.c ****         #define CY_CFG_MEMORY_BARRIER() __sync_synchronize()
  42:Generated_Source\PSoC4/cyfitter_cfg.c ****     #endif
  43:Generated_Source\PSoC4/cyfitter_cfg.c ****     
  44:Generated_Source\PSoC4/cyfitter_cfg.c **** #elif defined(__ICCARM__)
  45:Generated_Source\PSoC4/cyfitter_cfg.c ****     #include <intrinsics.h>
  46:Generated_Source\PSoC4/cyfitter_cfg.c **** 
  47:Generated_Source\PSoC4/cyfitter_cfg.c ****     #define CYPACKED __packed
  48:Generated_Source\PSoC4/cyfitter_cfg.c ****     #define CYPACKED_ATTR 
  49:Generated_Source\PSoC4/cyfitter_cfg.c ****     #define CYALIGNED _Pragma("data_alignment=4")
  50:Generated_Source\PSoC4/cyfitter_cfg.c ****     #define CY_CFG_UNUSED _Pragma("diag_suppress=Pe177")
  51:Generated_Source\PSoC4/cyfitter_cfg.c ****     #define CY_CFG_SECTION _Pragma("location=\".psocinit\"")
  52:Generated_Source\PSoC4/cyfitter_cfg.c ****     
  53:Generated_Source\PSoC4/cyfitter_cfg.c ****     #define CY_CFG_MEMORY_BARRIER() __DMB()
  54:Generated_Source\PSoC4/cyfitter_cfg.c ****     
  55:Generated_Source\PSoC4/cyfitter_cfg.c **** #else
  56:Generated_Source\PSoC4/cyfitter_cfg.c ****     #error Unsupported toolchain
  57:Generated_Source\PSoC4/cyfitter_cfg.c **** #endif
  58:Generated_Source\PSoC4/cyfitter_cfg.c **** 
  59:Generated_Source\PSoC4/cyfitter_cfg.c **** #ifndef CYCODE
  60:Generated_Source\PSoC4/cyfitter_cfg.c ****     #define CYCODE
  61:Generated_Source\PSoC4/cyfitter_cfg.c **** #endif
  62:Generated_Source\PSoC4/cyfitter_cfg.c **** #ifndef CYDATA
  63:Generated_Source\PSoC4/cyfitter_cfg.c ****     #define CYDATA
  64:Generated_Source\PSoC4/cyfitter_cfg.c **** #endif
  65:Generated_Source\PSoC4/cyfitter_cfg.c **** #ifndef CYFAR
  66:Generated_Source\PSoC4/cyfitter_cfg.c ****     #define CYFAR
  67:Generated_Source\PSoC4/cyfitter_cfg.c **** #endif
  68:Generated_Source\PSoC4/cyfitter_cfg.c **** #ifndef CYXDATA
  69:Generated_Source\PSoC4/cyfitter_cfg.c ****     #define CYXDATA
  70:Generated_Source\PSoC4/cyfitter_cfg.c **** #endif
  71:Generated_Source\PSoC4/cyfitter_cfg.c **** 
  72:Generated_Source\PSoC4/cyfitter_cfg.c **** 
  73:Generated_Source\PSoC4/cyfitter_cfg.c **** CY_CFG_UNUSED
  74:Generated_Source\PSoC4/cyfitter_cfg.c **** static void CYMEMZERO(void *s, size_t n);
  75:Generated_Source\PSoC4/cyfitter_cfg.c **** CY_CFG_UNUSED
  76:Generated_Source\PSoC4/cyfitter_cfg.c **** static void CYMEMZERO(void *s, size_t n)
  77:Generated_Source\PSoC4/cyfitter_cfg.c **** {
  78:Generated_Source\PSoC4/cyfitter_cfg.c **** 	(void)memset(s, 0, n);
  79:Generated_Source\PSoC4/cyfitter_cfg.c **** }
  80:Generated_Source\PSoC4/cyfitter_cfg.c **** CY_CFG_UNUSED
  81:Generated_Source\PSoC4/cyfitter_cfg.c **** static void CYCONFIGCPY(void *dest, const void *src, size_t n);
  82:Generated_Source\PSoC4/cyfitter_cfg.c **** CY_CFG_UNUSED
  83:Generated_Source\PSoC4/cyfitter_cfg.c **** static void CYCONFIGCPY(void *dest, const void *src, size_t n)
  84:Generated_Source\PSoC4/cyfitter_cfg.c **** {
  85:Generated_Source\PSoC4/cyfitter_cfg.c **** 	(void)memcpy(dest, src, n);
  86:Generated_Source\PSoC4/cyfitter_cfg.c **** }
  87:Generated_Source\PSoC4/cyfitter_cfg.c **** CY_CFG_UNUSED
  88:Generated_Source\PSoC4/cyfitter_cfg.c **** static void CYCONFIGCPYCODE(void *dest, const void *src, size_t n);
ARM GAS  C:\Users\quint\AppData\Local\Temp\cc5i79fD.s 			page 3


  89:Generated_Source\PSoC4/cyfitter_cfg.c **** CY_CFG_UNUSED
  90:Generated_Source\PSoC4/cyfitter_cfg.c **** static void CYCONFIGCPYCODE(void *dest, const void *src, size_t n)
  91:Generated_Source\PSoC4/cyfitter_cfg.c **** {
  92:Generated_Source\PSoC4/cyfitter_cfg.c **** 	(void)memcpy(dest, src, n);
  93:Generated_Source\PSoC4/cyfitter_cfg.c **** }
  94:Generated_Source\PSoC4/cyfitter_cfg.c **** 
  95:Generated_Source\PSoC4/cyfitter_cfg.c **** 
  96:Generated_Source\PSoC4/cyfitter_cfg.c **** 
  97:Generated_Source\PSoC4/cyfitter_cfg.c **** 
  98:Generated_Source\PSoC4/cyfitter_cfg.c **** /* Clock startup error codes                                                   */
  99:Generated_Source\PSoC4/cyfitter_cfg.c **** #define CYCLOCKSTART_NO_ERROR    0u
 100:Generated_Source\PSoC4/cyfitter_cfg.c **** #define CYCLOCKSTART_XTAL_ERROR  1u
 101:Generated_Source\PSoC4/cyfitter_cfg.c **** #define CYCLOCKSTART_32KHZ_ERROR 2u
 102:Generated_Source\PSoC4/cyfitter_cfg.c **** #define CYCLOCKSTART_PLL_ERROR   3u
 103:Generated_Source\PSoC4/cyfitter_cfg.c **** #define CYCLOCKSTART_FLL_ERROR   4u
 104:Generated_Source\PSoC4/cyfitter_cfg.c **** #define CYCLOCKSTART_WCO_ERROR   5u
 105:Generated_Source\PSoC4/cyfitter_cfg.c **** 
 106:Generated_Source\PSoC4/cyfitter_cfg.c **** 
 107:Generated_Source\PSoC4/cyfitter_cfg.c **** #ifdef CY_NEED_CYCLOCKSTARTUPERROR
 108:Generated_Source\PSoC4/cyfitter_cfg.c **** /*******************************************************************************
 109:Generated_Source\PSoC4/cyfitter_cfg.c **** * Function Name: CyClockStartupError
 110:Generated_Source\PSoC4/cyfitter_cfg.c **** ********************************************************************************
 111:Generated_Source\PSoC4/cyfitter_cfg.c **** * Summary:
 112:Generated_Source\PSoC4/cyfitter_cfg.c **** *  If an error is encountered during clock configuration (crystal startup error,
 113:Generated_Source\PSoC4/cyfitter_cfg.c **** *  PLL lock error, etc.), the system will end up here.  Unless reimplemented by
 114:Generated_Source\PSoC4/cyfitter_cfg.c **** *  the customer, this function will stop in an infinite loop.
 115:Generated_Source\PSoC4/cyfitter_cfg.c **** *
 116:Generated_Source\PSoC4/cyfitter_cfg.c **** * Parameters:
 117:Generated_Source\PSoC4/cyfitter_cfg.c **** *   void
 118:Generated_Source\PSoC4/cyfitter_cfg.c **** *
 119:Generated_Source\PSoC4/cyfitter_cfg.c **** * Return:
 120:Generated_Source\PSoC4/cyfitter_cfg.c **** *   void
 121:Generated_Source\PSoC4/cyfitter_cfg.c **** *
 122:Generated_Source\PSoC4/cyfitter_cfg.c **** *******************************************************************************/
 123:Generated_Source\PSoC4/cyfitter_cfg.c **** CY_CFG_UNUSED
 124:Generated_Source\PSoC4/cyfitter_cfg.c **** static void CyClockStartupError(uint8 errorCode);
 125:Generated_Source\PSoC4/cyfitter_cfg.c **** CY_CFG_UNUSED
 126:Generated_Source\PSoC4/cyfitter_cfg.c **** static void CyClockStartupError(uint8 errorCode)
 127:Generated_Source\PSoC4/cyfitter_cfg.c **** {
 128:Generated_Source\PSoC4/cyfitter_cfg.c ****     /* To remove the compiler warning if errorCode not used.                */
 129:Generated_Source\PSoC4/cyfitter_cfg.c ****     errorCode = errorCode;
 130:Generated_Source\PSoC4/cyfitter_cfg.c **** 
 131:Generated_Source\PSoC4/cyfitter_cfg.c ****     /* If we have a clock startup error (bad MHz crystal, PLL lock, etc.),  */
 132:Generated_Source\PSoC4/cyfitter_cfg.c ****     /* we will end up here to allow the customer to implement something to  */
 133:Generated_Source\PSoC4/cyfitter_cfg.c ****     /* deal with the clock condition.                                       */
 134:Generated_Source\PSoC4/cyfitter_cfg.c **** 
 135:Generated_Source\PSoC4/cyfitter_cfg.c **** #ifdef CY_CFG_CLOCK_STARTUP_ERROR_CALLBACK
 136:Generated_Source\PSoC4/cyfitter_cfg.c ****     CY_CFG_Clock_Startup_ErrorCallback();
 137:Generated_Source\PSoC4/cyfitter_cfg.c **** #else
 138:Generated_Source\PSoC4/cyfitter_cfg.c ****     /*  If not using CY_CFG_CLOCK_STARTUP_ERROR_CALLBACK, place your clock startup code here. */
 139:Generated_Source\PSoC4/cyfitter_cfg.c ****     /* `#START CyClockStartupError` */
 140:Generated_Source\PSoC4/cyfitter_cfg.c **** 
 141:Generated_Source\PSoC4/cyfitter_cfg.c **** 
 142:Generated_Source\PSoC4/cyfitter_cfg.c **** 
 143:Generated_Source\PSoC4/cyfitter_cfg.c ****     /* `#END` */
 144:Generated_Source\PSoC4/cyfitter_cfg.c **** 
 145:Generated_Source\PSoC4/cyfitter_cfg.c ****     while(1) {}
ARM GAS  C:\Users\quint\AppData\Local\Temp\cc5i79fD.s 			page 4


 146:Generated_Source\PSoC4/cyfitter_cfg.c **** #endif /* CY_CFG_CLOCK_STARTUP_ERROR_CALLBACK */
 147:Generated_Source\PSoC4/cyfitter_cfg.c **** }
 148:Generated_Source\PSoC4/cyfitter_cfg.c **** #endif
 149:Generated_Source\PSoC4/cyfitter_cfg.c **** 
 150:Generated_Source\PSoC4/cyfitter_cfg.c **** #define CY_CFG_BASE_ADDR_COUNT 9u
 151:Generated_Source\PSoC4/cyfitter_cfg.c **** CYPACKED typedef struct
 152:Generated_Source\PSoC4/cyfitter_cfg.c **** {
 153:Generated_Source\PSoC4/cyfitter_cfg.c **** 	uint8 offset;
 154:Generated_Source\PSoC4/cyfitter_cfg.c **** 	uint8 value;
 155:Generated_Source\PSoC4/cyfitter_cfg.c **** } CYPACKED_ATTR cy_cfg_addrvalue_t;
 156:Generated_Source\PSoC4/cyfitter_cfg.c **** 
 157:Generated_Source\PSoC4/cyfitter_cfg.c **** 
 158:Generated_Source\PSoC4/cyfitter_cfg.c **** 
 159:Generated_Source\PSoC4/cyfitter_cfg.c **** /*******************************************************************************
 160:Generated_Source\PSoC4/cyfitter_cfg.c **** * Function Name: cfg_write_bytes32
 161:Generated_Source\PSoC4/cyfitter_cfg.c **** ********************************************************************************
 162:Generated_Source\PSoC4/cyfitter_cfg.c **** * Summary:
 163:Generated_Source\PSoC4/cyfitter_cfg.c **** *  This function is used for setting up the chip configuration areas that
 164:Generated_Source\PSoC4/cyfitter_cfg.c **** *  contain relatively sparse data.
 165:Generated_Source\PSoC4/cyfitter_cfg.c **** *
 166:Generated_Source\PSoC4/cyfitter_cfg.c **** * Parameters:
 167:Generated_Source\PSoC4/cyfitter_cfg.c **** *   void
 168:Generated_Source\PSoC4/cyfitter_cfg.c **** *
 169:Generated_Source\PSoC4/cyfitter_cfg.c **** * Return:
 170:Generated_Source\PSoC4/cyfitter_cfg.c **** *   void
 171:Generated_Source\PSoC4/cyfitter_cfg.c **** *
 172:Generated_Source\PSoC4/cyfitter_cfg.c **** *******************************************************************************/
 173:Generated_Source\PSoC4/cyfitter_cfg.c **** static void cfg_write_bytes32(const uint32 addr_table[], const cy_cfg_addrvalue_t data_table[]);
 174:Generated_Source\PSoC4/cyfitter_cfg.c **** static void cfg_write_bytes32(const uint32 addr_table[], const cy_cfg_addrvalue_t data_table[])
 175:Generated_Source\PSoC4/cyfitter_cfg.c **** {
  27              		.loc 1 175 0
  28              		.cfi_startproc
  29              		@ args = 0, pretend = 0, frame = 0
  30              		@ frame_needed = 0, uses_anonymous_args = 0
  31              	.LVL0:
  32 0000 F0B5     		push	{r4, r5, r6, r7, lr}
  33              		.cfi_def_cfa_offset 20
  34              		.cfi_offset 4, -20
  35              		.cfi_offset 5, -16
  36              		.cfi_offset 6, -12
  37              		.cfi_offset 7, -8
  38              		.cfi_offset 14, -4
  39              	.LVL1:
 176:Generated_Source\PSoC4/cyfitter_cfg.c **** 	/* For 32-bit little-endian architectures */
 177:Generated_Source\PSoC4/cyfitter_cfg.c **** 	uint32 i, j = 0u;
  40              		.loc 1 177 0
  41 0002 0025     		movs	r5, #0
 178:Generated_Source\PSoC4/cyfitter_cfg.c **** 	for (i = 0u; i < CY_CFG_BASE_ADDR_COUNT; i++)
  42              		.loc 1 178 0
  43 0004 0027     		movs	r7, #0
  44 0006 11E0     		b	.L2
  45              	.LVL2:
  46              	.L5:
  47              	.LBB2:
 179:Generated_Source\PSoC4/cyfitter_cfg.c **** 	{
 180:Generated_Source\PSoC4/cyfitter_cfg.c **** 		uint32 baseAddr = addr_table[i];
  48              		.loc 1 180 0
ARM GAS  C:\Users\quint\AppData\Local\Temp\cc5i79fD.s 			page 5


  49 0008 BB00     		lsls	r3, r7, #2
  50 000a C658     		ldr	r6, [r0, r3]
  51              	.LVL3:
 181:Generated_Source\PSoC4/cyfitter_cfg.c **** 		uint8 count = (uint8)baseAddr;
  52              		.loc 1 181 0
  53 000c F3B2     		uxtb	r3, r6
  54              	.LVL4:
 182:Generated_Source\PSoC4/cyfitter_cfg.c **** 		baseAddr &= 0xFFFFFF00u;
  55              		.loc 1 182 0
  56 000e FF22     		movs	r2, #255
  57 0010 9643     		bics	r6, r2
  58              	.LVL5:
 183:Generated_Source\PSoC4/cyfitter_cfg.c **** 		while (count != 0u)
  59              		.loc 1 183 0
  60 0012 08E0     		b	.L3
  61              	.L4:
 184:Generated_Source\PSoC4/cyfitter_cfg.c **** 		{
 185:Generated_Source\PSoC4/cyfitter_cfg.c **** 			CY_SET_REG8((void *)(baseAddr + data_table[j].offset), data_table[j].value);
  62              		.loc 1 185 0
  63 0014 6A00     		lsls	r2, r5, #1
  64 0016 8A18     		adds	r2, r1, r2
  65 0018 1478     		ldrb	r4, [r2]
  66 001a A419     		adds	r4, r4, r6
  67 001c 5278     		ldrb	r2, [r2, #1]
  68 001e 2270     		strb	r2, [r4]
 186:Generated_Source\PSoC4/cyfitter_cfg.c **** 			j++;
  69              		.loc 1 186 0
  70 0020 0135     		adds	r5, r5, #1
  71              	.LVL6:
 187:Generated_Source\PSoC4/cyfitter_cfg.c **** 			count--;
  72              		.loc 1 187 0
  73 0022 013B     		subs	r3, r3, #1
  74              	.LVL7:
  75 0024 DBB2     		uxtb	r3, r3
  76              	.LVL8:
  77              	.L3:
 183:Generated_Source\PSoC4/cyfitter_cfg.c **** 		{
  78              		.loc 1 183 0
  79 0026 002B     		cmp	r3, #0
  80 0028 F4D1     		bne	.L4
  81              	.LBE2:
 178:Generated_Source\PSoC4/cyfitter_cfg.c **** 	{
  82              		.loc 1 178 0 discriminator 2
  83 002a 0137     		adds	r7, r7, #1
  84              	.LVL9:
  85              	.L2:
 178:Generated_Source\PSoC4/cyfitter_cfg.c **** 	{
  86              		.loc 1 178 0 is_stmt 0 discriminator 1
  87 002c 082F     		cmp	r7, #8
  88 002e EBD9     		bls	.L5
 188:Generated_Source\PSoC4/cyfitter_cfg.c **** 		}
 189:Generated_Source\PSoC4/cyfitter_cfg.c **** 	}
 190:Generated_Source\PSoC4/cyfitter_cfg.c **** }
  89              		.loc 1 190 0 is_stmt 1
  90              		@ sp needed
  91              	.LVL10:
  92              	.LVL11:
ARM GAS  C:\Users\quint\AppData\Local\Temp\cc5i79fD.s 			page 6


  93 0030 F0BD     		pop	{r4, r5, r6, r7, pc}
  94              		.cfi_endproc
  95              	.LFE3:
  96              		.size	cfg_write_bytes32, .-cfg_write_bytes32
  97 0032 C046     		.section	.text.CYMEMZERO,"ax",%progbits
  98              		.align	2
  99              		.code	16
 100              		.thumb_func
 101              		.type	CYMEMZERO, %function
 102              	CYMEMZERO:
 103              	.LFB0:
  77:Generated_Source\PSoC4/cyfitter_cfg.c **** 	(void)memset(s, 0, n);
 104              		.loc 1 77 0
 105              		.cfi_startproc
 106              		@ args = 0, pretend = 0, frame = 0
 107              		@ frame_needed = 0, uses_anonymous_args = 0
 108              	.LVL12:
 109 0000 10B5     		push	{r4, lr}
 110              		.cfi_def_cfa_offset 8
 111              		.cfi_offset 4, -8
 112              		.cfi_offset 14, -4
 113 0002 0A00     		movs	r2, r1
  78:Generated_Source\PSoC4/cyfitter_cfg.c **** }
 114              		.loc 1 78 0
 115 0004 0021     		movs	r1, #0
 116              	.LVL13:
 117 0006 FFF7FEFF 		bl	memset
 118              	.LVL14:
  79:Generated_Source\PSoC4/cyfitter_cfg.c **** CY_CFG_UNUSED
 119              		.loc 1 79 0
 120              		@ sp needed
 121 000a 10BD     		pop	{r4, pc}
 122              		.cfi_endproc
 123              	.LFE0:
 124              		.size	CYMEMZERO, .-CYMEMZERO
 125              		.section	.text.CYCONFIGCPYCODE,"ax",%progbits
 126              		.align	2
 127              		.code	16
 128              		.thumb_func
 129              		.type	CYCONFIGCPYCODE, %function
 130              	CYCONFIGCPYCODE:
 131              	.LFB2:
  91:Generated_Source\PSoC4/cyfitter_cfg.c **** 	(void)memcpy(dest, src, n);
 132              		.loc 1 91 0
 133              		.cfi_startproc
 134              		@ args = 0, pretend = 0, frame = 0
 135              		@ frame_needed = 0, uses_anonymous_args = 0
 136              	.LVL15:
 137 0000 10B5     		push	{r4, lr}
 138              		.cfi_def_cfa_offset 8
 139              		.cfi_offset 4, -8
 140              		.cfi_offset 14, -4
  92:Generated_Source\PSoC4/cyfitter_cfg.c **** }
 141              		.loc 1 92 0
 142 0002 FFF7FEFF 		bl	memcpy
 143              	.LVL16:
  93:Generated_Source\PSoC4/cyfitter_cfg.c **** 
ARM GAS  C:\Users\quint\AppData\Local\Temp\cc5i79fD.s 			page 7


 144              		.loc 1 93 0
 145              		@ sp needed
 146 0006 10BD     		pop	{r4, pc}
 147              		.cfi_endproc
 148              	.LFE2:
 149              		.size	CYCONFIGCPYCODE, .-CYCONFIGCPYCODE
 150              		.section	.psocinit,"ax",%progbits
 151              		.align	2
 152              		.code	16
 153              		.thumb_func
 154              		.type	ClockSetup, %function
 155              	ClockSetup:
 156              	.LFB4:
 191:Generated_Source\PSoC4/cyfitter_cfg.c **** 
 192:Generated_Source\PSoC4/cyfitter_cfg.c **** 
 193:Generated_Source\PSoC4/cyfitter_cfg.c **** /*******************************************************************************
 194:Generated_Source\PSoC4/cyfitter_cfg.c **** * Function Name: ClockSetup
 195:Generated_Source\PSoC4/cyfitter_cfg.c **** ********************************************************************************
 196:Generated_Source\PSoC4/cyfitter_cfg.c **** *
 197:Generated_Source\PSoC4/cyfitter_cfg.c **** * Summary:
 198:Generated_Source\PSoC4/cyfitter_cfg.c **** *   Performs the initialization of all of the clocks in the device based on the
 199:Generated_Source\PSoC4/cyfitter_cfg.c **** *   settings in the Clock tab of the DWR.  This includes enabling the requested
 200:Generated_Source\PSoC4/cyfitter_cfg.c **** *   clocks and setting the necessary dividers to produce the desired frequency. 
 201:Generated_Source\PSoC4/cyfitter_cfg.c **** *
 202:Generated_Source\PSoC4/cyfitter_cfg.c **** * Parameters:
 203:Generated_Source\PSoC4/cyfitter_cfg.c **** *   void
 204:Generated_Source\PSoC4/cyfitter_cfg.c **** *
 205:Generated_Source\PSoC4/cyfitter_cfg.c **** * Return:
 206:Generated_Source\PSoC4/cyfitter_cfg.c **** *   void
 207:Generated_Source\PSoC4/cyfitter_cfg.c **** *
 208:Generated_Source\PSoC4/cyfitter_cfg.c **** *******************************************************************************/
 209:Generated_Source\PSoC4/cyfitter_cfg.c **** static void ClockSetup(void);
 210:Generated_Source\PSoC4/cyfitter_cfg.c **** CY_CFG_SECTION
 211:Generated_Source\PSoC4/cyfitter_cfg.c **** static void ClockSetup(void)
 212:Generated_Source\PSoC4/cyfitter_cfg.c **** {
 157              		.loc 1 212 0
 158              		.cfi_startproc
 159              		@ args = 0, pretend = 0, frame = 0
 160              		@ frame_needed = 0, uses_anonymous_args = 0
 161 0000 70B5     		push	{r4, r5, r6, lr}
 162              		.cfi_def_cfa_offset 16
 163              		.cfi_offset 4, -16
 164              		.cfi_offset 5, -12
 165              		.cfi_offset 6, -8
 166              		.cfi_offset 14, -4
 213:Generated_Source\PSoC4/cyfitter_cfg.c **** 	/* Enable HALF_EN before trimming for the flash accelerator. */
 214:Generated_Source\PSoC4/cyfitter_cfg.c **** 	CY_SET_REG32((void CYXDATA *)(CYREG_CLK_SELECT), (CY_GET_REG32((void *)CYREG_CLK_SELECT) | 0x00040
 167              		.loc 1 214 0
 168 0002 174C     		ldr	r4, .L9
 169 0004 2368     		ldr	r3, [r4]
 170 0006 8022     		movs	r2, #128
 171 0008 D202     		lsls	r2, r2, #11
 172 000a 1343     		orrs	r3, r2
 173 000c 2360     		str	r3, [r4]
 215:Generated_Source\PSoC4/cyfitter_cfg.c **** 
 216:Generated_Source\PSoC4/cyfitter_cfg.c **** 	/* Setup and trim IMO based on desired frequency. */
 217:Generated_Source\PSoC4/cyfitter_cfg.c **** 	CySysClkWriteImoFreq(24u);
ARM GAS  C:\Users\quint\AppData\Local\Temp\cc5i79fD.s 			page 8


 174              		.loc 1 217 0
 175 000e 1820     		movs	r0, #24
 176 0010 FFF7FEFF 		bl	CySysClkWriteImoFreq
 177              	.LVL17:
 218:Generated_Source\PSoC4/cyfitter_cfg.c **** 
 219:Generated_Source\PSoC4/cyfitter_cfg.c **** 	/* Disable HALF_EN since it is not required at this IMO frequency. */
 220:Generated_Source\PSoC4/cyfitter_cfg.c **** 	CY_SET_REG32((void CYXDATA *)(CYREG_CLK_SELECT), (CY_GET_REG32((void *)CYREG_CLK_SELECT) & 0xFFFBF
 178              		.loc 1 220 0
 179 0014 2268     		ldr	r2, [r4]
 180 0016 134B     		ldr	r3, .L9+4
 181 0018 1340     		ands	r3, r2
 182 001a 2360     		str	r3, [r4]
 221:Generated_Source\PSoC4/cyfitter_cfg.c **** 	/* CYDEV_CLK_ILO_CONFIG Starting address: CYDEV_CLK_ILO_CONFIG */
 222:Generated_Source\PSoC4/cyfitter_cfg.c **** 	CY_SET_REG32((void *)(CYREG_CLK_ILO_CONFIG), 0x80000006u);
 183              		.loc 1 222 0
 184 001c 124A     		ldr	r2, .L9+8
 185 001e 134B     		ldr	r3, .L9+12
 186 0020 1A60     		str	r2, [r3]
 223:Generated_Source\PSoC4/cyfitter_cfg.c **** 
 224:Generated_Source\PSoC4/cyfitter_cfg.c **** 
 225:Generated_Source\PSoC4/cyfitter_cfg.c **** 	/* CYDEV_CLK_SELECT00 Starting address: CYDEV_CLK_SELECT00 */
 226:Generated_Source\PSoC4/cyfitter_cfg.c **** 	CY_SET_REG32((void *)(CYREG_CLK_SELECT08), 0x00000020u);
 187              		.loc 1 226 0
 188 0022 2023     		movs	r3, #32
 189 0024 124A     		ldr	r2, .L9+16
 190 0026 1360     		str	r3, [r2]
 227:Generated_Source\PSoC4/cyfitter_cfg.c **** 	CY_SET_REG32((void *)(CYREG_CLK_SELECT09), 0x00000020u);
 191              		.loc 1 227 0
 192 0028 124A     		ldr	r2, .L9+20
 193 002a 1360     		str	r3, [r2]
 228:Generated_Source\PSoC4/cyfitter_cfg.c **** 	CY_SET_REG32((void *)(CYREG_CLK_SELECT12), 0x00000010u);
 194              		.loc 1 228 0
 195 002c 1022     		movs	r2, #16
 196 002e 124B     		ldr	r3, .L9+24
 197 0030 1A60     		str	r2, [r3]
 229:Generated_Source\PSoC4/cyfitter_cfg.c **** 
 230:Generated_Source\PSoC4/cyfitter_cfg.c **** 	/* CYDEV_CLK_IMO_CONFIG Starting address: CYDEV_CLK_IMO_CONFIG */
 231:Generated_Source\PSoC4/cyfitter_cfg.c **** 	CY_SET_REG32((void *)(CYREG_CLK_IMO_CONFIG), 0x80000000u);
 198              		.loc 1 231 0
 199 0032 8022     		movs	r2, #128
 200 0034 1206     		lsls	r2, r2, #24
 201 0036 114B     		ldr	r3, .L9+28
 202 0038 1A60     		str	r2, [r3]
 232:Generated_Source\PSoC4/cyfitter_cfg.c **** 
 233:Generated_Source\PSoC4/cyfitter_cfg.c **** 	/* CYDEV_CLK_SELECT Starting address: CYDEV_CLK_SELECT */
 234:Generated_Source\PSoC4/cyfitter_cfg.c **** 	CY_SET_REG32((void *)(CYREG_CLK_SELECT), 0x00000000u);
 203              		.loc 1 234 0
 204 003a 0025     		movs	r5, #0
 205 003c 2560     		str	r5, [r4]
 235:Generated_Source\PSoC4/cyfitter_cfg.c **** 
 236:Generated_Source\PSoC4/cyfitter_cfg.c **** 	/* CYDEV_CLK_DIVIDER_A00 Starting address: CYDEV_CLK_DIVIDER_A00 */
 237:Generated_Source\PSoC4/cyfitter_cfg.c **** 	CY_SET_REG32((void *)(CYREG_CLK_DIVIDER_A00), 0x80000001u);
 206              		.loc 1 237 0
 207 003e 104A     		ldr	r2, .L9+32
 208 0040 104B     		ldr	r3, .L9+36
 209 0042 1A60     		str	r2, [r3]
 238:Generated_Source\PSoC4/cyfitter_cfg.c **** 
ARM GAS  C:\Users\quint\AppData\Local\Temp\cc5i79fD.s 			page 9


 239:Generated_Source\PSoC4/cyfitter_cfg.c **** 	/* CYDEV_CLK_DIVIDER_B00 Starting address: CYDEV_CLK_DIVIDER_B00 */
 240:Generated_Source\PSoC4/cyfitter_cfg.c **** 	CY_SET_REG32((void *)(CYREG_CLK_DIVIDER_B00), 0x80005DBFu);
 210              		.loc 1 240 0
 211 0044 104A     		ldr	r2, .L9+40
 212 0046 114B     		ldr	r3, .L9+44
 213 0048 1A60     		str	r2, [r3]
 241:Generated_Source\PSoC4/cyfitter_cfg.c **** 
 242:Generated_Source\PSoC4/cyfitter_cfg.c **** 	(void)CyIntSetVector(9u, &CySysWdtIsr);
 214              		.loc 1 242 0
 215 004a 1149     		ldr	r1, .L9+48
 216 004c 0920     		movs	r0, #9
 217 004e FFF7FEFF 		bl	CyIntSetVector
 218              	.LVL18:
 243:Generated_Source\PSoC4/cyfitter_cfg.c **** 	CyIntEnable(9u);
 219              		.loc 1 243 0
 220 0052 0920     		movs	r0, #9
 221 0054 FFF7FEFF 		bl	CyIntEnable
 222              	.LVL19:
 244:Generated_Source\PSoC4/cyfitter_cfg.c **** 	CY_SET_REG32((void *)(CYREG_WDT_CONFIG), 0x00000000u);
 223              		.loc 1 244 0
 224 0058 0E4B     		ldr	r3, .L9+52
 225 005a 1D60     		str	r5, [r3]
 245:Generated_Source\PSoC4/cyfitter_cfg.c **** }
 226              		.loc 1 245 0
 227              		@ sp needed
 228 005c 70BD     		pop	{r4, r5, r6, pc}
 229              	.L10:
 230 005e C046     		.align	2
 231              	.L9:
 232 0060 00010B40 		.word	1074462976
 233 0064 FFFFFBFF 		.word	-262145
 234 0068 06000080 		.word	-2147483642
 235 006c 04010B40 		.word	1074462980
 236 0070 20020240 		.word	1073873440
 237 0074 24020240 		.word	1073873444
 238 0078 30020240 		.word	1073873456
 239 007c 08010B40 		.word	1074462984
 240 0080 01000080 		.word	-2147483647
 241 0084 00000240 		.word	1073872896
 242 0088 BF5D0080 		.word	-2147459649
 243 008c 40000240 		.word	1073872960
 244 0090 00000000 		.word	CySysWdtIsr
 245 0094 0C020B40 		.word	1074463244
 246              		.cfi_endproc
 247              	.LFE4:
 248              		.size	ClockSetup, .-ClockSetup
 249              		.align	2
 250              		.global	cyfitter_cfg
 251              		.code	16
 252              		.thumb_func
 253              		.type	cyfitter_cfg, %function
 254              	cyfitter_cfg:
 255              	.LFB6:
 246:Generated_Source\PSoC4/cyfitter_cfg.c **** 
 247:Generated_Source\PSoC4/cyfitter_cfg.c **** 
 248:Generated_Source\PSoC4/cyfitter_cfg.c **** /* Analog API Functions */
 249:Generated_Source\PSoC4/cyfitter_cfg.c **** 
ARM GAS  C:\Users\quint\AppData\Local\Temp\cc5i79fD.s 			page 10


 250:Generated_Source\PSoC4/cyfitter_cfg.c **** 
 251:Generated_Source\PSoC4/cyfitter_cfg.c **** /*******************************************************************************
 252:Generated_Source\PSoC4/cyfitter_cfg.c **** * Function Name: AnalogSetDefault
 253:Generated_Source\PSoC4/cyfitter_cfg.c **** ********************************************************************************
 254:Generated_Source\PSoC4/cyfitter_cfg.c **** *
 255:Generated_Source\PSoC4/cyfitter_cfg.c **** * Summary:
 256:Generated_Source\PSoC4/cyfitter_cfg.c **** *  Sets up the analog portions of the chip to default values based on chip
 257:Generated_Source\PSoC4/cyfitter_cfg.c **** *  configuration options from the project.
 258:Generated_Source\PSoC4/cyfitter_cfg.c **** *
 259:Generated_Source\PSoC4/cyfitter_cfg.c **** * Parameters:
 260:Generated_Source\PSoC4/cyfitter_cfg.c **** *  void
 261:Generated_Source\PSoC4/cyfitter_cfg.c **** *
 262:Generated_Source\PSoC4/cyfitter_cfg.c **** * Return:
 263:Generated_Source\PSoC4/cyfitter_cfg.c **** *  void
 264:Generated_Source\PSoC4/cyfitter_cfg.c **** *
 265:Generated_Source\PSoC4/cyfitter_cfg.c **** *******************************************************************************/
 266:Generated_Source\PSoC4/cyfitter_cfg.c **** static void AnalogSetDefault(void);
 267:Generated_Source\PSoC4/cyfitter_cfg.c **** static void AnalogSetDefault(void)
 268:Generated_Source\PSoC4/cyfitter_cfg.c **** {
 269:Generated_Source\PSoC4/cyfitter_cfg.c **** }
 270:Generated_Source\PSoC4/cyfitter_cfg.c **** 
 271:Generated_Source\PSoC4/cyfitter_cfg.c **** 
 272:Generated_Source\PSoC4/cyfitter_cfg.c **** 
 273:Generated_Source\PSoC4/cyfitter_cfg.c **** 
 274:Generated_Source\PSoC4/cyfitter_cfg.c **** /*******************************************************************************
 275:Generated_Source\PSoC4/cyfitter_cfg.c **** * Function Name: cyfitter_cfg
 276:Generated_Source\PSoC4/cyfitter_cfg.c **** ********************************************************************************
 277:Generated_Source\PSoC4/cyfitter_cfg.c **** * Summary:
 278:Generated_Source\PSoC4/cyfitter_cfg.c **** *  This function is called by the start-up code for the selected device. It
 279:Generated_Source\PSoC4/cyfitter_cfg.c **** *  performs all of the necessary device configuration based on the design
 280:Generated_Source\PSoC4/cyfitter_cfg.c **** *  settings.  This includes settings from the Design Wide Resources (DWR) such
 281:Generated_Source\PSoC4/cyfitter_cfg.c **** *  as Clocks and Pins as well as any component configuration that is necessary.
 282:Generated_Source\PSoC4/cyfitter_cfg.c **** *
 283:Generated_Source\PSoC4/cyfitter_cfg.c **** * Parameters:
 284:Generated_Source\PSoC4/cyfitter_cfg.c **** *   void
 285:Generated_Source\PSoC4/cyfitter_cfg.c **** *
 286:Generated_Source\PSoC4/cyfitter_cfg.c **** * Return:
 287:Generated_Source\PSoC4/cyfitter_cfg.c **** *   void
 288:Generated_Source\PSoC4/cyfitter_cfg.c **** *
 289:Generated_Source\PSoC4/cyfitter_cfg.c **** *******************************************************************************/
 290:Generated_Source\PSoC4/cyfitter_cfg.c **** CY_CFG_SECTION
 291:Generated_Source\PSoC4/cyfitter_cfg.c **** void cyfitter_cfg(void)
 292:Generated_Source\PSoC4/cyfitter_cfg.c **** {
 256              		.loc 1 292 0
 257              		.cfi_startproc
 258              		@ args = 0, pretend = 0, frame = 0
 259              		@ frame_needed = 0, uses_anonymous_args = 0
 260 0098 70B5     		push	{r4, r5, r6, lr}
 261              		.cfi_def_cfa_offset 16
 262              		.cfi_offset 4, -16
 263              		.cfi_offset 5, -12
 264              		.cfi_offset 6, -8
 265              		.cfi_offset 14, -4
 293:Generated_Source\PSoC4/cyfitter_cfg.c **** 	/* Disable interrupts by default. Let user enable if/when they want. */
 294:Generated_Source\PSoC4/cyfitter_cfg.c **** 	CyGlobalIntDisable;
 266              		.loc 1 294 0
 267              		.syntax divided
ARM GAS  C:\Users\quint\AppData\Local\Temp\cc5i79fD.s 			page 11


 268              	@ 294 "Generated_Source\PSoC4\cyfitter_cfg.c" 1
 269 009a 72B6     		CPSID   i
 270              	@ 0 "" 2
 271              	.LVL20:
 272              		.thumb
 273              		.syntax unified
 274              	.LBB3:
 295:Generated_Source\PSoC4/cyfitter_cfg.c **** 
 296:Generated_Source\PSoC4/cyfitter_cfg.c **** 	{
 297:Generated_Source\PSoC4/cyfitter_cfg.c **** 		static const uint32 CYCODE cy_cfg_addr_table[] = {
 298:Generated_Source\PSoC4/cyfitter_cfg.c **** 			0x400F0001u, /* Base address: 0x400F0000 Count: 1 */
 299:Generated_Source\PSoC4/cyfitter_cfg.c **** 			0x400F303Au, /* Base address: 0x400F3000 Count: 58 */
 300:Generated_Source\PSoC4/cyfitter_cfg.c **** 			0x400F3129u, /* Base address: 0x400F3100 Count: 41 */
 301:Generated_Source\PSoC4/cyfitter_cfg.c **** 			0x400F321Cu, /* Base address: 0x400F3200 Count: 28 */
 302:Generated_Source\PSoC4/cyfitter_cfg.c **** 			0x400F3343u, /* Base address: 0x400F3300 Count: 67 */
 303:Generated_Source\PSoC4/cyfitter_cfg.c **** 			0x400F4005u, /* Base address: 0x400F4000 Count: 5 */
 304:Generated_Source\PSoC4/cyfitter_cfg.c **** 			0x400F4109u, /* Base address: 0x400F4100 Count: 9 */
 305:Generated_Source\PSoC4/cyfitter_cfg.c **** 			0x400F430Bu, /* Base address: 0x400F4300 Count: 11 */
 306:Generated_Source\PSoC4/cyfitter_cfg.c **** 			0x400F6002u, /* Base address: 0x400F6000 Count: 2 */
 307:Generated_Source\PSoC4/cyfitter_cfg.c **** 		};
 308:Generated_Source\PSoC4/cyfitter_cfg.c **** 
 309:Generated_Source\PSoC4/cyfitter_cfg.c **** 		static const cy_cfg_addrvalue_t CYCODE cy_cfg_data_table[] = {
 310:Generated_Source\PSoC4/cyfitter_cfg.c **** 			{0x83u, 0x11u},
 311:Generated_Source\PSoC4/cyfitter_cfg.c **** 			{0x02u, 0x80u},
 312:Generated_Source\PSoC4/cyfitter_cfg.c **** 			{0x04u, 0x07u},
 313:Generated_Source\PSoC4/cyfitter_cfg.c **** 			{0x06u, 0x38u},
 314:Generated_Source\PSoC4/cyfitter_cfg.c **** 			{0x08u, 0x01u},
 315:Generated_Source\PSoC4/cyfitter_cfg.c **** 			{0x0Cu, 0x84u},
 316:Generated_Source\PSoC4/cyfitter_cfg.c **** 			{0x10u, 0x04u},
 317:Generated_Source\PSoC4/cyfitter_cfg.c **** 			{0x12u, 0x80u},
 318:Generated_Source\PSoC4/cyfitter_cfg.c **** 			{0x14u, 0x0Au},
 319:Generated_Source\PSoC4/cyfitter_cfg.c **** 			{0x16u, 0x10u},
 320:Generated_Source\PSoC4/cyfitter_cfg.c **** 			{0x18u, 0x56u},
 321:Generated_Source\PSoC4/cyfitter_cfg.c **** 			{0x1Au, 0x09u},
 322:Generated_Source\PSoC4/cyfitter_cfg.c **** 			{0x1Cu, 0x04u},
 323:Generated_Source\PSoC4/cyfitter_cfg.c **** 			{0x20u, 0x84u},
 324:Generated_Source\PSoC4/cyfitter_cfg.c **** 			{0x24u, 0x84u},
 325:Generated_Source\PSoC4/cyfitter_cfg.c **** 			{0x28u, 0x80u},
 326:Generated_Source\PSoC4/cyfitter_cfg.c **** 			{0x2Au, 0x04u},
 327:Generated_Source\PSoC4/cyfitter_cfg.c **** 			{0x2Cu, 0x60u},
 328:Generated_Source\PSoC4/cyfitter_cfg.c **** 			{0x30u, 0x08u},
 329:Generated_Source\PSoC4/cyfitter_cfg.c **** 			{0x32u, 0x80u},
 330:Generated_Source\PSoC4/cyfitter_cfg.c **** 			{0x34u, 0x7Fu},
 331:Generated_Source\PSoC4/cyfitter_cfg.c **** 			{0x36u, 0x02u},
 332:Generated_Source\PSoC4/cyfitter_cfg.c **** 			{0x38u, 0x20u},
 333:Generated_Source\PSoC4/cyfitter_cfg.c **** 			{0x3Eu, 0x45u},
 334:Generated_Source\PSoC4/cyfitter_cfg.c **** 			{0x54u, 0x09u},
 335:Generated_Source\PSoC4/cyfitter_cfg.c **** 			{0x58u, 0x04u},
 336:Generated_Source\PSoC4/cyfitter_cfg.c **** 			{0x5Bu, 0x04u},
 337:Generated_Source\PSoC4/cyfitter_cfg.c **** 			{0x5Fu, 0x01u},
 338:Generated_Source\PSoC4/cyfitter_cfg.c **** 			{0x84u, 0x02u},
 339:Generated_Source\PSoC4/cyfitter_cfg.c **** 			{0x85u, 0x13u},
 340:Generated_Source\PSoC4/cyfitter_cfg.c **** 			{0x86u, 0x0Du},
 341:Generated_Source\PSoC4/cyfitter_cfg.c **** 			{0x87u, 0x04u},
 342:Generated_Source\PSoC4/cyfitter_cfg.c **** 			{0x88u, 0x13u},
 343:Generated_Source\PSoC4/cyfitter_cfg.c **** 			{0x89u, 0x05u},
 344:Generated_Source\PSoC4/cyfitter_cfg.c **** 			{0x8Au, 0x2Cu},
ARM GAS  C:\Users\quint\AppData\Local\Temp\cc5i79fD.s 			page 12


 345:Generated_Source\PSoC4/cyfitter_cfg.c **** 			{0x8Bu, 0x3Au},
 346:Generated_Source\PSoC4/cyfitter_cfg.c **** 			{0x94u, 0x65u},
 347:Generated_Source\PSoC4/cyfitter_cfg.c **** 			{0x95u, 0x0Eu},
 348:Generated_Source\PSoC4/cyfitter_cfg.c **** 			{0x96u, 0x1Au},
 349:Generated_Source\PSoC4/cyfitter_cfg.c **** 			{0x98u, 0x49u},
 350:Generated_Source\PSoC4/cyfitter_cfg.c **** 			{0x9Au, 0x06u},
 351:Generated_Source\PSoC4/cyfitter_cfg.c **** 			{0x9Bu, 0x20u},
 352:Generated_Source\PSoC4/cyfitter_cfg.c **** 			{0x9Cu, 0x40u},
 353:Generated_Source\PSoC4/cyfitter_cfg.c **** 			{0xA5u, 0x04u},
 354:Generated_Source\PSoC4/cyfitter_cfg.c **** 			{0xA7u, 0x39u},
 355:Generated_Source\PSoC4/cyfitter_cfg.c **** 			{0xACu, 0x80u},
 356:Generated_Source\PSoC4/cyfitter_cfg.c **** 			{0xB2u, 0x0Fu},
 357:Generated_Source\PSoC4/cyfitter_cfg.c **** 			{0xB3u, 0x30u},
 358:Generated_Source\PSoC4/cyfitter_cfg.c **** 			{0xB4u, 0x70u},
 359:Generated_Source\PSoC4/cyfitter_cfg.c **** 			{0xB5u, 0x0Fu},
 360:Generated_Source\PSoC4/cyfitter_cfg.c **** 			{0xB6u, 0x80u},
 361:Generated_Source\PSoC4/cyfitter_cfg.c **** 			{0xB9u, 0x20u},
 362:Generated_Source\PSoC4/cyfitter_cfg.c **** 			{0xBAu, 0x28u},
 363:Generated_Source\PSoC4/cyfitter_cfg.c **** 			{0xBEu, 0x40u},
 364:Generated_Source\PSoC4/cyfitter_cfg.c **** 			{0xD4u, 0x40u},
 365:Generated_Source\PSoC4/cyfitter_cfg.c **** 			{0xD8u, 0x04u},
 366:Generated_Source\PSoC4/cyfitter_cfg.c **** 			{0xD9u, 0x04u},
 367:Generated_Source\PSoC4/cyfitter_cfg.c **** 			{0xDBu, 0x04u},
 368:Generated_Source\PSoC4/cyfitter_cfg.c **** 			{0xDFu, 0x01u},
 369:Generated_Source\PSoC4/cyfitter_cfg.c **** 			{0x00u, 0x84u},
 370:Generated_Source\PSoC4/cyfitter_cfg.c **** 			{0x01u, 0x22u},
 371:Generated_Source\PSoC4/cyfitter_cfg.c **** 			{0x02u, 0x40u},
 372:Generated_Source\PSoC4/cyfitter_cfg.c **** 			{0x05u, 0x14u},
 373:Generated_Source\PSoC4/cyfitter_cfg.c **** 			{0x09u, 0x20u},
 374:Generated_Source\PSoC4/cyfitter_cfg.c **** 			{0x0Au, 0x92u},
 375:Generated_Source\PSoC4/cyfitter_cfg.c **** 			{0x0Cu, 0x80u},
 376:Generated_Source\PSoC4/cyfitter_cfg.c **** 			{0x0Du, 0x20u},
 377:Generated_Source\PSoC4/cyfitter_cfg.c **** 			{0x0Eu, 0x10u},
 378:Generated_Source\PSoC4/cyfitter_cfg.c **** 			{0x0Fu, 0x02u},
 379:Generated_Source\PSoC4/cyfitter_cfg.c **** 			{0x10u, 0x28u},
 380:Generated_Source\PSoC4/cyfitter_cfg.c **** 			{0x12u, 0x01u},
 381:Generated_Source\PSoC4/cyfitter_cfg.c **** 			{0x13u, 0x01u},
 382:Generated_Source\PSoC4/cyfitter_cfg.c **** 			{0x16u, 0x02u},
 383:Generated_Source\PSoC4/cyfitter_cfg.c **** 			{0x19u, 0x68u},
 384:Generated_Source\PSoC4/cyfitter_cfg.c **** 			{0x1Au, 0x40u},
 385:Generated_Source\PSoC4/cyfitter_cfg.c **** 			{0x1Du, 0x24u},
 386:Generated_Source\PSoC4/cyfitter_cfg.c **** 			{0x1Eu, 0x01u},
 387:Generated_Source\PSoC4/cyfitter_cfg.c **** 			{0x1Fu, 0x20u},
 388:Generated_Source\PSoC4/cyfitter_cfg.c **** 			{0x27u, 0x28u},
 389:Generated_Source\PSoC4/cyfitter_cfg.c **** 			{0x2Fu, 0x20u},
 390:Generated_Source\PSoC4/cyfitter_cfg.c **** 			{0x37u, 0x28u},
 391:Generated_Source\PSoC4/cyfitter_cfg.c **** 			{0x3Cu, 0x04u},
 392:Generated_Source\PSoC4/cyfitter_cfg.c **** 			{0x3Eu, 0x10u},
 393:Generated_Source\PSoC4/cyfitter_cfg.c **** 			{0x58u, 0x04u},
 394:Generated_Source\PSoC4/cyfitter_cfg.c **** 			{0x59u, 0x01u},
 395:Generated_Source\PSoC4/cyfitter_cfg.c **** 			{0x5Au, 0x40u},
 396:Generated_Source\PSoC4/cyfitter_cfg.c **** 			{0x5Bu, 0x10u},
 397:Generated_Source\PSoC4/cyfitter_cfg.c **** 			{0x61u, 0x40u},
 398:Generated_Source\PSoC4/cyfitter_cfg.c **** 			{0x65u, 0x08u},
 399:Generated_Source\PSoC4/cyfitter_cfg.c **** 			{0x66u, 0x60u},
 400:Generated_Source\PSoC4/cyfitter_cfg.c **** 			{0x8Bu, 0x08u},
 401:Generated_Source\PSoC4/cyfitter_cfg.c **** 			{0xC0u, 0x6Fu},
ARM GAS  C:\Users\quint\AppData\Local\Temp\cc5i79fD.s 			page 13


 402:Generated_Source\PSoC4/cyfitter_cfg.c **** 			{0xC2u, 0xEFu},
 403:Generated_Source\PSoC4/cyfitter_cfg.c **** 			{0xC4u, 0x8Fu},
 404:Generated_Source\PSoC4/cyfitter_cfg.c **** 			{0xCAu, 0x40u},
 405:Generated_Source\PSoC4/cyfitter_cfg.c **** 			{0xCCu, 0x60u},
 406:Generated_Source\PSoC4/cyfitter_cfg.c **** 			{0xCEu, 0x60u},
 407:Generated_Source\PSoC4/cyfitter_cfg.c **** 			{0xD6u, 0x0Fu},
 408:Generated_Source\PSoC4/cyfitter_cfg.c **** 			{0xD8u, 0x78u},
 409:Generated_Source\PSoC4/cyfitter_cfg.c **** 			{0xE6u, 0x80u},
 410:Generated_Source\PSoC4/cyfitter_cfg.c **** 			{0x40u, 0x52u},
 411:Generated_Source\PSoC4/cyfitter_cfg.c **** 			{0x41u, 0x06u},
 412:Generated_Source\PSoC4/cyfitter_cfg.c **** 			{0x42u, 0x40u},
 413:Generated_Source\PSoC4/cyfitter_cfg.c **** 			{0x45u, 0xD0u},
 414:Generated_Source\PSoC4/cyfitter_cfg.c **** 			{0x46u, 0xFEu},
 415:Generated_Source\PSoC4/cyfitter_cfg.c **** 			{0x47u, 0xC0u},
 416:Generated_Source\PSoC4/cyfitter_cfg.c **** 			{0x48u, 0x2Eu},
 417:Generated_Source\PSoC4/cyfitter_cfg.c **** 			{0x49u, 0xFFu},
 418:Generated_Source\PSoC4/cyfitter_cfg.c **** 			{0x4Au, 0xFFu},
 419:Generated_Source\PSoC4/cyfitter_cfg.c **** 			{0x4Bu, 0xFFu},
 420:Generated_Source\PSoC4/cyfitter_cfg.c **** 			{0x4Cu, 0x02u},
 421:Generated_Source\PSoC4/cyfitter_cfg.c **** 			{0x4Eu, 0x70u},
 422:Generated_Source\PSoC4/cyfitter_cfg.c **** 			{0x4Fu, 0x08u},
 423:Generated_Source\PSoC4/cyfitter_cfg.c **** 			{0x50u, 0x04u},
 424:Generated_Source\PSoC4/cyfitter_cfg.c **** 			{0x5Au, 0x04u},
 425:Generated_Source\PSoC4/cyfitter_cfg.c **** 			{0x5Fu, 0x01u},
 426:Generated_Source\PSoC4/cyfitter_cfg.c **** 			{0x62u, 0xC0u},
 427:Generated_Source\PSoC4/cyfitter_cfg.c **** 			{0x64u, 0x40u},
 428:Generated_Source\PSoC4/cyfitter_cfg.c **** 			{0x65u, 0x01u},
 429:Generated_Source\PSoC4/cyfitter_cfg.c **** 			{0x66u, 0x10u},
 430:Generated_Source\PSoC4/cyfitter_cfg.c **** 			{0x67u, 0x11u},
 431:Generated_Source\PSoC4/cyfitter_cfg.c **** 			{0x68u, 0xC0u},
 432:Generated_Source\PSoC4/cyfitter_cfg.c **** 			{0x69u, 0x01u},
 433:Generated_Source\PSoC4/cyfitter_cfg.c **** 			{0x6Bu, 0x11u},
 434:Generated_Source\PSoC4/cyfitter_cfg.c **** 			{0x6Cu, 0x40u},
 435:Generated_Source\PSoC4/cyfitter_cfg.c **** 			{0x6Du, 0x01u},
 436:Generated_Source\PSoC4/cyfitter_cfg.c **** 			{0x6Eu, 0x40u},
 437:Generated_Source\PSoC4/cyfitter_cfg.c **** 			{0x6Fu, 0x01u},
 438:Generated_Source\PSoC4/cyfitter_cfg.c **** 			{0x00u, 0x86u},
 439:Generated_Source\PSoC4/cyfitter_cfg.c **** 			{0x09u, 0x20u},
 440:Generated_Source\PSoC4/cyfitter_cfg.c **** 			{0x0Au, 0x10u},
 441:Generated_Source\PSoC4/cyfitter_cfg.c **** 			{0x0Bu, 0x41u},
 442:Generated_Source\PSoC4/cyfitter_cfg.c **** 			{0x10u, 0x2Au},
 443:Generated_Source\PSoC4/cyfitter_cfg.c **** 			{0x18u, 0x04u},
 444:Generated_Source\PSoC4/cyfitter_cfg.c **** 			{0x19u, 0x71u},
 445:Generated_Source\PSoC4/cyfitter_cfg.c **** 			{0x1Au, 0x50u},
 446:Generated_Source\PSoC4/cyfitter_cfg.c **** 			{0x1Bu, 0x40u},
 447:Generated_Source\PSoC4/cyfitter_cfg.c **** 			{0x21u, 0x40u},
 448:Generated_Source\PSoC4/cyfitter_cfg.c **** 			{0x22u, 0x01u},
 449:Generated_Source\PSoC4/cyfitter_cfg.c **** 			{0x23u, 0x40u},
 450:Generated_Source\PSoC4/cyfitter_cfg.c **** 			{0x29u, 0x50u},
 451:Generated_Source\PSoC4/cyfitter_cfg.c **** 			{0x2Au, 0x02u},
 452:Generated_Source\PSoC4/cyfitter_cfg.c **** 			{0x31u, 0x20u},
 453:Generated_Source\PSoC4/cyfitter_cfg.c **** 			{0x32u, 0x41u},
 454:Generated_Source\PSoC4/cyfitter_cfg.c **** 			{0x35u, 0x01u},
 455:Generated_Source\PSoC4/cyfitter_cfg.c **** 			{0x37u, 0x02u},
 456:Generated_Source\PSoC4/cyfitter_cfg.c **** 			{0x39u, 0x95u},
 457:Generated_Source\PSoC4/cyfitter_cfg.c **** 			{0x41u, 0x20u},
 458:Generated_Source\PSoC4/cyfitter_cfg.c **** 			{0x42u, 0x50u},
ARM GAS  C:\Users\quint\AppData\Local\Temp\cc5i79fD.s 			page 14


 459:Generated_Source\PSoC4/cyfitter_cfg.c **** 			{0x45u, 0x20u},
 460:Generated_Source\PSoC4/cyfitter_cfg.c **** 			{0x47u, 0x02u},
 461:Generated_Source\PSoC4/cyfitter_cfg.c **** 			{0x49u, 0x10u},
 462:Generated_Source\PSoC4/cyfitter_cfg.c **** 			{0x4Du, 0x22u},
 463:Generated_Source\PSoC4/cyfitter_cfg.c **** 			{0x4Fu, 0x80u},
 464:Generated_Source\PSoC4/cyfitter_cfg.c **** 			{0x52u, 0x01u},
 465:Generated_Source\PSoC4/cyfitter_cfg.c **** 			{0x54u, 0x02u},
 466:Generated_Source\PSoC4/cyfitter_cfg.c **** 			{0x56u, 0x60u},
 467:Generated_Source\PSoC4/cyfitter_cfg.c **** 			{0x57u, 0x01u},
 468:Generated_Source\PSoC4/cyfitter_cfg.c **** 			{0x61u, 0x04u},
 469:Generated_Source\PSoC4/cyfitter_cfg.c **** 			{0x68u, 0x69u},
 470:Generated_Source\PSoC4/cyfitter_cfg.c **** 			{0x69u, 0x15u},
 471:Generated_Source\PSoC4/cyfitter_cfg.c **** 			{0x6Au, 0x80u},
 472:Generated_Source\PSoC4/cyfitter_cfg.c **** 			{0x72u, 0x02u},
 473:Generated_Source\PSoC4/cyfitter_cfg.c **** 			{0x73u, 0x01u},
 474:Generated_Source\PSoC4/cyfitter_cfg.c **** 			{0x86u, 0x01u},
 475:Generated_Source\PSoC4/cyfitter_cfg.c **** 			{0x88u, 0x04u},
 476:Generated_Source\PSoC4/cyfitter_cfg.c **** 			{0x8Au, 0x40u},
 477:Generated_Source\PSoC4/cyfitter_cfg.c **** 			{0x92u, 0x01u},
 478:Generated_Source\PSoC4/cyfitter_cfg.c **** 			{0x94u, 0x04u},
 479:Generated_Source\PSoC4/cyfitter_cfg.c **** 			{0x96u, 0x92u},
 480:Generated_Source\PSoC4/cyfitter_cfg.c **** 			{0x97u, 0x01u},
 481:Generated_Source\PSoC4/cyfitter_cfg.c **** 			{0x99u, 0x04u},
 482:Generated_Source\PSoC4/cyfitter_cfg.c **** 			{0x9Cu, 0x04u},
 483:Generated_Source\PSoC4/cyfitter_cfg.c **** 			{0x9Du, 0x13u},
 484:Generated_Source\PSoC4/cyfitter_cfg.c **** 			{0x9Eu, 0x21u},
 485:Generated_Source\PSoC4/cyfitter_cfg.c **** 			{0xA1u, 0x20u},
 486:Generated_Source\PSoC4/cyfitter_cfg.c **** 			{0xA4u, 0x68u},
 487:Generated_Source\PSoC4/cyfitter_cfg.c **** 			{0xA7u, 0x01u},
 488:Generated_Source\PSoC4/cyfitter_cfg.c **** 			{0xA9u, 0x20u},
 489:Generated_Source\PSoC4/cyfitter_cfg.c **** 			{0xAEu, 0x02u},
 490:Generated_Source\PSoC4/cyfitter_cfg.c **** 			{0xAFu, 0x20u},
 491:Generated_Source\PSoC4/cyfitter_cfg.c **** 			{0xB4u, 0x80u},
 492:Generated_Source\PSoC4/cyfitter_cfg.c **** 			{0xB7u, 0x10u},
 493:Generated_Source\PSoC4/cyfitter_cfg.c **** 			{0xC0u, 0x0Du},
 494:Generated_Source\PSoC4/cyfitter_cfg.c **** 			{0xC2u, 0x0Fu},
 495:Generated_Source\PSoC4/cyfitter_cfg.c **** 			{0xC4u, 0x07u},
 496:Generated_Source\PSoC4/cyfitter_cfg.c **** 			{0xCAu, 0x0Du},
 497:Generated_Source\PSoC4/cyfitter_cfg.c **** 			{0xCCu, 0x0Du},
 498:Generated_Source\PSoC4/cyfitter_cfg.c **** 			{0xCEu, 0x0Fu},
 499:Generated_Source\PSoC4/cyfitter_cfg.c **** 			{0xD0u, 0xA7u},
 500:Generated_Source\PSoC4/cyfitter_cfg.c **** 			{0xD2u, 0x34u},
 501:Generated_Source\PSoC4/cyfitter_cfg.c **** 			{0xD8u, 0x02u},
 502:Generated_Source\PSoC4/cyfitter_cfg.c **** 			{0xE6u, 0x10u},
 503:Generated_Source\PSoC4/cyfitter_cfg.c **** 			{0xE8u, 0x02u},
 504:Generated_Source\PSoC4/cyfitter_cfg.c **** 			{0xECu, 0x01u},
 505:Generated_Source\PSoC4/cyfitter_cfg.c **** 			{0x0Fu, 0x02u},
 506:Generated_Source\PSoC4/cyfitter_cfg.c **** 			{0x64u, 0x04u},
 507:Generated_Source\PSoC4/cyfitter_cfg.c **** 			{0x88u, 0x04u},
 508:Generated_Source\PSoC4/cyfitter_cfg.c **** 			{0xC2u, 0x80u},
 509:Generated_Source\PSoC4/cyfitter_cfg.c **** 			{0xD8u, 0x80u},
 510:Generated_Source\PSoC4/cyfitter_cfg.c **** 			{0x46u, 0x40u},
 511:Generated_Source\PSoC4/cyfitter_cfg.c **** 			{0x62u, 0x04u},
 512:Generated_Source\PSoC4/cyfitter_cfg.c **** 			{0x86u, 0x40u},
 513:Generated_Source\PSoC4/cyfitter_cfg.c **** 			{0x8Eu, 0x04u},
 514:Generated_Source\PSoC4/cyfitter_cfg.c **** 			{0xAFu, 0x01u},
 515:Generated_Source\PSoC4/cyfitter_cfg.c **** 			{0xD0u, 0x80u},
ARM GAS  C:\Users\quint\AppData\Local\Temp\cc5i79fD.s 			page 15


 516:Generated_Source\PSoC4/cyfitter_cfg.c **** 			{0xD8u, 0x40u},
 517:Generated_Source\PSoC4/cyfitter_cfg.c **** 			{0xE2u, 0x10u},
 518:Generated_Source\PSoC4/cyfitter_cfg.c **** 			{0xECu, 0x10u},
 519:Generated_Source\PSoC4/cyfitter_cfg.c **** 			{0x23u, 0x01u},
 520:Generated_Source\PSoC4/cyfitter_cfg.c **** 			{0x59u, 0x04u},
 521:Generated_Source\PSoC4/cyfitter_cfg.c **** 			{0x64u, 0x01u},
 522:Generated_Source\PSoC4/cyfitter_cfg.c **** 			{0x8Fu, 0x01u},
 523:Generated_Source\PSoC4/cyfitter_cfg.c **** 			{0x98u, 0x01u},
 524:Generated_Source\PSoC4/cyfitter_cfg.c **** 			{0x99u, 0x04u},
 525:Generated_Source\PSoC4/cyfitter_cfg.c **** 			{0xA9u, 0x04u},
 526:Generated_Source\PSoC4/cyfitter_cfg.c **** 			{0xACu, 0x01u},
 527:Generated_Source\PSoC4/cyfitter_cfg.c **** 			{0xC8u, 0x08u},
 528:Generated_Source\PSoC4/cyfitter_cfg.c **** 			{0xD6u, 0x03u},
 529:Generated_Source\PSoC4/cyfitter_cfg.c **** 			{0xE6u, 0x08u},
 530:Generated_Source\PSoC4/cyfitter_cfg.c **** 			{0x01u, 0x01u},
 531:Generated_Source\PSoC4/cyfitter_cfg.c **** 			{0x10u, 0x01u},
 532:Generated_Source\PSoC4/cyfitter_cfg.c **** 		};
 533:Generated_Source\PSoC4/cyfitter_cfg.c **** 
 534:Generated_Source\PSoC4/cyfitter_cfg.c **** 
 535:Generated_Source\PSoC4/cyfitter_cfg.c **** 
 536:Generated_Source\PSoC4/cyfitter_cfg.c **** 		CYPACKED typedef struct {
 537:Generated_Source\PSoC4/cyfitter_cfg.c **** 			void CYFAR *address;
 538:Generated_Source\PSoC4/cyfitter_cfg.c **** 			uint16 size;
 539:Generated_Source\PSoC4/cyfitter_cfg.c **** 		} CYPACKED_ATTR cfg_memset_t;
 540:Generated_Source\PSoC4/cyfitter_cfg.c **** 
 541:Generated_Source\PSoC4/cyfitter_cfg.c **** 
 542:Generated_Source\PSoC4/cyfitter_cfg.c **** 		CYPACKED typedef struct {
 543:Generated_Source\PSoC4/cyfitter_cfg.c **** 			void CYFAR *dest;
 544:Generated_Source\PSoC4/cyfitter_cfg.c **** 			const void CYCODE *src;
 545:Generated_Source\PSoC4/cyfitter_cfg.c **** 			uint16 size;
 546:Generated_Source\PSoC4/cyfitter_cfg.c **** 		} CYPACKED_ATTR cfg_memcpy_t;
 547:Generated_Source\PSoC4/cyfitter_cfg.c **** 
 548:Generated_Source\PSoC4/cyfitter_cfg.c **** 		static const cfg_memset_t CYCODE cfg_memset_list[] = {
 549:Generated_Source\PSoC4/cyfitter_cfg.c **** 			/* address, size */
 550:Generated_Source\PSoC4/cyfitter_cfg.c **** 			{(void CYFAR *)(CYDEV_UDB_P0_U0_BASE), 640u},
 551:Generated_Source\PSoC4/cyfitter_cfg.c **** 			{(void CYFAR *)(CYDEV_UDB_P1_ROUTE_BASE), 256u},
 552:Generated_Source\PSoC4/cyfitter_cfg.c **** 			{(void CYFAR *)(CYDEV_UDB_DSI0_BASE), 1024u},
 553:Generated_Source\PSoC4/cyfitter_cfg.c **** 		};
 554:Generated_Source\PSoC4/cyfitter_cfg.c **** 
 555:Generated_Source\PSoC4/cyfitter_cfg.c **** 		/* UDB_0_0_0_CONFIG Address: CYDEV_UDB_P1_U1_BASE Size (bytes): 128 */
 556:Generated_Source\PSoC4/cyfitter_cfg.c **** 		static const uint8 CYCODE BS_UDB_0_0_0_CONFIG_VAL[] = {
 557:Generated_Source\PSoC4/cyfitter_cfg.c **** 			0x30u, 0x6Cu, 0x05u, 0x00u, 0x26u, 0x6Cu, 0x08u, 0x00u, 0x00u, 0x68u, 0x00u, 0x04u, 0x35u, 0x10u
 558:Generated_Source\PSoC4/cyfitter_cfg.c **** 			0x30u, 0x01u, 0x00u, 0x06u, 0x02u, 0x00u, 0x30u, 0x00u, 0x38u, 0x17u, 0x06u, 0x40u, 0x35u, 0x6Cu
 559:Generated_Source\PSoC4/cyfitter_cfg.c **** 			0x00u, 0x6Cu, 0x00u, 0x00u, 0x31u, 0x00u, 0x04u, 0x00u, 0x05u, 0x08u, 0x30u, 0x13u, 0x04u, 0x11u
 560:Generated_Source\PSoC4/cyfitter_cfg.c **** 			0x01u, 0x07u, 0x1Eu, 0x00u, 0x26u, 0x00u, 0x1Eu, 0x78u, 0x00u, 0x00u, 0x88u, 0x82u, 0x00u, 0x00u
 561:Generated_Source\PSoC4/cyfitter_cfg.c **** 			0x32u, 0x06u, 0x40u, 0x00u, 0x00u, 0x00u, 0x00u, 0xB0u, 0x20u, 0x01u, 0xFFu, 0xFFu, 0x23u, 0x00u
 562:Generated_Source\PSoC4/cyfitter_cfg.c **** 			0x04u, 0x00u, 0x00u, 0x00u, 0x00u, 0x00u, 0x02u, 0x28u, 0x04u, 0x04u, 0x04u, 0x04u, 0x00u, 0x00u
 563:Generated_Source\PSoC4/cyfitter_cfg.c **** 			0x00u, 0x00u, 0xC0u, 0x00u, 0x40u, 0x01u, 0x10u, 0x11u, 0xC0u, 0x01u, 0x00u, 0x11u, 0x40u, 0x01u
 564:Generated_Source\PSoC4/cyfitter_cfg.c **** 			0x00u, 0x00u, 0x00u, 0x00u, 0x00u, 0x00u, 0x00u, 0x00u, 0x00u, 0x00u, 0x00u, 0x00u, 0x00u, 0x00u
 565:Generated_Source\PSoC4/cyfitter_cfg.c **** 
 566:Generated_Source\PSoC4/cyfitter_cfg.c **** 		static const cfg_memcpy_t CYCODE cfg_memcpy_list [] = {
 567:Generated_Source\PSoC4/cyfitter_cfg.c **** 			/* dest, src, size */
 568:Generated_Source\PSoC4/cyfitter_cfg.c **** 			{(void CYFAR *)(CYDEV_UDB_P1_U1_BASE), BS_UDB_0_0_0_CONFIG_VAL, 128u},
 569:Generated_Source\PSoC4/cyfitter_cfg.c **** 		};
 570:Generated_Source\PSoC4/cyfitter_cfg.c **** 
 571:Generated_Source\PSoC4/cyfitter_cfg.c **** 		uint8 CYDATA i;
 572:Generated_Source\PSoC4/cyfitter_cfg.c **** 
ARM GAS  C:\Users\quint\AppData\Local\Temp\cc5i79fD.s 			page 16


 573:Generated_Source\PSoC4/cyfitter_cfg.c **** 		/* Zero out critical memory blocks before beginning configuration */
 574:Generated_Source\PSoC4/cyfitter_cfg.c **** 		for (i = 0u; i < (sizeof(cfg_memset_list)/sizeof(cfg_memset_list[0])); i++)
 275              		.loc 1 574 0
 276 009c 0024     		movs	r4, #0
 277 009e 0FE0     		b	.L12
 278              	.LVL21:
 279              	.L13:
 280              	.LBB4:
 575:Generated_Source\PSoC4/cyfitter_cfg.c **** 		{
 576:Generated_Source\PSoC4/cyfitter_cfg.c **** 			const cfg_memset_t CYCODE * CYDATA ms = &cfg_memset_list[i];
 577:Generated_Source\PSoC4/cyfitter_cfg.c **** 			CYMEMZERO(ms->address, (size_t)(uint32)(ms->size));
 281              		.loc 1 577 0 discriminator 3
 282 00a0 3848     		ldr	r0, .L16
 283 00a2 6200     		lsls	r2, r4, #1
 284 00a4 1319     		adds	r3, r2, r4
 285 00a6 5900     		lsls	r1, r3, #1
 286 00a8 0B00     		movs	r3, r1
 287 00aa 4118     		adds	r1, r0, r1
 288 00ac 8988     		ldrh	r1, [r1, #4]
 289 00ae 1A5A     		ldrh	r2, [r3, r0]
 290 00b0 C318     		adds	r3, r0, r3
 291 00b2 5888     		ldrh	r0, [r3, #2]
 292 00b4 0004     		lsls	r0, r0, #16
 293 00b6 1043     		orrs	r0, r2
 294 00b8 FFF7FEFF 		bl	CYMEMZERO
 295              	.LVL22:
 296              	.LBE4:
 574:Generated_Source\PSoC4/cyfitter_cfg.c **** 		{
 297              		.loc 1 574 0 discriminator 3
 298 00bc 0134     		adds	r4, r4, #1
 299              	.LVL23:
 300 00be E4B2     		uxtb	r4, r4
 301              	.LVL24:
 302              	.L12:
 574:Generated_Source\PSoC4/cyfitter_cfg.c **** 		{
 303              		.loc 1 574 0 is_stmt 0 discriminator 1
 304 00c0 022C     		cmp	r4, #2
 305 00c2 EDD9     		bls	.L13
 306 00c4 0024     		movs	r4, #0
 307              	.LVL25:
 308 00c6 11E0     		b	.L14
 309              	.LVL26:
 310              	.L15:
 311              	.LBB5:
 578:Generated_Source\PSoC4/cyfitter_cfg.c **** 		}
 579:Generated_Source\PSoC4/cyfitter_cfg.c **** 
 580:Generated_Source\PSoC4/cyfitter_cfg.c **** 		/* Copy device configuration data into registers */
 581:Generated_Source\PSoC4/cyfitter_cfg.c **** 		for (i = 0u; i < (sizeof(cfg_memcpy_list)/sizeof(cfg_memcpy_list[0])); i++)
 582:Generated_Source\PSoC4/cyfitter_cfg.c **** 		{
 583:Generated_Source\PSoC4/cyfitter_cfg.c **** 			const cfg_memcpy_t CYCODE * CYDATA mc = &cfg_memcpy_list[i];
 584:Generated_Source\PSoC4/cyfitter_cfg.c **** 			void * CYDATA destPtr = mc->dest;
 312              		.loc 1 584 0 is_stmt 1 discriminator 3
 313 00c8 2E4E     		ldr	r6, .L16
 314 00ca A200     		lsls	r2, r4, #2
 315 00cc 1319     		adds	r3, r2, r4
 316 00ce 5900     		lsls	r1, r3, #1
 317 00d0 7118     		adds	r1, r6, r1
ARM GAS  C:\Users\quint\AppData\Local\Temp\cc5i79fD.s 			page 17


 318 00d2 8D8A     		ldrh	r5, [r1, #20]
 319 00d4 C88A     		ldrh	r0, [r1, #22]
 320 00d6 0004     		lsls	r0, r0, #16
 321 00d8 2843     		orrs	r0, r5
 322              	.LVL27:
 585:Generated_Source\PSoC4/cyfitter_cfg.c **** 			const void CYCODE * CYDATA srcPtr = mc->src;
 323              		.loc 1 585 0 discriminator 3
 324 00da 0A8B     		ldrh	r2, [r1, #24]
 325 00dc 498B     		ldrh	r1, [r1, #26]
 326 00de 0904     		lsls	r1, r1, #16
 327 00e0 1143     		orrs	r1, r2
 328              	.LVL28:
 586:Generated_Source\PSoC4/cyfitter_cfg.c **** 			uint16 CYDATA numBytes = mc->size;
 587:Generated_Source\PSoC4/cyfitter_cfg.c **** 			CYCONFIGCPYCODE(destPtr, srcPtr, numBytes);
 329              		.loc 1 587 0 discriminator 3
 330 00e2 8022     		movs	r2, #128
 331 00e4 FFF7FEFF 		bl	CYCONFIGCPYCODE
 332              	.LVL29:
 333              	.LBE5:
 581:Generated_Source\PSoC4/cyfitter_cfg.c **** 		{
 334              		.loc 1 581 0 discriminator 3
 335 00e8 0134     		adds	r4, r4, #1
 336              	.LVL30:
 337 00ea E4B2     		uxtb	r4, r4
 338              	.LVL31:
 339              	.L14:
 581:Generated_Source\PSoC4/cyfitter_cfg.c **** 		{
 340              		.loc 1 581 0 is_stmt 0 discriminator 1
 341 00ec 002C     		cmp	r4, #0
 342 00ee EBD0     		beq	.L15
 588:Generated_Source\PSoC4/cyfitter_cfg.c **** 		}
 589:Generated_Source\PSoC4/cyfitter_cfg.c **** 
 590:Generated_Source\PSoC4/cyfitter_cfg.c **** 		cfg_write_bytes32(cy_cfg_addr_table, cy_cfg_data_table);
 343              		.loc 1 590 0 is_stmt 1
 344 00f0 2449     		ldr	r1, .L16
 345 00f2 2031     		adds	r1, r1, #32
 346 00f4 2448     		ldr	r0, .L16+4
 347 00f6 5C30     		adds	r0, r0, #92
 348 00f8 FFF7FEFF 		bl	cfg_write_bytes32
 349              	.LVL32:
 591:Generated_Source\PSoC4/cyfitter_cfg.c **** 
 592:Generated_Source\PSoC4/cyfitter_cfg.c **** 		/* HSIOM Starting address: CYDEV_HSIOM_BASE */
 593:Generated_Source\PSoC4/cyfitter_cfg.c **** 		CY_SET_REG32((void *)(CYDEV_HSIOM_BASE), 0x03000000u);
 350              		.loc 1 593 0
 351 00fc C023     		movs	r3, #192
 352 00fe 9B04     		lsls	r3, r3, #18
 353 0100 224A     		ldr	r2, .L16+8
 354 0102 1360     		str	r3, [r2]
 594:Generated_Source\PSoC4/cyfitter_cfg.c **** 		CY_SET_REG32((void *)(CYREG_HSIOM_PORT_SEL1), 0x03000000u);
 355              		.loc 1 594 0
 356 0104 224A     		ldr	r2, .L16+12
 357 0106 1360     		str	r3, [r2]
 595:Generated_Source\PSoC4/cyfitter_cfg.c **** 		CY_SET_REG32((void *)(CYREG_HSIOM_PORT_SEL3), 0x0303EE00u);
 358              		.loc 1 595 0
 359 0108 224A     		ldr	r2, .L16+16
 360 010a 234B     		ldr	r3, .L16+20
 361 010c 1A60     		str	r2, [r3]
ARM GAS  C:\Users\quint\AppData\Local\Temp\cc5i79fD.s 			page 18


 596:Generated_Source\PSoC4/cyfitter_cfg.c **** 
 597:Generated_Source\PSoC4/cyfitter_cfg.c **** 		/* UDB_PA_0 Starting address: CYDEV_UDB_PA0_BASE */
 598:Generated_Source\PSoC4/cyfitter_cfg.c **** 		CY_SET_REG32((void *)(CYDEV_UDB_PA0_BASE), 0x00990000u);
 362              		.loc 1 598 0
 363 010e 9923     		movs	r3, #153
 364 0110 1B04     		lsls	r3, r3, #16
 365 0112 224A     		ldr	r2, .L16+24
 366 0114 1360     		str	r3, [r2]
 599:Generated_Source\PSoC4/cyfitter_cfg.c **** 		CY_SET_REG32((void *)(CYREG_UDB_PA0_CFG8), 0x30000000u);
 367              		.loc 1 599 0
 368 0116 C021     		movs	r1, #192
 369 0118 8905     		lsls	r1, r1, #22
 370 011a 214A     		ldr	r2, .L16+28
 371 011c 1160     		str	r1, [r2]
 600:Generated_Source\PSoC4/cyfitter_cfg.c **** 
 601:Generated_Source\PSoC4/cyfitter_cfg.c **** 		/* UDB_PA_1 Starting address: CYDEV_UDB_PA1_BASE */
 602:Generated_Source\PSoC4/cyfitter_cfg.c **** 		CY_SET_REG32((void *)(CYDEV_UDB_PA1_BASE), 0x00990000u);
 372              		.loc 1 602 0
 373 011e 214A     		ldr	r2, .L16+32
 374 0120 1360     		str	r3, [r2]
 603:Generated_Source\PSoC4/cyfitter_cfg.c **** 		CY_SET_REG32((void *)(CYREG_UDB_PA1_CFG8), 0x20000000u);
 375              		.loc 1 603 0
 376 0122 8021     		movs	r1, #128
 377 0124 8905     		lsls	r1, r1, #22
 378 0126 204A     		ldr	r2, .L16+36
 379 0128 1160     		str	r1, [r2]
 604:Generated_Source\PSoC4/cyfitter_cfg.c **** 
 605:Generated_Source\PSoC4/cyfitter_cfg.c **** 		/* UDB_PA_3 Starting address: CYDEV_UDB_PA3_BASE */
 606:Generated_Source\PSoC4/cyfitter_cfg.c **** 		CY_SET_REG32((void *)(CYDEV_UDB_PA3_BASE), 0x00990000u);
 380              		.loc 1 606 0
 381 012a 204A     		ldr	r2, .L16+40
 382 012c 1360     		str	r3, [r2]
 607:Generated_Source\PSoC4/cyfitter_cfg.c **** 		CY_SET_REG32((void *)(CYREG_UDB_PA3_CFG8), 0x98000000u);
 383              		.loc 1 607 0
 384 012e 9822     		movs	r2, #152
 385 0130 1206     		lsls	r2, r2, #24
 386 0132 1F4B     		ldr	r3, .L16+44
 387 0134 1A60     		str	r2, [r3]
 608:Generated_Source\PSoC4/cyfitter_cfg.c **** 
 609:Generated_Source\PSoC4/cyfitter_cfg.c **** 		/* TCPWM_CNT1 Starting address: CYDEV_TCPWM_CNT1_TR_CTRL0 */
 610:Generated_Source\PSoC4/cyfitter_cfg.c **** 		CY_SET_REG32((void *)(CYREG_TCPWM_CNT1_TR_CTRL0), 0x0000001Du);
 388              		.loc 1 610 0
 389 0136 1D22     		movs	r2, #29
 390 0138 1E4B     		ldr	r3, .L16+48
 391 013a 1A60     		str	r2, [r3]
 611:Generated_Source\PSoC4/cyfitter_cfg.c **** 
 612:Generated_Source\PSoC4/cyfitter_cfg.c **** 		/* Enable UDB array and digital routing */
 613:Generated_Source\PSoC4/cyfitter_cfg.c **** 		CY_SET_XTND_REG8((void *)CYREG_UDB_UDBIF_WAIT_CFG, (uint8)((CY_GET_XTND_REG8((void *)CYREG_UDB_UD
 392              		.loc 1 613 0
 393 013c 1E49     		ldr	r1, .L16+52
 394 013e 0B78     		ldrb	r3, [r1]
 395 0140 1F32     		adds	r2, r2, #31
 396 0142 9343     		bics	r3, r2
 397 0144 1422     		movs	r2, #20
 398 0146 1343     		orrs	r3, r2
 399 0148 DBB2     		uxtb	r3, r3
 400 014a 0B70     		strb	r3, [r1]
ARM GAS  C:\Users\quint\AppData\Local\Temp\cc5i79fD.s 			page 19


 614:Generated_Source\PSoC4/cyfitter_cfg.c **** 		CY_SET_XTND_REG8((void *)CYREG_UDB_UDBIF_BANK_CTL, (uint8)(CY_GET_XTND_REG8((void *)CYREG_UDB_UDB
 401              		.loc 1 614 0
 402 014c 1B4A     		ldr	r2, .L16+56
 403 014e 1178     		ldrb	r1, [r2]
 404 0150 1623     		movs	r3, #22
 405 0152 0B43     		orrs	r3, r1
 406 0154 DBB2     		uxtb	r3, r3
 407 0156 1370     		strb	r3, [r2]
 408              	.LBE3:
 615:Generated_Source\PSoC4/cyfitter_cfg.c **** 	}
 616:Generated_Source\PSoC4/cyfitter_cfg.c **** 
 617:Generated_Source\PSoC4/cyfitter_cfg.c **** 	/* Perform second pass device configuration. These items must be configured in specific order afte
 618:Generated_Source\PSoC4/cyfitter_cfg.c **** 	/* IOPINS0_0 Starting address: CYDEV_PRT0_BASE */
 619:Generated_Source\PSoC4/cyfitter_cfg.c **** 	CY_SET_REG32((void *)(CYDEV_PRT0_BASE), 0x000000C0u);
 409              		.loc 1 619 0
 410 0158 C022     		movs	r2, #192
 411 015a 194B     		ldr	r3, .L16+60
 412 015c 1A60     		str	r2, [r3]
 620:Generated_Source\PSoC4/cyfitter_cfg.c **** 	CY_SET_REG32((void *)(CYREG_PRT0_PC), 0x00580D80u);
 413              		.loc 1 620 0
 414 015e 194A     		ldr	r2, .L16+64
 415 0160 194B     		ldr	r3, .L16+68
 416 0162 1A60     		str	r2, [r3]
 621:Generated_Source\PSoC4/cyfitter_cfg.c **** 
 622:Generated_Source\PSoC4/cyfitter_cfg.c **** 	/* IOPINS0_1 Starting address: CYDEV_PRT1_BASE */
 623:Generated_Source\PSoC4/cyfitter_cfg.c **** 	CY_SET_REG32((void *)(CYDEV_PRT1_BASE), 0x00000040u);
 417              		.loc 1 623 0
 418 0164 4022     		movs	r2, #64
 419 0166 194B     		ldr	r3, .L16+72
 420 0168 1A60     		str	r2, [r3]
 624:Generated_Source\PSoC4/cyfitter_cfg.c **** 	CY_SET_REG32((void *)(CYREG_PRT1_PC), 0x00180000u);
 421              		.loc 1 624 0
 422 016a C022     		movs	r2, #192
 423 016c 5203     		lsls	r2, r2, #13
 424 016e 184B     		ldr	r3, .L16+76
 425 0170 1A60     		str	r2, [r3]
 625:Generated_Source\PSoC4/cyfitter_cfg.c **** 
 626:Generated_Source\PSoC4/cyfitter_cfg.c **** 	/* IOPINS0_3 Starting address: CYDEV_PRT3_BASE */
 627:Generated_Source\PSoC4/cyfitter_cfg.c **** 	CY_SET_REG32((void *)(CYDEV_PRT3_BASE), 0x00000050u);
 426              		.loc 1 627 0
 427 0172 5022     		movs	r2, #80
 428 0174 174B     		ldr	r3, .L16+80
 429 0176 1A60     		str	r2, [r3]
 628:Generated_Source\PSoC4/cyfitter_cfg.c **** 	CY_SET_REG32((void *)(CYREG_PRT3_PC), 0x00186DB6u);
 430              		.loc 1 628 0
 431 0178 174A     		ldr	r2, .L16+84
 432 017a 184B     		ldr	r3, .L16+88
 433 017c 1A60     		str	r2, [r3]
 629:Generated_Source\PSoC4/cyfitter_cfg.c **** 
 630:Generated_Source\PSoC4/cyfitter_cfg.c **** 
 631:Generated_Source\PSoC4/cyfitter_cfg.c **** 	/* Setup clocks based on selections from Clock DWR */
 632:Generated_Source\PSoC4/cyfitter_cfg.c **** 	ClockSetup();
 434              		.loc 1 632 0
 435 017e FFF73FFF 		bl	ClockSetup
 436              	.LVL33:
 633:Generated_Source\PSoC4/cyfitter_cfg.c **** 
 634:Generated_Source\PSoC4/cyfitter_cfg.c **** 	/* Perform basic analog initialization to defaults */
ARM GAS  C:\Users\quint\AppData\Local\Temp\cc5i79fD.s 			page 20


 635:Generated_Source\PSoC4/cyfitter_cfg.c **** 	AnalogSetDefault();
 636:Generated_Source\PSoC4/cyfitter_cfg.c **** 
 637:Generated_Source\PSoC4/cyfitter_cfg.c **** }
 437              		.loc 1 637 0
 438              		@ sp needed
 439              	.LVL34:
 440 0182 70BD     		pop	{r4, r5, r6, pc}
 441              	.L17:
 442              		.align	2
 443              	.L16:
 444 0184 00000000 		.word	.LANCHOR0
 445 0188 80010000 		.word	.LANCHOR1
 446 018c 00000140 		.word	1073807360
 447 0190 04000140 		.word	1073807364
 448 0194 00EE0303 		.word	50589184
 449 0198 0C000140 		.word	1073807372
 450 019c 00500F40 		.word	1074745344
 451 01a0 08500F40 		.word	1074745352
 452 01a4 10500F40 		.word	1074745360
 453 01a8 18500F40 		.word	1074745368
 454 01ac 30500F40 		.word	1074745392
 455 01b0 38500F40 		.word	1074745400
 456 01b4 60010540 		.word	1074069856
 457 01b8 01700F40 		.word	1074753537
 458 01bc 00700F40 		.word	1074753536
 459 01c0 00000440 		.word	1074003968
 460 01c4 800D5800 		.word	5770624
 461 01c8 08000440 		.word	1074003976
 462 01cc 00010440 		.word	1074004224
 463 01d0 08010440 		.word	1074004232
 464 01d4 00030440 		.word	1074004736
 465 01d8 B66D1800 		.word	1600950
 466 01dc 08030440 		.word	1074004744
 467              		.cfi_endproc
 468              	.LFE6:
 469              		.size	cyfitter_cfg, .-cyfitter_cfg
 470              		.section	.rodata
 471              		.align	2
 472              		.set	.LANCHOR0,. + 0
 473              		.set	.LANCHOR1,. + 384
 474              		.type	cfg_memset_list.4875, %object
 475              		.size	cfg_memset_list.4875, 18
 476              	cfg_memset_list.4875:
 477 0000 00300F40 		.word	1074737152
 478 0004 8002     		.short	640
 479 0006 00330F40 		.4byte	1074737920
 480 000a 0001     		.short	256
 481 000c 00400F40 		.word	1074741248
 482 0010 0004     		.short	1024
 483 0012 0000     		.space	2
 484              		.type	cfg_memcpy_list.4877, %object
 485              		.size	cfg_memcpy_list.4877, 10
 486              	cfg_memcpy_list.4877:
 487 0014 80320F40 		.word	1074737792
 488 0018 00020000 		.word	BS_UDB_0_0_0_CONFIG_VAL.4876
 489 001c 8000     		.short	128
 490 001e 0000     		.space	2
ARM GAS  C:\Users\quint\AppData\Local\Temp\cc5i79fD.s 			page 21


 491              		.type	cy_cfg_data_table.4865, %object
 492              		.size	cy_cfg_data_table.4865, 444
 493              	cy_cfg_data_table.4865:
 494 0020 83       		.byte	-125
 495 0021 11       		.byte	17
 496 0022 02       		.byte	2
 497 0023 80       		.byte	-128
 498 0024 04       		.byte	4
 499 0025 07       		.byte	7
 500 0026 06       		.byte	6
 501 0027 38       		.byte	56
 502 0028 08       		.byte	8
 503 0029 01       		.byte	1
 504 002a 0C       		.byte	12
 505 002b 84       		.byte	-124
 506 002c 10       		.byte	16
 507 002d 04       		.byte	4
 508 002e 12       		.byte	18
 509 002f 80       		.byte	-128
 510 0030 14       		.byte	20
 511 0031 0A       		.byte	10
 512 0032 16       		.byte	22
 513 0033 10       		.byte	16
 514 0034 18       		.byte	24
 515 0035 56       		.byte	86
 516 0036 1A       		.byte	26
 517 0037 09       		.byte	9
 518 0038 1C       		.byte	28
 519 0039 04       		.byte	4
 520 003a 20       		.byte	32
 521 003b 84       		.byte	-124
 522 003c 24       		.byte	36
 523 003d 84       		.byte	-124
 524 003e 28       		.byte	40
 525 003f 80       		.byte	-128
 526 0040 2A       		.byte	42
 527 0041 04       		.byte	4
 528 0042 2C       		.byte	44
 529 0043 60       		.byte	96
 530 0044 30       		.byte	48
 531 0045 08       		.byte	8
 532 0046 32       		.byte	50
 533 0047 80       		.byte	-128
 534 0048 34       		.byte	52
 535 0049 7F       		.byte	127
 536 004a 36       		.byte	54
 537 004b 02       		.byte	2
 538 004c 38       		.byte	56
 539 004d 20       		.byte	32
 540 004e 3E       		.byte	62
 541 004f 45       		.byte	69
 542 0050 54       		.byte	84
 543 0051 09       		.byte	9
 544 0052 58       		.byte	88
 545 0053 04       		.byte	4
 546 0054 5B       		.byte	91
 547 0055 04       		.byte	4
ARM GAS  C:\Users\quint\AppData\Local\Temp\cc5i79fD.s 			page 22


 548 0056 5F       		.byte	95
 549 0057 01       		.byte	1
 550 0058 84       		.byte	-124
 551 0059 02       		.byte	2
 552 005a 85       		.byte	-123
 553 005b 13       		.byte	19
 554 005c 86       		.byte	-122
 555 005d 0D       		.byte	13
 556 005e 87       		.byte	-121
 557 005f 04       		.byte	4
 558 0060 88       		.byte	-120
 559 0061 13       		.byte	19
 560 0062 89       		.byte	-119
 561 0063 05       		.byte	5
 562 0064 8A       		.byte	-118
 563 0065 2C       		.byte	44
 564 0066 8B       		.byte	-117
 565 0067 3A       		.byte	58
 566 0068 94       		.byte	-108
 567 0069 65       		.byte	101
 568 006a 95       		.byte	-107
 569 006b 0E       		.byte	14
 570 006c 96       		.byte	-106
 571 006d 1A       		.byte	26
 572 006e 98       		.byte	-104
 573 006f 49       		.byte	73
 574 0070 9A       		.byte	-102
 575 0071 06       		.byte	6
 576 0072 9B       		.byte	-101
 577 0073 20       		.byte	32
 578 0074 9C       		.byte	-100
 579 0075 40       		.byte	64
 580 0076 A5       		.byte	-91
 581 0077 04       		.byte	4
 582 0078 A7       		.byte	-89
 583 0079 39       		.byte	57
 584 007a AC       		.byte	-84
 585 007b 80       		.byte	-128
 586 007c B2       		.byte	-78
 587 007d 0F       		.byte	15
 588 007e B3       		.byte	-77
 589 007f 30       		.byte	48
 590 0080 B4       		.byte	-76
 591 0081 70       		.byte	112
 592 0082 B5       		.byte	-75
 593 0083 0F       		.byte	15
 594 0084 B6       		.byte	-74
 595 0085 80       		.byte	-128
 596 0086 B9       		.byte	-71
 597 0087 20       		.byte	32
 598 0088 BA       		.byte	-70
 599 0089 28       		.byte	40
 600 008a BE       		.byte	-66
 601 008b 40       		.byte	64
 602 008c D4       		.byte	-44
 603 008d 40       		.byte	64
 604 008e D8       		.byte	-40
ARM GAS  C:\Users\quint\AppData\Local\Temp\cc5i79fD.s 			page 23


 605 008f 04       		.byte	4
 606 0090 D9       		.byte	-39
 607 0091 04       		.byte	4
 608 0092 DB       		.byte	-37
 609 0093 04       		.byte	4
 610 0094 DF       		.byte	-33
 611 0095 01       		.byte	1
 612 0096 00       		.byte	0
 613 0097 84       		.byte	-124
 614 0098 01       		.byte	1
 615 0099 22       		.byte	34
 616 009a 02       		.byte	2
 617 009b 40       		.byte	64
 618 009c 05       		.byte	5
 619 009d 14       		.byte	20
 620 009e 09       		.byte	9
 621 009f 20       		.byte	32
 622 00a0 0A       		.byte	10
 623 00a1 92       		.byte	-110
 624 00a2 0C       		.byte	12
 625 00a3 80       		.byte	-128
 626 00a4 0D       		.byte	13
 627 00a5 20       		.byte	32
 628 00a6 0E       		.byte	14
 629 00a7 10       		.byte	16
 630 00a8 0F       		.byte	15
 631 00a9 02       		.byte	2
 632 00aa 10       		.byte	16
 633 00ab 28       		.byte	40
 634 00ac 12       		.byte	18
 635 00ad 01       		.byte	1
 636 00ae 13       		.byte	19
 637 00af 01       		.byte	1
 638 00b0 16       		.byte	22
 639 00b1 02       		.byte	2
 640 00b2 19       		.byte	25
 641 00b3 68       		.byte	104
 642 00b4 1A       		.byte	26
 643 00b5 40       		.byte	64
 644 00b6 1D       		.byte	29
 645 00b7 24       		.byte	36
 646 00b8 1E       		.byte	30
 647 00b9 01       		.byte	1
 648 00ba 1F       		.byte	31
 649 00bb 20       		.byte	32
 650 00bc 27       		.byte	39
 651 00bd 28       		.byte	40
 652 00be 2F       		.byte	47
 653 00bf 20       		.byte	32
 654 00c0 37       		.byte	55
 655 00c1 28       		.byte	40
 656 00c2 3C       		.byte	60
 657 00c3 04       		.byte	4
 658 00c4 3E       		.byte	62
 659 00c5 10       		.byte	16
 660 00c6 58       		.byte	88
 661 00c7 04       		.byte	4
ARM GAS  C:\Users\quint\AppData\Local\Temp\cc5i79fD.s 			page 24


 662 00c8 59       		.byte	89
 663 00c9 01       		.byte	1
 664 00ca 5A       		.byte	90
 665 00cb 40       		.byte	64
 666 00cc 5B       		.byte	91
 667 00cd 10       		.byte	16
 668 00ce 61       		.byte	97
 669 00cf 40       		.byte	64
 670 00d0 65       		.byte	101
 671 00d1 08       		.byte	8
 672 00d2 66       		.byte	102
 673 00d3 60       		.byte	96
 674 00d4 8B       		.byte	-117
 675 00d5 08       		.byte	8
 676 00d6 C0       		.byte	-64
 677 00d7 6F       		.byte	111
 678 00d8 C2       		.byte	-62
 679 00d9 EF       		.byte	-17
 680 00da C4       		.byte	-60
 681 00db 8F       		.byte	-113
 682 00dc CA       		.byte	-54
 683 00dd 40       		.byte	64
 684 00de CC       		.byte	-52
 685 00df 60       		.byte	96
 686 00e0 CE       		.byte	-50
 687 00e1 60       		.byte	96
 688 00e2 D6       		.byte	-42
 689 00e3 0F       		.byte	15
 690 00e4 D8       		.byte	-40
 691 00e5 78       		.byte	120
 692 00e6 E6       		.byte	-26
 693 00e7 80       		.byte	-128
 694 00e8 40       		.byte	64
 695 00e9 52       		.byte	82
 696 00ea 41       		.byte	65
 697 00eb 06       		.byte	6
 698 00ec 42       		.byte	66
 699 00ed 40       		.byte	64
 700 00ee 45       		.byte	69
 701 00ef D0       		.byte	-48
 702 00f0 46       		.byte	70
 703 00f1 FE       		.byte	-2
 704 00f2 47       		.byte	71
 705 00f3 C0       		.byte	-64
 706 00f4 48       		.byte	72
 707 00f5 2E       		.byte	46
 708 00f6 49       		.byte	73
 709 00f7 FF       		.byte	-1
 710 00f8 4A       		.byte	74
 711 00f9 FF       		.byte	-1
 712 00fa 4B       		.byte	75
 713 00fb FF       		.byte	-1
 714 00fc 4C       		.byte	76
 715 00fd 02       		.byte	2
 716 00fe 4E       		.byte	78
 717 00ff 70       		.byte	112
 718 0100 4F       		.byte	79
ARM GAS  C:\Users\quint\AppData\Local\Temp\cc5i79fD.s 			page 25


 719 0101 08       		.byte	8
 720 0102 50       		.byte	80
 721 0103 04       		.byte	4
 722 0104 5A       		.byte	90
 723 0105 04       		.byte	4
 724 0106 5F       		.byte	95
 725 0107 01       		.byte	1
 726 0108 62       		.byte	98
 727 0109 C0       		.byte	-64
 728 010a 64       		.byte	100
 729 010b 40       		.byte	64
 730 010c 65       		.byte	101
 731 010d 01       		.byte	1
 732 010e 66       		.byte	102
 733 010f 10       		.byte	16
 734 0110 67       		.byte	103
 735 0111 11       		.byte	17
 736 0112 68       		.byte	104
 737 0113 C0       		.byte	-64
 738 0114 69       		.byte	105
 739 0115 01       		.byte	1
 740 0116 6B       		.byte	107
 741 0117 11       		.byte	17
 742 0118 6C       		.byte	108
 743 0119 40       		.byte	64
 744 011a 6D       		.byte	109
 745 011b 01       		.byte	1
 746 011c 6E       		.byte	110
 747 011d 40       		.byte	64
 748 011e 6F       		.byte	111
 749 011f 01       		.byte	1
 750 0120 00       		.byte	0
 751 0121 86       		.byte	-122
 752 0122 09       		.byte	9
 753 0123 20       		.byte	32
 754 0124 0A       		.byte	10
 755 0125 10       		.byte	16
 756 0126 0B       		.byte	11
 757 0127 41       		.byte	65
 758 0128 10       		.byte	16
 759 0129 2A       		.byte	42
 760 012a 18       		.byte	24
 761 012b 04       		.byte	4
 762 012c 19       		.byte	25
 763 012d 71       		.byte	113
 764 012e 1A       		.byte	26
 765 012f 50       		.byte	80
 766 0130 1B       		.byte	27
 767 0131 40       		.byte	64
 768 0132 21       		.byte	33
 769 0133 40       		.byte	64
 770 0134 22       		.byte	34
 771 0135 01       		.byte	1
 772 0136 23       		.byte	35
 773 0137 40       		.byte	64
 774 0138 29       		.byte	41
 775 0139 50       		.byte	80
ARM GAS  C:\Users\quint\AppData\Local\Temp\cc5i79fD.s 			page 26


 776 013a 2A       		.byte	42
 777 013b 02       		.byte	2
 778 013c 31       		.byte	49
 779 013d 20       		.byte	32
 780 013e 32       		.byte	50
 781 013f 41       		.byte	65
 782 0140 35       		.byte	53
 783 0141 01       		.byte	1
 784 0142 37       		.byte	55
 785 0143 02       		.byte	2
 786 0144 39       		.byte	57
 787 0145 95       		.byte	-107
 788 0146 41       		.byte	65
 789 0147 20       		.byte	32
 790 0148 42       		.byte	66
 791 0149 50       		.byte	80
 792 014a 45       		.byte	69
 793 014b 20       		.byte	32
 794 014c 47       		.byte	71
 795 014d 02       		.byte	2
 796 014e 49       		.byte	73
 797 014f 10       		.byte	16
 798 0150 4D       		.byte	77
 799 0151 22       		.byte	34
 800 0152 4F       		.byte	79
 801 0153 80       		.byte	-128
 802 0154 52       		.byte	82
 803 0155 01       		.byte	1
 804 0156 54       		.byte	84
 805 0157 02       		.byte	2
 806 0158 56       		.byte	86
 807 0159 60       		.byte	96
 808 015a 57       		.byte	87
 809 015b 01       		.byte	1
 810 015c 61       		.byte	97
 811 015d 04       		.byte	4
 812 015e 68       		.byte	104
 813 015f 69       		.byte	105
 814 0160 69       		.byte	105
 815 0161 15       		.byte	21
 816 0162 6A       		.byte	106
 817 0163 80       		.byte	-128
 818 0164 72       		.byte	114
 819 0165 02       		.byte	2
 820 0166 73       		.byte	115
 821 0167 01       		.byte	1
 822 0168 86       		.byte	-122
 823 0169 01       		.byte	1
 824 016a 88       		.byte	-120
 825 016b 04       		.byte	4
 826 016c 8A       		.byte	-118
 827 016d 40       		.byte	64
 828 016e 92       		.byte	-110
 829 016f 01       		.byte	1
 830 0170 94       		.byte	-108
 831 0171 04       		.byte	4
 832 0172 96       		.byte	-106
ARM GAS  C:\Users\quint\AppData\Local\Temp\cc5i79fD.s 			page 27


 833 0173 92       		.byte	-110
 834 0174 97       		.byte	-105
 835 0175 01       		.byte	1
 836 0176 99       		.byte	-103
 837 0177 04       		.byte	4
 838 0178 9C       		.byte	-100
 839 0179 04       		.byte	4
 840 017a 9D       		.byte	-99
 841 017b 13       		.byte	19
 842 017c 9E       		.byte	-98
 843 017d 21       		.byte	33
 844 017e A1       		.byte	-95
 845 017f 20       		.byte	32
 846 0180 A4       		.byte	-92
 847 0181 68       		.byte	104
 848 0182 A7       		.byte	-89
 849 0183 01       		.byte	1
 850 0184 A9       		.byte	-87
 851 0185 20       		.byte	32
 852 0186 AE       		.byte	-82
 853 0187 02       		.byte	2
 854 0188 AF       		.byte	-81
 855 0189 20       		.byte	32
 856 018a B4       		.byte	-76
 857 018b 80       		.byte	-128
 858 018c B7       		.byte	-73
 859 018d 10       		.byte	16
 860 018e C0       		.byte	-64
 861 018f 0D       		.byte	13
 862 0190 C2       		.byte	-62
 863 0191 0F       		.byte	15
 864 0192 C4       		.byte	-60
 865 0193 07       		.byte	7
 866 0194 CA       		.byte	-54
 867 0195 0D       		.byte	13
 868 0196 CC       		.byte	-52
 869 0197 0D       		.byte	13
 870 0198 CE       		.byte	-50
 871 0199 0F       		.byte	15
 872 019a D0       		.byte	-48
 873 019b A7       		.byte	-89
 874 019c D2       		.byte	-46
 875 019d 34       		.byte	52
 876 019e D8       		.byte	-40
 877 019f 02       		.byte	2
 878 01a0 E6       		.byte	-26
 879 01a1 10       		.byte	16
 880 01a2 E8       		.byte	-24
 881 01a3 02       		.byte	2
 882 01a4 EC       		.byte	-20
 883 01a5 01       		.byte	1
 884 01a6 0F       		.byte	15
 885 01a7 02       		.byte	2
 886 01a8 64       		.byte	100
 887 01a9 04       		.byte	4
 888 01aa 88       		.byte	-120
 889 01ab 04       		.byte	4
ARM GAS  C:\Users\quint\AppData\Local\Temp\cc5i79fD.s 			page 28


 890 01ac C2       		.byte	-62
 891 01ad 80       		.byte	-128
 892 01ae D8       		.byte	-40
 893 01af 80       		.byte	-128
 894 01b0 46       		.byte	70
 895 01b1 40       		.byte	64
 896 01b2 62       		.byte	98
 897 01b3 04       		.byte	4
 898 01b4 86       		.byte	-122
 899 01b5 40       		.byte	64
 900 01b6 8E       		.byte	-114
 901 01b7 04       		.byte	4
 902 01b8 AF       		.byte	-81
 903 01b9 01       		.byte	1
 904 01ba D0       		.byte	-48
 905 01bb 80       		.byte	-128
 906 01bc D8       		.byte	-40
 907 01bd 40       		.byte	64
 908 01be E2       		.byte	-30
 909 01bf 10       		.byte	16
 910 01c0 EC       		.byte	-20
 911 01c1 10       		.byte	16
 912 01c2 23       		.byte	35
 913 01c3 01       		.byte	1
 914 01c4 59       		.byte	89
 915 01c5 04       		.byte	4
 916 01c6 64       		.byte	100
 917 01c7 01       		.byte	1
 918 01c8 8F       		.byte	-113
 919 01c9 01       		.byte	1
 920 01ca 98       		.byte	-104
 921 01cb 01       		.byte	1
 922 01cc 99       		.byte	-103
 923 01cd 04       		.byte	4
 924 01ce A9       		.byte	-87
 925 01cf 04       		.byte	4
 926 01d0 AC       		.byte	-84
 927 01d1 01       		.byte	1
 928 01d2 C8       		.byte	-56
 929 01d3 08       		.byte	8
 930 01d4 D6       		.byte	-42
 931 01d5 03       		.byte	3
 932 01d6 E6       		.byte	-26
 933 01d7 08       		.byte	8
 934 01d8 01       		.byte	1
 935 01d9 01       		.byte	1
 936 01da 10       		.byte	16
 937 01db 01       		.byte	1
 938              		.type	cy_cfg_addr_table.4864, %object
 939              		.size	cy_cfg_addr_table.4864, 36
 940              	cy_cfg_addr_table.4864:
 941 01dc 01000F40 		.word	1074724865
 942 01e0 3A300F40 		.word	1074737210
 943 01e4 29310F40 		.word	1074737449
 944 01e8 1C320F40 		.word	1074737692
 945 01ec 43330F40 		.word	1074737987
 946 01f0 05400F40 		.word	1074741253
ARM GAS  C:\Users\quint\AppData\Local\Temp\cc5i79fD.s 			page 29


 947 01f4 09410F40 		.word	1074741513
 948 01f8 0B430F40 		.word	1074742027
 949 01fc 02600F40 		.word	1074749442
 950              		.type	BS_UDB_0_0_0_CONFIG_VAL.4876, %object
 951              		.size	BS_UDB_0_0_0_CONFIG_VAL.4876, 128
 952              	BS_UDB_0_0_0_CONFIG_VAL.4876:
 953 0200 30       		.byte	48
 954 0201 6C       		.byte	108
 955 0202 05       		.byte	5
 956 0203 00       		.byte	0
 957 0204 26       		.byte	38
 958 0205 6C       		.byte	108
 959 0206 08       		.byte	8
 960 0207 00       		.byte	0
 961 0208 00       		.byte	0
 962 0209 68       		.byte	104
 963 020a 00       		.byte	0
 964 020b 04       		.byte	4
 965 020c 35       		.byte	53
 966 020d 10       		.byte	16
 967 020e 00       		.byte	0
 968 020f 68       		.byte	104
 969 0210 30       		.byte	48
 970 0211 01       		.byte	1
 971 0212 00       		.byte	0
 972 0213 06       		.byte	6
 973 0214 02       		.byte	2
 974 0215 00       		.byte	0
 975 0216 30       		.byte	48
 976 0217 00       		.byte	0
 977 0218 38       		.byte	56
 978 0219 17       		.byte	23
 979 021a 06       		.byte	6
 980 021b 40       		.byte	64
 981 021c 35       		.byte	53
 982 021d 6C       		.byte	108
 983 021e 00       		.byte	0
 984 021f 00       		.byte	0
 985 0220 00       		.byte	0
 986 0221 6C       		.byte	108
 987 0222 00       		.byte	0
 988 0223 00       		.byte	0
 989 0224 31       		.byte	49
 990 0225 00       		.byte	0
 991 0226 04       		.byte	4
 992 0227 00       		.byte	0
 993 0228 05       		.byte	5
 994 0229 08       		.byte	8
 995 022a 30       		.byte	48
 996 022b 13       		.byte	19
 997 022c 04       		.byte	4
 998 022d 11       		.byte	17
 999 022e 00       		.byte	0
 1000 022f 26       		.byte	38
 1001 0230 01       		.byte	1
 1002 0231 07       		.byte	7
 1003 0232 1E       		.byte	30
ARM GAS  C:\Users\quint\AppData\Local\Temp\cc5i79fD.s 			page 30


 1004 0233 00       		.byte	0
 1005 0234 26       		.byte	38
 1006 0235 00       		.byte	0
 1007 0236 1E       		.byte	30
 1008 0237 78       		.byte	120
 1009 0238 00       		.byte	0
 1010 0239 00       		.byte	0
 1011 023a 88       		.byte	-120
 1012 023b 82       		.byte	-126
 1013 023c 00       		.byte	0
 1014 023d 00       		.byte	0
 1015 023e 01       		.byte	1
 1016 023f 00       		.byte	0
 1017 0240 32       		.byte	50
 1018 0241 06       		.byte	6
 1019 0242 40       		.byte	64
 1020 0243 00       		.byte	0
 1021 0244 00       		.byte	0
 1022 0245 00       		.byte	0
 1023 0246 00       		.byte	0
 1024 0247 B0       		.byte	-80
 1025 0248 20       		.byte	32
 1026 0249 01       		.byte	1
 1027 024a FF       		.byte	-1
 1028 024b FF       		.byte	-1
 1029 024c 23       		.byte	35
 1030 024d 00       		.byte	0
 1031 024e 80       		.byte	-128
 1032 024f 08       		.byte	8
 1033 0250 04       		.byte	4
 1034 0251 00       		.byte	0
 1035 0252 00       		.byte	0
 1036 0253 00       		.byte	0
 1037 0254 00       		.byte	0
 1038 0255 00       		.byte	0
 1039 0256 02       		.byte	2
 1040 0257 28       		.byte	40
 1041 0258 04       		.byte	4
 1042 0259 04       		.byte	4
 1043 025a 04       		.byte	4
 1044 025b 04       		.byte	4
 1045 025c 00       		.byte	0
 1046 025d 00       		.byte	0
 1047 025e 00       		.byte	0
 1048 025f 01       		.byte	1
 1049 0260 00       		.byte	0
 1050 0261 00       		.byte	0
 1051 0262 C0       		.byte	-64
 1052 0263 00       		.byte	0
 1053 0264 40       		.byte	64
 1054 0265 01       		.byte	1
 1055 0266 10       		.byte	16
 1056 0267 11       		.byte	17
 1057 0268 C0       		.byte	-64
 1058 0269 01       		.byte	1
 1059 026a 00       		.byte	0
 1060 026b 11       		.byte	17
ARM GAS  C:\Users\quint\AppData\Local\Temp\cc5i79fD.s 			page 31


 1061 026c 40       		.byte	64
 1062 026d 01       		.byte	1
 1063 026e 40       		.byte	64
 1064 026f 01       		.byte	1
 1065 0270 00       		.byte	0
 1066 0271 00       		.byte	0
 1067 0272 00       		.byte	0
 1068 0273 00       		.byte	0
 1069 0274 00       		.byte	0
 1070 0275 00       		.byte	0
 1071 0276 00       		.byte	0
 1072 0277 00       		.byte	0
 1073 0278 00       		.byte	0
 1074 0279 00       		.byte	0
 1075 027a 00       		.byte	0
 1076 027b 00       		.byte	0
 1077 027c 00       		.byte	0
 1078 027d 00       		.byte	0
 1079 027e 00       		.byte	0
 1080 027f 00       		.byte	0
 1081              		.text
 1082              	.Letext0:
 1083              		.file 2 "c:\\program files (x86)\\cypress\\psoc creator\\4.2\\psoc creator\\import\\gnu\\arm\\5.4.
 1084              		.file 3 "Generated_Source\\PSoC4\\cytypes.h"
 1085              		.file 4 "Generated_Source\\PSoC4\\CyLib.h"