ARM GAS  C:\Users\quint\AppData\Local\Temp\ccz811vf.s 			page 1


   1              		.syntax unified
   2              		.cpu cortex-m0
   3              		.fpu softvfp
   4              		.eabi_attribute 20, 1
   5              		.eabi_attribute 21, 1
   6              		.eabi_attribute 23, 3
   7              		.eabi_attribute 24, 1
   8              		.eabi_attribute 25, 1
   9              		.eabi_attribute 26, 1
  10              		.eabi_attribute 30, 1
  11              		.eabi_attribute 34, 0
  12              		.eabi_attribute 18, 4
  13              		.thumb
  14              		.syntax unified
  15              		.file	"main.c"
  16              		.text
  17              	.Ltext0:
  18              		.cfi_sections	.debug_frame
  19              		.global	__aeabi_i2d
  20              		.global	__aeabi_dmul
  21              		.global	__aeabi_ddiv
  22              		.global	__aeabi_dadd
  23              		.global	__aeabi_d2iz
  24              		.section	.text.GLCD_Draw_Line_Polar,"ax",%progbits
  25              		.align	2
  26              		.global	GLCD_Draw_Line_Polar
  27              		.code	16
  28              		.thumb_func
  29              		.type	GLCD_Draw_Line_Polar, %function
  30              	GLCD_Draw_Line_Polar:
  31              	.LFB33:
  32              		.file 1 "main.c"
   1:main.c        **** /* ========================================
   2:main.c        ****  *
   3:main.c        ****  * Copyright YOUR COMPANY, THE YEAR
   4:main.c        ****  * All Rights Reserved
   5:main.c        ****  * UNPUBLISHED, LICENSED SOFTWARE.
   6:main.c        ****  *
   7:main.c        ****  * CONFIDENTIAL AND PROPRIETARY INFORMATION
   8:main.c        ****  * WHICH IS THE PROPERTY OF your company.
   9:main.c        ****  *
  10:main.c        ****  * ========================================
  11:main.c        **** */
  12:main.c        **** #include "project.h"
  13:main.c        **** #include <stdio.h>
  14:main.c        **** #define PUSHED 0
  15:main.c        **** 
  16:main.c        **** 
  17:main.c        **** #include "stdlib.h"
  18:main.c        **** #include <math.h>
  19:main.c        **** #include <string.h>
  20:main.c        **** 
  21:main.c        ****     char mystring[20];
  22:main.c        ****     int count=0;
  23:main.c        ****     int countFollow=0; 
  24:main.c        ****     int countDisplay=0;
  25:main.c        ****     int angle=0;
ARM GAS  C:\Users\quint\AppData\Local\Temp\ccz811vf.s 			page 2


  26:main.c        ****    
  27:main.c        **** 
  28:main.c        **** //This converts the polar cordinates given to the point to point used for the DrawLine
  29:main.c        ****  void GLCD_Draw_Line_Polar(int centerX, int centerY, int angle, int length, int color)
  30:main.c        **** {
  33              		.loc 1 30 0
  34              		.cfi_startproc
  35              		@ args = 4, pretend = 0, frame = 16
  36              		@ frame_needed = 0, uses_anonymous_args = 0
  37              	.LVL0:
  38 0000 F0B5     		push	{r4, r5, r6, r7, lr}
  39              		.cfi_def_cfa_offset 20
  40              		.cfi_offset 4, -20
  41              		.cfi_offset 5, -16
  42              		.cfi_offset 6, -12
  43              		.cfi_offset 7, -8
  44              		.cfi_offset 14, -4
  45 0002 87B0     		sub	sp, sp, #28
  46              		.cfi_def_cfa_offset 48
  47 0004 0290     		str	r0, [sp, #8]
  48 0006 0391     		str	r1, [sp, #12]
  49 0008 1400     		movs	r4, r2
  31:main.c        ****     GLCD_DrawLine(centerX,centerY,(length*cos(((angle*M_PI))/180))+centerX,(length*sin(((angle*M_PI
  50              		.loc 1 31 0
  51 000a 1800     		movs	r0, r3
  52              	.LVL1:
  53 000c FFF7FEFF 		bl	__aeabi_i2d
  54              	.LVL2:
  55 0010 0600     		movs	r6, r0
  56 0012 0F00     		movs	r7, r1
  57 0014 2000     		movs	r0, r4
  58 0016 FFF7FEFF 		bl	__aeabi_i2d
  59              	.LVL3:
  60 001a 214A     		ldr	r2, .L2
  61 001c 214B     		ldr	r3, .L2+4
  62 001e FFF7FEFF 		bl	__aeabi_dmul
  63              	.LVL4:
  64 0022 0022     		movs	r2, #0
  65 0024 204B     		ldr	r3, .L2+8
  66 0026 FFF7FEFF 		bl	__aeabi_ddiv
  67              	.LVL5:
  68 002a 0400     		movs	r4, r0
  69              	.LVL6:
  70 002c 0D00     		movs	r5, r1
  71 002e FFF7FEFF 		bl	cos
  72              	.LVL7:
  73 0032 0200     		movs	r2, r0
  74 0034 0B00     		movs	r3, r1
  75 0036 3000     		movs	r0, r6
  76 0038 3900     		movs	r1, r7
  77 003a FFF7FEFF 		bl	__aeabi_dmul
  78              	.LVL8:
  79 003e 0490     		str	r0, [sp, #16]
  80 0040 0591     		str	r1, [sp, #20]
  81 0042 0298     		ldr	r0, [sp, #8]
  82 0044 FFF7FEFF 		bl	__aeabi_i2d
  83              	.LVL9:
ARM GAS  C:\Users\quint\AppData\Local\Temp\ccz811vf.s 			page 3


  84 0048 049A     		ldr	r2, [sp, #16]
  85 004a 059B     		ldr	r3, [sp, #20]
  86 004c FFF7FEFF 		bl	__aeabi_dadd
  87              	.LVL10:
  88 0050 0490     		str	r0, [sp, #16]
  89 0052 0591     		str	r1, [sp, #20]
  90 0054 2000     		movs	r0, r4
  91 0056 2900     		movs	r1, r5
  92 0058 FFF7FEFF 		bl	sin
  93              	.LVL11:
  94 005c 0200     		movs	r2, r0
  95 005e 0B00     		movs	r3, r1
  96 0060 3000     		movs	r0, r6
  97 0062 3900     		movs	r1, r7
  98 0064 FFF7FEFF 		bl	__aeabi_dmul
  99              	.LVL12:
 100 0068 0400     		movs	r4, r0
 101 006a 0D00     		movs	r5, r1
 102 006c 039E     		ldr	r6, [sp, #12]
 103 006e 3000     		movs	r0, r6
 104 0070 FFF7FEFF 		bl	__aeabi_i2d
 105              	.LVL13:
 106 0074 2200     		movs	r2, r4
 107 0076 2B00     		movs	r3, r5
 108 0078 FFF7FEFF 		bl	__aeabi_dadd
 109              	.LVL14:
 110 007c FFF7FEFF 		bl	__aeabi_d2iz
 111              	.LVL15:
 112 0080 0400     		movs	r4, r0
 113 0082 0498     		ldr	r0, [sp, #16]
 114 0084 0599     		ldr	r1, [sp, #20]
 115 0086 FFF7FEFF 		bl	__aeabi_d2iz
 116              	.LVL16:
 117 008a 0200     		movs	r2, r0
 118 008c 0C9B     		ldr	r3, [sp, #48]
 119 008e 0093     		str	r3, [sp]
 120 0090 2300     		movs	r3, r4
 121 0092 3100     		movs	r1, r6
 122 0094 0298     		ldr	r0, [sp, #8]
 123 0096 FFF7FEFF 		bl	GLCD_DrawLine
 124              	.LVL17:
  32:main.c        ****   
  33:main.c        **** }
 125              		.loc 1 33 0
 126 009a 07B0     		add	sp, sp, #28
 127              		@ sp needed
 128 009c F0BD     		pop	{r4, r5, r6, r7, pc}
 129              	.L3:
 130 009e C046     		.align	2
 131              	.L2:
 132 00a0 182D4454 		.word	1413754136
 133 00a4 FB210940 		.word	1074340347
 134 00a8 00806640 		.word	1080459264
 135              		.cfi_endproc
 136              	.LFE33:
 137              		.size	GLCD_Draw_Line_Polar, .-GLCD_Draw_Line_Polar
 138              		.global	__aeabi_idiv
ARM GAS  C:\Users\quint\AppData\Local\Temp\ccz811vf.s 			page 4


 139              		.section	.text.main,"ax",%progbits
 140              		.align	2
 141              		.global	main
 142              		.code	16
 143              		.thumb_func
 144              		.type	main, %function
 145              	main:
 146              	.LFB34:
  34:main.c        ****     
  35:main.c        **** int main(void)
  36:main.c        **** {
 147              		.loc 1 36 0
 148              		.cfi_startproc
 149              		@ Volatile: function does not return.
 150              		@ args = 0, pretend = 0, frame = 0
 151              		@ frame_needed = 0, uses_anonymous_args = 0
 152 0000 30B5     		push	{r4, r5, lr}
 153              		.cfi_def_cfa_offset 12
 154              		.cfi_offset 4, -12
 155              		.cfi_offset 5, -8
 156              		.cfi_offset 14, -4
 157 0002 83B0     		sub	sp, sp, #12
 158              		.cfi_def_cfa_offset 24
  37:main.c        **** 
  38:main.c        ****     
  39:main.c        ****     CyGlobalIntEnable; /* Enable global interrupts. */
 159              		.loc 1 39 0
 160              		.syntax divided
 161              	@ 39 "main.c" 1
 162 0004 62B6     		CPSIE   i
 163              	@ 0 "" 2
  40:main.c        **** 
  41:main.c        ****     /* Place your initialization/startup code here (e.g. MyInst_Start()) */
  42:main.c        ****      GLCD_Start();
 164              		.loc 1 42 0
 165              		.thumb
 166              		.syntax unified
 167 0006 FFF7FEFF 		bl	GLCD_Start
 168              	.LVL18:
  43:main.c        ****      A_Interrupt_ClearPending();
 169              		.loc 1 43 0
 170 000a FFF7FEFF 		bl	A_Interrupt_ClearPending
 171              	.LVL19:
  44:main.c        ****      A_Interrupt_Start();
 172              		.loc 1 44 0
 173 000e FFF7FEFF 		bl	A_Interrupt_Start
 174              	.LVL20:
  45:main.c        ****      B_Interrupt_ClearPending();
 175              		.loc 1 45 0
 176 0012 FFF7FEFF 		bl	B_Interrupt_ClearPending
 177              	.LVL21:
  46:main.c        ****      B_Interrupt_Start();
 178              		.loc 1 46 0
 179 0016 FFF7FEFF 		bl	B_Interrupt_Start
 180              	.LVL22:
  47:main.c        ****     Backlight_Write(1); 
 181              		.loc 1 47 0
ARM GAS  C:\Users\quint\AppData\Local\Temp\ccz811vf.s 			page 5


 182 001a 0120     		movs	r0, #1
 183 001c FFF7FEFF 		bl	Backlight_Write
 184              	.LVL23:
  48:main.c        ****     B_LED_Write(1);
 185              		.loc 1 48 0
 186 0020 0120     		movs	r0, #1
 187 0022 FFF7FEFF 		bl	B_LED_Write
 188              	.LVL24:
  49:main.c        ****     G_LED_Write(1);
 189              		.loc 1 49 0
 190 0026 0120     		movs	r0, #1
 191 0028 FFF7FEFF 		bl	G_LED_Write
 192              	.LVL25:
  50:main.c        ****     PWM_1_Start(); 
 193              		.loc 1 50 0
 194 002c FFF7FEFF 		bl	PWM_1_Start
 195              	.LVL26:
  51:main.c        ****     Timer_1_Start(); 
 196              		.loc 1 51 0
 197 0030 FFF7FEFF 		bl	Timer_1_Start
 198              	.LVL27:
  52:main.c        ****     Timer_1_WriteCounter(0);
 199              		.loc 1 52 0
 200 0034 0020     		movs	r0, #0
 201 0036 FFF7FEFF 		bl	Timer_1_WriteCounter
 202              	.LVL28:
  53:main.c        ****    
  54:main.c        ****        //Prints the ms ending for the time
  55:main.c        ****        GLCD_PrintString("ms", 10, 50, GLCD_WHITE, GLCD_BLACK);
 203              		.loc 1 55 0
 204 003a 0023     		movs	r3, #0
 205 003c 0093     		str	r3, [sp]
 206 003e 484B     		ldr	r3, .L10
 207 0040 3222     		movs	r2, #50
 208 0042 0A21     		movs	r1, #10
 209 0044 4748     		ldr	r0, .L10+4
 210 0046 FFF7FEFF 		bl	GLCD_PrintString
 211              	.LVL29:
  56:main.c        ****         
  57:main.c        ****         //Draw the outer circle and min and max lines
  58:main.c        ****         //This is just for looks
  59:main.c        ****        GLCD_DrawCircle(80,65,45,GLCD_RED); 
 212              		.loc 1 59 0
 213 004a F024     		movs	r4, #240
 214 004c 2401     		lsls	r4, r4, #4
 215 004e 2300     		movs	r3, r4
 216 0050 2D22     		movs	r2, #45
 217 0052 4121     		movs	r1, #65
 218 0054 5020     		movs	r0, #80
 219 0056 FFF7FEFF 		bl	GLCD_DrawCircle
 220              	.LVL30:
  60:main.c        ****        GLCD_Draw_Line_Polar(80,65,270,45,GLCD_RED);
 221              		.loc 1 60 0
 222 005a 0094     		str	r4, [sp]
 223 005c 2D23     		movs	r3, #45
 224 005e 8722     		movs	r2, #135
 225 0060 5200     		lsls	r2, r2, #1
ARM GAS  C:\Users\quint\AppData\Local\Temp\ccz811vf.s 			page 6


 226 0062 4121     		movs	r1, #65
 227 0064 5020     		movs	r0, #80
 228 0066 FFF7FEFF 		bl	GLCD_Draw_Line_Polar
 229              	.LVL31:
  61:main.c        ****        GLCD_Draw_Line_Polar(80,65,90,45,GLCD_RED);
 230              		.loc 1 61 0
 231 006a 0094     		str	r4, [sp]
 232 006c 2D23     		movs	r3, #45
 233 006e 5A22     		movs	r2, #90
 234 0070 4121     		movs	r1, #65
 235 0072 5020     		movs	r0, #80
 236 0074 FFF7FEFF 		bl	GLCD_Draw_Line_Polar
 237              	.LVL32:
  62:main.c        ****         GLCD_Draw_Line_Polar(80,65,180,45,GLCD_YELLOW);
 238              		.loc 1 62 0
 239 0078 F034     		adds	r4, r4, #240
 240 007a 0094     		str	r4, [sp]
 241 007c 2D23     		movs	r3, #45
 242 007e B422     		movs	r2, #180
 243 0080 4121     		movs	r1, #65
 244 0082 5020     		movs	r0, #80
 245 0084 FFF7FEFF 		bl	GLCD_Draw_Line_Polar
 246              	.LVL33:
  63:main.c        ****           GLCD_DrawCircle(80,65,5,GLCD_YELLOW); 
 247              		.loc 1 63 0
 248 0088 2300     		movs	r3, r4
 249 008a 0522     		movs	r2, #5
 250 008c 4121     		movs	r1, #65
 251 008e 5020     		movs	r0, #80
 252 0090 FFF7FEFF 		bl	GLCD_DrawCircle
 253              	.LVL34:
 254              	.L5:
  64:main.c        ****         while(1)
  65:main.c        ****         {
  66:main.c        ****             //This updates the display with the current count number
  67:main.c        **** 	        sprintf(mystring, "%5d", countDisplay);
 255              		.loc 1 67 0
 256 0094 344C     		ldr	r4, .L10+8
 257 0096 354D     		ldr	r5, .L10+12
 258 0098 2268     		ldr	r2, [r4]
 259 009a 3549     		ldr	r1, .L10+16
 260 009c 2800     		movs	r0, r5
 261 009e FFF7FEFF 		bl	sprintf
 262              	.LVL35:
  68:main.c        ****             GLCD_PrintString(mystring, 10, 10, GLCD_WHITE, GLCD_BLACK);
 263              		.loc 1 68 0
 264 00a2 0023     		movs	r3, #0
 265 00a4 0093     		str	r3, [sp]
 266 00a6 2E4B     		ldr	r3, .L10
 267 00a8 0A22     		movs	r2, #10
 268 00aa 0A21     		movs	r1, #10
 269 00ac 2800     		movs	r0, r5
 270 00ae FFF7FEFF 		bl	GLCD_PrintString
 271              	.LVL36:
  69:main.c        **** 
  70:main.c        **** 
  71:main.c        ****             if(count != countFollow)
ARM GAS  C:\Users\quint\AppData\Local\Temp\ccz811vf.s 			page 7


 272              		.loc 1 71 0
 273 00b2 6368     		ldr	r3, [r4, #4]
 274 00b4 A268     		ldr	r2, [r4, #8]
 275 00b6 9342     		cmp	r3, r2
 276 00b8 ECD0     		beq	.L5
  72:main.c        ****             {
  73:main.c        ****                 
  74:main.c        ****                 
  75:main.c        ****                  countDisplay=count;
 277              		.loc 1 75 0
 278 00ba 2B4C     		ldr	r4, .L10+8
 279 00bc 2360     		str	r3, [r4]
  76:main.c        ****                 //Draws black over the previous line
  77:main.c        ****                 GLCD_Draw_Line_Polar(80,65,angle,40,GLCD_BLACK);
 280              		.loc 1 77 0
 281 00be E268     		ldr	r2, [r4, #12]
 282 00c0 0023     		movs	r3, #0
 283 00c2 0093     		str	r3, [sp]
 284 00c4 2833     		adds	r3, r3, #40
 285 00c6 4121     		movs	r1, #65
 286 00c8 5020     		movs	r0, #80
 287 00ca FFF7FEFF 		bl	GLCD_Draw_Line_Polar
 288              	.LVL37:
  78:main.c        ****                 //calculate the angle that the line should be set at
  79:main.c        ****                  angle=(((countDisplay +500) * (-180)) / (1000)) + 270;
 289              		.loc 1 79 0
 290 00ce 2068     		ldr	r0, [r4]
 291 00d0 F530     		adds	r0, r0, #245
 292 00d2 FF30     		adds	r0, r0, #255
 293 00d4 B423     		movs	r3, #180
 294 00d6 5B42     		rsbs	r3, r3, #0
 295 00d8 5843     		muls	r0, r3
 296 00da FA21     		movs	r1, #250
 297 00dc 8900     		lsls	r1, r1, #2
 298 00de FFF7FEFF 		bl	__aeabi_idiv
 299              	.LVL38:
 300 00e2 0200     		movs	r2, r0
 301 00e4 0F32     		adds	r2, r2, #15
 302 00e6 FF32     		adds	r2, r2, #255
 303 00e8 E260     		str	r2, [r4, #12]
  80:main.c        ****                  //angle=(((count - 500) * (90 - 180)) / (1000 - 500)) + 90;
  81:main.c        ****                 //Draw the line to indicat the time before or after
  82:main.c        ****                 GLCD_Draw_Line_Polar(80,65,angle,40,GLCD_YELLOW);
 304              		.loc 1 82 0
 305 00ea FF25     		movs	r5, #255
 306 00ec 2D01     		lsls	r5, r5, #4
 307 00ee 0095     		str	r5, [sp]
 308 00f0 2823     		movs	r3, #40
 309 00f2 4121     		movs	r1, #65
 310 00f4 5020     		movs	r0, #80
 311 00f6 FFF7FEFF 		bl	GLCD_Draw_Line_Polar
 312              	.LVL39:
  83:main.c        ****                 
  84:main.c        ****                 countFollow=count; 
 313              		.loc 1 84 0
 314 00fa 6368     		ldr	r3, [r4, #4]
 315 00fc A360     		str	r3, [r4, #8]
ARM GAS  C:\Users\quint\AppData\Local\Temp\ccz811vf.s 			page 8


  85:main.c        ****                 GLCD_DrawCircle(80,65,5,GLCD_YELLOW); 
 316              		.loc 1 85 0
 317 00fe 2B00     		movs	r3, r5
 318 0100 0522     		movs	r2, #5
 319 0102 4121     		movs	r1, #65
 320 0104 5020     		movs	r0, #80
 321 0106 FFF7FEFF 		bl	GLCD_DrawCircle
 322              	.LVL40:
  86:main.c        ****                 if(angle !=270)
 323              		.loc 1 86 0
 324 010a E268     		ldr	r2, [r4, #12]
 325 010c 8723     		movs	r3, #135
 326 010e 5B00     		lsls	r3, r3, #1
 327 0110 9A42     		cmp	r2, r3
 328 0112 09D0     		beq	.L6
  87:main.c        ****                 GLCD_Draw_Line_Polar(80,65,270,45,GLCD_RED);
 329              		.loc 1 87 0
 330 0114 F023     		movs	r3, #240
 331 0116 1B01     		lsls	r3, r3, #4
 332 0118 0093     		str	r3, [sp]
 333 011a 2D23     		movs	r3, #45
 334 011c 8722     		movs	r2, #135
 335 011e 5200     		lsls	r2, r2, #1
 336 0120 4121     		movs	r1, #65
 337 0122 5020     		movs	r0, #80
 338 0124 FFF7FEFF 		bl	GLCD_Draw_Line_Polar
 339              	.LVL41:
 340              	.L6:
  88:main.c        ****                 if(angle !=90)
 341              		.loc 1 88 0
 342 0128 0F4B     		ldr	r3, .L10+8
 343 012a DB68     		ldr	r3, [r3, #12]
 344 012c 5A2B     		cmp	r3, #90
 345 012e 08D0     		beq	.L7
  89:main.c        ****                 GLCD_Draw_Line_Polar(80,65,90,45,GLCD_RED);
 346              		.loc 1 89 0
 347 0130 F023     		movs	r3, #240
 348 0132 1B01     		lsls	r3, r3, #4
 349 0134 0093     		str	r3, [sp]
 350 0136 2D23     		movs	r3, #45
 351 0138 5A22     		movs	r2, #90
 352 013a 4121     		movs	r1, #65
 353 013c 5020     		movs	r0, #80
 354 013e FFF7FEFF 		bl	GLCD_Draw_Line_Polar
 355              	.LVL42:
 356              	.L7:
  90:main.c        ****                 if(angle !=180)
 357              		.loc 1 90 0
 358 0142 094B     		ldr	r3, .L10+8
 359 0144 DB68     		ldr	r3, [r3, #12]
 360 0146 B42B     		cmp	r3, #180
 361 0148 A4D0     		beq	.L5
  91:main.c        ****                 GLCD_Draw_Line_Polar(80,65,180,45,GLCD_RED);
 362              		.loc 1 91 0
 363 014a F023     		movs	r3, #240
 364 014c 1B01     		lsls	r3, r3, #4
 365 014e 0093     		str	r3, [sp]
ARM GAS  C:\Users\quint\AppData\Local\Temp\ccz811vf.s 			page 9


 366 0150 2D23     		movs	r3, #45
 367 0152 B422     		movs	r2, #180
 368 0154 4121     		movs	r1, #65
 369 0156 5020     		movs	r0, #80
 370 0158 FFF7FEFF 		bl	GLCD_Draw_Line_Polar
 371              	.LVL43:
 372 015c 9AE7     		b	.L5
 373              	.L11:
 374 015e C046     		.align	2
 375              	.L10:
 376 0160 FF0F0000 		.word	4095
 377 0164 00000000 		.word	.LC0
 378 0168 00000000 		.word	.LANCHOR0
 379 016c 00000000 		.word	mystring
 380 0170 04000000 		.word	.LC3
 381              		.cfi_endproc
 382              	.LFE34:
 383              		.size	main, .-main
 384              		.global	angle
 385              		.global	countDisplay
 386              		.global	countFollow
 387              		.global	count
 388              		.comm	mystring,20,4
 389              		.comm	GLCD_FONT8x16,1552,4
 390              		.section	.rodata.str1.4,"aMS",%progbits,1
 391              		.align	2
 392              	.LC0:
 393 0000 6D7300   		.ascii	"ms\000"
 394 0003 00       		.space	1
 395              	.LC3:
 396 0004 25356400 		.ascii	"%5d\000"
 397              		.bss
 398              		.align	2
 399              		.set	.LANCHOR0,. + 0
 400              		.type	countDisplay, %object
 401              		.size	countDisplay, 4
 402              	countDisplay:
 403 0000 00000000 		.space	4
 404              		.type	count, %object
 405              		.size	count, 4
 406              	count:
 407 0004 00000000 		.space	4
 408              		.type	countFollow, %object
 409              		.size	countFollow, 4
 410              	countFollow:
 411 0008 00000000 		.space	4
 412              		.type	angle, %object
 413              		.size	angle, 4
 414              	angle:
 415 000c 00000000 		.space	4
 416              		.text
 417              	.Letext0:
 418              		.file 2 "Generated_Source\\PSoC4/GLCD.h"
 419              		.file 3 "c:\\program files (x86)\\cypress\\psoc creator\\4.2\\psoc creator\\import\\gnu\\arm\\5.4.
 420              		.file 4 "Generated_Source\\PSoC4/A_Interrupt.h"
 421              		.file 5 "Generated_Source\\PSoC4/B_Interrupt.h"
 422              		.file 6 "Generated_Source\\PSoC4/Backlight.h"
ARM GAS  C:\Users\quint\AppData\Local\Temp\ccz811vf.s 			page 10


 423              		.file 7 "Generated_Source\\PSoC4/B_LED.h"
 424              		.file 8 "Generated_Source\\PSoC4/G_LED.h"
 425              		.file 9 "Generated_Source\\PSoC4/PWM_1.h"
 426              		.file 10 "Generated_Source\\PSoC4/Timer_1.h"
 427              		.file 11 "c:\\program files (x86)\\cypress\\psoc creator\\4.2\\psoc creator\\import\\gnu\\arm\\5.4
 428              		.file 12 "Generated_Source\\PSoC4/cytypes.h"