ARM GAS  C:\Users\quint\AppData\Local\Temp\ccnLmPRj.s 			page 1


   1              		.syntax unified
   2              		.cpu cortex-m0
   3              		.fpu softvfp
   4              		.eabi_attribute 20, 1
   5              		.eabi_attribute 21, 1
   6              		.eabi_attribute 23, 3
   7              		.eabi_attribute 24, 1
   8              		.eabi_attribute 25, 1
   9              		.eabi_attribute 26, 1
  10              		.eabi_attribute 30, 1
  11              		.eabi_attribute 34, 0
  12              		.eabi_attribute 18, 4
  13              		.thumb
  14              		.syntax unified
  15              		.file	"A_Interrupt.c"
  16              		.text
  17              	.Ltext0:
  18              		.cfi_sections	.debug_frame
  19              		.section	.text.A_Interrupt_SetVector,"ax",%progbits
  20              		.align	2
  21              		.global	A_Interrupt_SetVector
  22              		.code	16
  23              		.thumb_func
  24              		.type	A_Interrupt_SetVector, %function
  25              	A_Interrupt_SetVector:
  26              	.LFB37:
  27              		.file 1 "Generated_Source\\PSoC4\\A_Interrupt.c"
   1:Generated_Source\PSoC4/A_Interrupt.c **** /*******************************************************************************
   2:Generated_Source\PSoC4/A_Interrupt.c **** * File Name: A_Interrupt.c  
   3:Generated_Source\PSoC4/A_Interrupt.c **** * Version 1.70
   4:Generated_Source\PSoC4/A_Interrupt.c **** *
   5:Generated_Source\PSoC4/A_Interrupt.c **** *  Description:
   6:Generated_Source\PSoC4/A_Interrupt.c **** *   API for controlling the state of an interrupt.
   7:Generated_Source\PSoC4/A_Interrupt.c **** *
   8:Generated_Source\PSoC4/A_Interrupt.c **** *
   9:Generated_Source\PSoC4/A_Interrupt.c **** *  Note:
  10:Generated_Source\PSoC4/A_Interrupt.c **** *
  11:Generated_Source\PSoC4/A_Interrupt.c **** ********************************************************************************
  12:Generated_Source\PSoC4/A_Interrupt.c **** * Copyright 2008-2015, Cypress Semiconductor Corporation.  All rights reserved.
  13:Generated_Source\PSoC4/A_Interrupt.c **** * You may use this file only in accordance with the license, terms, conditions, 
  14:Generated_Source\PSoC4/A_Interrupt.c **** * disclaimers, and limitations in the end user license agreement accompanying 
  15:Generated_Source\PSoC4/A_Interrupt.c **** * the software package with which this file was provided.
  16:Generated_Source\PSoC4/A_Interrupt.c **** *******************************************************************************/
  17:Generated_Source\PSoC4/A_Interrupt.c **** 
  18:Generated_Source\PSoC4/A_Interrupt.c **** 
  19:Generated_Source\PSoC4/A_Interrupt.c **** #include <cydevice_trm.h>
  20:Generated_Source\PSoC4/A_Interrupt.c **** #include <CyLib.h>
  21:Generated_Source\PSoC4/A_Interrupt.c **** #include <A_Interrupt.h>
  22:Generated_Source\PSoC4/A_Interrupt.c **** #include "cyapicallbacks.h"
  23:Generated_Source\PSoC4/A_Interrupt.c **** 
  24:Generated_Source\PSoC4/A_Interrupt.c **** #if !defined(A_Interrupt__REMOVED) /* Check for removal by optimization */
  25:Generated_Source\PSoC4/A_Interrupt.c **** 
  26:Generated_Source\PSoC4/A_Interrupt.c **** /*******************************************************************************
  27:Generated_Source\PSoC4/A_Interrupt.c **** *  Place your includes, defines and code here 
  28:Generated_Source\PSoC4/A_Interrupt.c **** ********************************************************************************/
  29:Generated_Source\PSoC4/A_Interrupt.c **** /* `#START A_Interrupt_intc` */
  30:Generated_Source\PSoC4/A_Interrupt.c ****     
ARM GAS  C:\Users\quint\AppData\Local\Temp\ccnLmPRj.s 			page 2


  31:Generated_Source\PSoC4/A_Interrupt.c **** #include "project.h"
  32:Generated_Source\PSoC4/A_Interrupt.c **** #include <stdio.h>
  33:Generated_Source\PSoC4/A_Interrupt.c **** #define PUSHED 0
  34:Generated_Source\PSoC4/A_Interrupt.c **** extern int xPos; 
  35:Generated_Source\PSoC4/A_Interrupt.c **** extern int yPos; 
  36:Generated_Source\PSoC4/A_Interrupt.c **** 
  37:Generated_Source\PSoC4/A_Interrupt.c **** 
  38:Generated_Source\PSoC4/A_Interrupt.c **** extern char mystring[20];
  39:Generated_Source\PSoC4/A_Interrupt.c **** 
  40:Generated_Source\PSoC4/A_Interrupt.c **** /* `#END` */
  41:Generated_Source\PSoC4/A_Interrupt.c **** 
  42:Generated_Source\PSoC4/A_Interrupt.c **** extern cyisraddress CyRamVectors[CYINT_IRQ_BASE + CY_NUM_INTERRUPTS];
  43:Generated_Source\PSoC4/A_Interrupt.c **** 
  44:Generated_Source\PSoC4/A_Interrupt.c **** /* Declared in startup, used to set unused interrupts to. */
  45:Generated_Source\PSoC4/A_Interrupt.c **** CY_ISR_PROTO(IntDefaultHandler);
  46:Generated_Source\PSoC4/A_Interrupt.c **** 
  47:Generated_Source\PSoC4/A_Interrupt.c **** 
  48:Generated_Source\PSoC4/A_Interrupt.c **** /*******************************************************************************
  49:Generated_Source\PSoC4/A_Interrupt.c **** * Function Name: A_Interrupt_Start
  50:Generated_Source\PSoC4/A_Interrupt.c **** ********************************************************************************
  51:Generated_Source\PSoC4/A_Interrupt.c **** *
  52:Generated_Source\PSoC4/A_Interrupt.c **** * Summary:
  53:Generated_Source\PSoC4/A_Interrupt.c **** *  Set up the interrupt and enable it. This function disables the interrupt, 
  54:Generated_Source\PSoC4/A_Interrupt.c **** *  sets the default interrupt vector, sets the priority from the value in the
  55:Generated_Source\PSoC4/A_Interrupt.c **** *  Design Wide Resources Interrupt Editor, then enables the interrupt to the 
  56:Generated_Source\PSoC4/A_Interrupt.c **** *  interrupt controller.
  57:Generated_Source\PSoC4/A_Interrupt.c **** *
  58:Generated_Source\PSoC4/A_Interrupt.c **** * Parameters:  
  59:Generated_Source\PSoC4/A_Interrupt.c **** *   None
  60:Generated_Source\PSoC4/A_Interrupt.c **** *
  61:Generated_Source\PSoC4/A_Interrupt.c **** * Return:
  62:Generated_Source\PSoC4/A_Interrupt.c **** *   None
  63:Generated_Source\PSoC4/A_Interrupt.c **** *
  64:Generated_Source\PSoC4/A_Interrupt.c **** *******************************************************************************/
  65:Generated_Source\PSoC4/A_Interrupt.c **** void A_Interrupt_Start(void)
  66:Generated_Source\PSoC4/A_Interrupt.c **** {
  67:Generated_Source\PSoC4/A_Interrupt.c ****     /* For all we know the interrupt is active. */
  68:Generated_Source\PSoC4/A_Interrupt.c ****     A_Interrupt_Disable();
  69:Generated_Source\PSoC4/A_Interrupt.c **** 
  70:Generated_Source\PSoC4/A_Interrupt.c ****     /* Set the ISR to point to the A_Interrupt Interrupt. */
  71:Generated_Source\PSoC4/A_Interrupt.c ****     A_Interrupt_SetVector(&A_Interrupt_Interrupt);
  72:Generated_Source\PSoC4/A_Interrupt.c **** 
  73:Generated_Source\PSoC4/A_Interrupt.c ****     /* Set the priority. */
  74:Generated_Source\PSoC4/A_Interrupt.c ****     A_Interrupt_SetPriority((uint8)A_Interrupt_INTC_PRIOR_NUMBER);
  75:Generated_Source\PSoC4/A_Interrupt.c **** 
  76:Generated_Source\PSoC4/A_Interrupt.c ****     /* Enable it. */
  77:Generated_Source\PSoC4/A_Interrupt.c ****     A_Interrupt_Enable();
  78:Generated_Source\PSoC4/A_Interrupt.c **** }
  79:Generated_Source\PSoC4/A_Interrupt.c **** 
  80:Generated_Source\PSoC4/A_Interrupt.c **** 
  81:Generated_Source\PSoC4/A_Interrupt.c **** /*******************************************************************************
  82:Generated_Source\PSoC4/A_Interrupt.c **** * Function Name: A_Interrupt_StartEx
  83:Generated_Source\PSoC4/A_Interrupt.c **** ********************************************************************************
  84:Generated_Source\PSoC4/A_Interrupt.c **** *
  85:Generated_Source\PSoC4/A_Interrupt.c **** * Summary:
  86:Generated_Source\PSoC4/A_Interrupt.c **** *  Sets up the interrupt and enables it. This function disables the interrupt,
  87:Generated_Source\PSoC4/A_Interrupt.c **** *  sets the interrupt vector based on the address passed in, sets the priority 
ARM GAS  C:\Users\quint\AppData\Local\Temp\ccnLmPRj.s 			page 3


  88:Generated_Source\PSoC4/A_Interrupt.c **** *  from the value in the Design Wide Resources Interrupt Editor, then enables 
  89:Generated_Source\PSoC4/A_Interrupt.c **** *  the interrupt to the interrupt controller.
  90:Generated_Source\PSoC4/A_Interrupt.c **** *  
  91:Generated_Source\PSoC4/A_Interrupt.c **** *  When defining ISR functions, the CY_ISR and CY_ISR_PROTO macros should be 
  92:Generated_Source\PSoC4/A_Interrupt.c **** *  used to provide consistent definition across compilers:
  93:Generated_Source\PSoC4/A_Interrupt.c **** *  
  94:Generated_Source\PSoC4/A_Interrupt.c **** *  Function definition example:
  95:Generated_Source\PSoC4/A_Interrupt.c **** *   CY_ISR(MyISR)
  96:Generated_Source\PSoC4/A_Interrupt.c **** *   {
  97:Generated_Source\PSoC4/A_Interrupt.c **** *   }
  98:Generated_Source\PSoC4/A_Interrupt.c **** *   Function prototype example:
  99:Generated_Source\PSoC4/A_Interrupt.c **** *   CY_ISR_PROTO(MyISR);
 100:Generated_Source\PSoC4/A_Interrupt.c **** *
 101:Generated_Source\PSoC4/A_Interrupt.c **** * Parameters:  
 102:Generated_Source\PSoC4/A_Interrupt.c **** *   address: Address of the ISR to set in the interrupt vector table.
 103:Generated_Source\PSoC4/A_Interrupt.c **** *
 104:Generated_Source\PSoC4/A_Interrupt.c **** * Return:
 105:Generated_Source\PSoC4/A_Interrupt.c **** *   None
 106:Generated_Source\PSoC4/A_Interrupt.c **** *
 107:Generated_Source\PSoC4/A_Interrupt.c **** *******************************************************************************/
 108:Generated_Source\PSoC4/A_Interrupt.c **** void A_Interrupt_StartEx(cyisraddress address)
 109:Generated_Source\PSoC4/A_Interrupt.c **** {
 110:Generated_Source\PSoC4/A_Interrupt.c ****     /* For all we know the interrupt is active. */
 111:Generated_Source\PSoC4/A_Interrupt.c ****     A_Interrupt_Disable();
 112:Generated_Source\PSoC4/A_Interrupt.c **** 
 113:Generated_Source\PSoC4/A_Interrupt.c ****     /* Set the ISR to point to the A_Interrupt Interrupt. */
 114:Generated_Source\PSoC4/A_Interrupt.c ****     A_Interrupt_SetVector(address);
 115:Generated_Source\PSoC4/A_Interrupt.c **** 
 116:Generated_Source\PSoC4/A_Interrupt.c ****     /* Set the priority. */
 117:Generated_Source\PSoC4/A_Interrupt.c ****     A_Interrupt_SetPriority((uint8)A_Interrupt_INTC_PRIOR_NUMBER);
 118:Generated_Source\PSoC4/A_Interrupt.c **** 
 119:Generated_Source\PSoC4/A_Interrupt.c ****     /* Enable it. */
 120:Generated_Source\PSoC4/A_Interrupt.c ****     A_Interrupt_Enable();
 121:Generated_Source\PSoC4/A_Interrupt.c **** }
 122:Generated_Source\PSoC4/A_Interrupt.c **** 
 123:Generated_Source\PSoC4/A_Interrupt.c **** 
 124:Generated_Source\PSoC4/A_Interrupt.c **** /*******************************************************************************
 125:Generated_Source\PSoC4/A_Interrupt.c **** * Function Name: A_Interrupt_Stop
 126:Generated_Source\PSoC4/A_Interrupt.c **** ********************************************************************************
 127:Generated_Source\PSoC4/A_Interrupt.c **** *
 128:Generated_Source\PSoC4/A_Interrupt.c **** * Summary:
 129:Generated_Source\PSoC4/A_Interrupt.c **** *   Disables and removes the interrupt.
 130:Generated_Source\PSoC4/A_Interrupt.c **** *
 131:Generated_Source\PSoC4/A_Interrupt.c **** * Parameters:  
 132:Generated_Source\PSoC4/A_Interrupt.c **** *   None
 133:Generated_Source\PSoC4/A_Interrupt.c **** *
 134:Generated_Source\PSoC4/A_Interrupt.c **** * Return:
 135:Generated_Source\PSoC4/A_Interrupt.c **** *   None
 136:Generated_Source\PSoC4/A_Interrupt.c **** *
 137:Generated_Source\PSoC4/A_Interrupt.c **** *******************************************************************************/
 138:Generated_Source\PSoC4/A_Interrupt.c **** void A_Interrupt_Stop(void)
 139:Generated_Source\PSoC4/A_Interrupt.c **** {
 140:Generated_Source\PSoC4/A_Interrupt.c ****     /* Disable this interrupt. */
 141:Generated_Source\PSoC4/A_Interrupt.c ****     A_Interrupt_Disable();
 142:Generated_Source\PSoC4/A_Interrupt.c **** 
 143:Generated_Source\PSoC4/A_Interrupt.c ****     /* Set the ISR to point to the passive one. */
 144:Generated_Source\PSoC4/A_Interrupt.c ****     A_Interrupt_SetVector(&IntDefaultHandler);
ARM GAS  C:\Users\quint\AppData\Local\Temp\ccnLmPRj.s 			page 4


 145:Generated_Source\PSoC4/A_Interrupt.c **** }
 146:Generated_Source\PSoC4/A_Interrupt.c **** 
 147:Generated_Source\PSoC4/A_Interrupt.c **** 
 148:Generated_Source\PSoC4/A_Interrupt.c **** /*******************************************************************************
 149:Generated_Source\PSoC4/A_Interrupt.c **** * Function Name: A_Interrupt_Interrupt
 150:Generated_Source\PSoC4/A_Interrupt.c **** ********************************************************************************
 151:Generated_Source\PSoC4/A_Interrupt.c **** *
 152:Generated_Source\PSoC4/A_Interrupt.c **** * Summary:
 153:Generated_Source\PSoC4/A_Interrupt.c **** *   The default Interrupt Service Routine for A_Interrupt.
 154:Generated_Source\PSoC4/A_Interrupt.c **** *
 155:Generated_Source\PSoC4/A_Interrupt.c **** *   Add custom code between the START and END comments to keep the next version
 156:Generated_Source\PSoC4/A_Interrupt.c **** *   of this file from over-writing your code.
 157:Generated_Source\PSoC4/A_Interrupt.c **** *
 158:Generated_Source\PSoC4/A_Interrupt.c **** *   Note You may use either the default ISR by using this API, or you may define
 159:Generated_Source\PSoC4/A_Interrupt.c **** *   your own separate ISR through ISR_StartEx().
 160:Generated_Source\PSoC4/A_Interrupt.c **** *
 161:Generated_Source\PSoC4/A_Interrupt.c **** * Parameters:  
 162:Generated_Source\PSoC4/A_Interrupt.c **** *   None
 163:Generated_Source\PSoC4/A_Interrupt.c **** *
 164:Generated_Source\PSoC4/A_Interrupt.c **** * Return:
 165:Generated_Source\PSoC4/A_Interrupt.c **** *   None
 166:Generated_Source\PSoC4/A_Interrupt.c **** *
 167:Generated_Source\PSoC4/A_Interrupt.c **** *******************************************************************************/
 168:Generated_Source\PSoC4/A_Interrupt.c **** CY_ISR(A_Interrupt_Interrupt)
 169:Generated_Source\PSoC4/A_Interrupt.c **** {
 170:Generated_Source\PSoC4/A_Interrupt.c ****     #ifdef A_Interrupt_INTERRUPT_INTERRUPT_CALLBACK
 171:Generated_Source\PSoC4/A_Interrupt.c ****         A_Interrupt_Interrupt_InterruptCallback();
 172:Generated_Source\PSoC4/A_Interrupt.c ****     #endif /* A_Interrupt_INTERRUPT_INTERRUPT_CALLBACK */ 
 173:Generated_Source\PSoC4/A_Interrupt.c **** 
 174:Generated_Source\PSoC4/A_Interrupt.c ****     /*  Place your Interrupt code here. */
 175:Generated_Source\PSoC4/A_Interrupt.c ****     /* `#START A_Interrupt_Interrupt` */
 176:Generated_Source\PSoC4/A_Interrupt.c ****     CyGlobalIntDisable;
 177:Generated_Source\PSoC4/A_Interrupt.c ****             //Sample ADCInput channel 1 for Y
 178:Generated_Source\PSoC4/A_Interrupt.c ****             char mystring[20];
 179:Generated_Source\PSoC4/A_Interrupt.c ****             if(xPos==131)
 180:Generated_Source\PSoC4/A_Interrupt.c ****             {
 181:Generated_Source\PSoC4/A_Interrupt.c ****              
 182:Generated_Source\PSoC4/A_Interrupt.c ****                 GLCD_Clear(GLCD_BLACK);
 183:Generated_Source\PSoC4/A_Interrupt.c ****             
 184:Generated_Source\PSoC4/A_Interrupt.c ****                 xPos=0; 
 185:Generated_Source\PSoC4/A_Interrupt.c ****             }
 186:Generated_Source\PSoC4/A_Interrupt.c ****             if(ADCInput_IsEndConversion(ADCInput_RETURN_STATUS))
 187:Generated_Source\PSoC4/A_Interrupt.c ****             {
 188:Generated_Source\PSoC4/A_Interrupt.c ****              yPos= ADCInput_GetResult16(1);
 189:Generated_Source\PSoC4/A_Interrupt.c ****              yPos=((yPos*-90)/2047)+100; 
 190:Generated_Source\PSoC4/A_Interrupt.c ****             GLCD_Pixel(yPos,xPos,GLCD_BLUE);
 191:Generated_Source\PSoC4/A_Interrupt.c ****             xPos++; 
 192:Generated_Source\PSoC4/A_Interrupt.c ****             }
 193:Generated_Source\PSoC4/A_Interrupt.c ****             //sprintf(mystring," ",xPos); 
 194:Generated_Source\PSoC4/A_Interrupt.c ****            //GLCD_PrintString(mystring,65 , 65, GLCD_WHITE, GLCD_BLUE);
 195:Generated_Source\PSoC4/A_Interrupt.c ****            
 196:Generated_Source\PSoC4/A_Interrupt.c ****             
 197:Generated_Source\PSoC4/A_Interrupt.c **** 
 198:Generated_Source\PSoC4/A_Interrupt.c ****        
 199:Generated_Source\PSoC4/A_Interrupt.c ****             Timer_1_ClearInterrupt(Timer_1_INTR_MASK_TC);
 200:Generated_Source\PSoC4/A_Interrupt.c ****             A_Interrupt_ClearPending(); //Needed to make other interrupts work
 201:Generated_Source\PSoC4/A_Interrupt.c ****             Timer_1_WriteCounter(0);
ARM GAS  C:\Users\quint\AppData\Local\Temp\ccnLmPRj.s 			page 5


 202:Generated_Source\PSoC4/A_Interrupt.c ****             CyGlobalIntEnable; 
 203:Generated_Source\PSoC4/A_Interrupt.c ****    
 204:Generated_Source\PSoC4/A_Interrupt.c **** 
 205:Generated_Source\PSoC4/A_Interrupt.c ****     /* `#END` */
 206:Generated_Source\PSoC4/A_Interrupt.c **** }
 207:Generated_Source\PSoC4/A_Interrupt.c **** 
 208:Generated_Source\PSoC4/A_Interrupt.c **** 
 209:Generated_Source\PSoC4/A_Interrupt.c **** /*******************************************************************************
 210:Generated_Source\PSoC4/A_Interrupt.c **** * Function Name: A_Interrupt_SetVector
 211:Generated_Source\PSoC4/A_Interrupt.c **** ********************************************************************************
 212:Generated_Source\PSoC4/A_Interrupt.c **** *
 213:Generated_Source\PSoC4/A_Interrupt.c **** * Summary:
 214:Generated_Source\PSoC4/A_Interrupt.c **** *   Change the ISR vector for the Interrupt. Note calling A_Interrupt_Start
 215:Generated_Source\PSoC4/A_Interrupt.c **** *   will override any effect this method would have had. To set the vector 
 216:Generated_Source\PSoC4/A_Interrupt.c **** *   before the component has been started use A_Interrupt_StartEx instead.
 217:Generated_Source\PSoC4/A_Interrupt.c **** * 
 218:Generated_Source\PSoC4/A_Interrupt.c **** *   When defining ISR functions, the CY_ISR and CY_ISR_PROTO macros should be 
 219:Generated_Source\PSoC4/A_Interrupt.c **** *   used to provide consistent definition across compilers:
 220:Generated_Source\PSoC4/A_Interrupt.c **** *
 221:Generated_Source\PSoC4/A_Interrupt.c **** *   Function definition example:
 222:Generated_Source\PSoC4/A_Interrupt.c **** *   CY_ISR(MyISR)
 223:Generated_Source\PSoC4/A_Interrupt.c **** *   {
 224:Generated_Source\PSoC4/A_Interrupt.c **** *   }
 225:Generated_Source\PSoC4/A_Interrupt.c **** *
 226:Generated_Source\PSoC4/A_Interrupt.c **** *   Function prototype example:
 227:Generated_Source\PSoC4/A_Interrupt.c **** *     CY_ISR_PROTO(MyISR);
 228:Generated_Source\PSoC4/A_Interrupt.c **** *
 229:Generated_Source\PSoC4/A_Interrupt.c **** * Parameters:
 230:Generated_Source\PSoC4/A_Interrupt.c **** *   address: Address of the ISR to set in the interrupt vector table.
 231:Generated_Source\PSoC4/A_Interrupt.c **** *
 232:Generated_Source\PSoC4/A_Interrupt.c **** * Return:
 233:Generated_Source\PSoC4/A_Interrupt.c **** *   None
 234:Generated_Source\PSoC4/A_Interrupt.c **** *
 235:Generated_Source\PSoC4/A_Interrupt.c **** *******************************************************************************/
 236:Generated_Source\PSoC4/A_Interrupt.c **** void A_Interrupt_SetVector(cyisraddress address)
 237:Generated_Source\PSoC4/A_Interrupt.c **** {
  28              		.loc 1 237 0
  29              		.cfi_startproc
  30              		@ args = 0, pretend = 0, frame = 0
  31              		@ frame_needed = 0, uses_anonymous_args = 0
  32              		@ link register save eliminated.
  33              	.LVL0:
 238:Generated_Source\PSoC4/A_Interrupt.c ****     CyRamVectors[CYINT_IRQ_BASE + A_Interrupt__INTC_NUMBER] = address;
  34              		.loc 1 238 0
  35 0000 8023     		movs	r3, #128
  36 0002 014A     		ldr	r2, .L2
  37 0004 D050     		str	r0, [r2, r3]
 239:Generated_Source\PSoC4/A_Interrupt.c **** }
  38              		.loc 1 239 0
  39              		@ sp needed
  40 0006 7047     		bx	lr
  41              	.L3:
  42              		.align	2
  43              	.L2:
  44 0008 00000000 		.word	CyRamVectors
  45              		.cfi_endproc
  46              	.LFE37:
ARM GAS  C:\Users\quint\AppData\Local\Temp\ccnLmPRj.s 			page 6


  47              		.size	A_Interrupt_SetVector, .-A_Interrupt_SetVector
  48              		.section	.text.A_Interrupt_GetVector,"ax",%progbits
  49              		.align	2
  50              		.global	A_Interrupt_GetVector
  51              		.code	16
  52              		.thumb_func
  53              		.type	A_Interrupt_GetVector, %function
  54              	A_Interrupt_GetVector:
  55              	.LFB38:
 240:Generated_Source\PSoC4/A_Interrupt.c **** 
 241:Generated_Source\PSoC4/A_Interrupt.c **** 
 242:Generated_Source\PSoC4/A_Interrupt.c **** /*******************************************************************************
 243:Generated_Source\PSoC4/A_Interrupt.c **** * Function Name: A_Interrupt_GetVector
 244:Generated_Source\PSoC4/A_Interrupt.c **** ********************************************************************************
 245:Generated_Source\PSoC4/A_Interrupt.c **** *
 246:Generated_Source\PSoC4/A_Interrupt.c **** * Summary:
 247:Generated_Source\PSoC4/A_Interrupt.c **** *   Gets the "address" of the current ISR vector for the Interrupt.
 248:Generated_Source\PSoC4/A_Interrupt.c **** *
 249:Generated_Source\PSoC4/A_Interrupt.c **** * Parameters:
 250:Generated_Source\PSoC4/A_Interrupt.c **** *   None
 251:Generated_Source\PSoC4/A_Interrupt.c **** *
 252:Generated_Source\PSoC4/A_Interrupt.c **** * Return:
 253:Generated_Source\PSoC4/A_Interrupt.c **** *   Address of the ISR in the interrupt vector table.
 254:Generated_Source\PSoC4/A_Interrupt.c **** *
 255:Generated_Source\PSoC4/A_Interrupt.c **** *******************************************************************************/
 256:Generated_Source\PSoC4/A_Interrupt.c **** cyisraddress A_Interrupt_GetVector(void)
 257:Generated_Source\PSoC4/A_Interrupt.c **** {
  56              		.loc 1 257 0
  57              		.cfi_startproc
  58              		@ args = 0, pretend = 0, frame = 0
  59              		@ frame_needed = 0, uses_anonymous_args = 0
  60              		@ link register save eliminated.
 258:Generated_Source\PSoC4/A_Interrupt.c ****     return CyRamVectors[CYINT_IRQ_BASE + A_Interrupt__INTC_NUMBER];
  61              		.loc 1 258 0
  62 0000 8023     		movs	r3, #128
  63 0002 014A     		ldr	r2, .L5
  64 0004 D058     		ldr	r0, [r2, r3]
 259:Generated_Source\PSoC4/A_Interrupt.c **** }
  65              		.loc 1 259 0
  66              		@ sp needed
  67 0006 7047     		bx	lr
  68              	.L6:
  69              		.align	2
  70              	.L5:
  71 0008 00000000 		.word	CyRamVectors
  72              		.cfi_endproc
  73              	.LFE38:
  74              		.size	A_Interrupt_GetVector, .-A_Interrupt_GetVector
  75              		.section	.text.A_Interrupt_SetPriority,"ax",%progbits
  76              		.align	2
  77              		.global	A_Interrupt_SetPriority
  78              		.code	16
  79              		.thumb_func
  80              		.type	A_Interrupt_SetPriority, %function
  81              	A_Interrupt_SetPriority:
  82              	.LFB39:
 260:Generated_Source\PSoC4/A_Interrupt.c **** 
ARM GAS  C:\Users\quint\AppData\Local\Temp\ccnLmPRj.s 			page 7


 261:Generated_Source\PSoC4/A_Interrupt.c **** 
 262:Generated_Source\PSoC4/A_Interrupt.c **** /*******************************************************************************
 263:Generated_Source\PSoC4/A_Interrupt.c **** * Function Name: A_Interrupt_SetPriority
 264:Generated_Source\PSoC4/A_Interrupt.c **** ********************************************************************************
 265:Generated_Source\PSoC4/A_Interrupt.c **** *
 266:Generated_Source\PSoC4/A_Interrupt.c **** * Summary:
 267:Generated_Source\PSoC4/A_Interrupt.c **** *   Sets the Priority of the Interrupt. 
 268:Generated_Source\PSoC4/A_Interrupt.c **** *
 269:Generated_Source\PSoC4/A_Interrupt.c **** *   Note calling A_Interrupt_Start or A_Interrupt_StartEx will 
 270:Generated_Source\PSoC4/A_Interrupt.c **** *   override any effect this API would have had. This API should only be called
 271:Generated_Source\PSoC4/A_Interrupt.c **** *   after A_Interrupt_Start or A_Interrupt_StartEx has been called. 
 272:Generated_Source\PSoC4/A_Interrupt.c **** *   To set the initial priority for the component, use the Design-Wide Resources
 273:Generated_Source\PSoC4/A_Interrupt.c **** *   Interrupt Editor.
 274:Generated_Source\PSoC4/A_Interrupt.c **** *
 275:Generated_Source\PSoC4/A_Interrupt.c **** *   Note This API has no effect on Non-maskable interrupt NMI).
 276:Generated_Source\PSoC4/A_Interrupt.c **** *
 277:Generated_Source\PSoC4/A_Interrupt.c **** * Parameters:
 278:Generated_Source\PSoC4/A_Interrupt.c **** *   priority: Priority of the interrupt, 0 being the highest priority
 279:Generated_Source\PSoC4/A_Interrupt.c **** *             PSoC 3 and PSoC 5LP: Priority is from 0 to 7.
 280:Generated_Source\PSoC4/A_Interrupt.c **** *             PSoC 4: Priority is from 0 to 3.
 281:Generated_Source\PSoC4/A_Interrupt.c **** *
 282:Generated_Source\PSoC4/A_Interrupt.c **** * Return:
 283:Generated_Source\PSoC4/A_Interrupt.c **** *   None
 284:Generated_Source\PSoC4/A_Interrupt.c **** *
 285:Generated_Source\PSoC4/A_Interrupt.c **** *******************************************************************************/
 286:Generated_Source\PSoC4/A_Interrupt.c **** void A_Interrupt_SetPriority(uint8 priority)
 287:Generated_Source\PSoC4/A_Interrupt.c **** {
  83              		.loc 1 287 0
  84              		.cfi_startproc
  85              		@ args = 0, pretend = 0, frame = 0
  86              		@ frame_needed = 0, uses_anonymous_args = 0
  87              	.LVL1:
  88 0000 10B5     		push	{r4, lr}
  89              		.cfi_def_cfa_offset 8
  90              		.cfi_offset 4, -8
  91              		.cfi_offset 14, -4
  92 0002 0400     		movs	r4, r0
  93              	.LVL2:
 288:Generated_Source\PSoC4/A_Interrupt.c **** 	uint8 interruptState;
 289:Generated_Source\PSoC4/A_Interrupt.c ****     uint32 priorityOffset = ((A_Interrupt__INTC_NUMBER % 4u) * 8u) + 6u;
 290:Generated_Source\PSoC4/A_Interrupt.c ****     
 291:Generated_Source\PSoC4/A_Interrupt.c **** 	interruptState = CyEnterCriticalSection();
  94              		.loc 1 291 0
  95 0004 FFF7FEFF 		bl	CyEnterCriticalSection
  96              	.LVL3:
 292:Generated_Source\PSoC4/A_Interrupt.c ****     *A_Interrupt_INTC_PRIOR = (*A_Interrupt_INTC_PRIOR & (uint32)(~A_Interrupt__INTC_PRIOR_MASK)) |
  97              		.loc 1 292 0
  98 0008 044A     		ldr	r2, .L8
  99 000a 1368     		ldr	r3, [r2]
 100 000c C021     		movs	r1, #192
 101 000e 8B43     		bics	r3, r1
 293:Generated_Source\PSoC4/A_Interrupt.c ****                                     ((uint32)priority << priorityOffset);
 102              		.loc 1 293 0
 103 0010 A401     		lsls	r4, r4, #6
 292:Generated_Source\PSoC4/A_Interrupt.c ****     *A_Interrupt_INTC_PRIOR = (*A_Interrupt_INTC_PRIOR & (uint32)(~A_Interrupt__INTC_PRIOR_MASK)) |
 104              		.loc 1 292 0
 105 0012 1C43     		orrs	r4, r3
ARM GAS  C:\Users\quint\AppData\Local\Temp\ccnLmPRj.s 			page 8


 106 0014 1460     		str	r4, [r2]
 294:Generated_Source\PSoC4/A_Interrupt.c **** 	CyExitCriticalSection(interruptState);
 107              		.loc 1 294 0
 108 0016 FFF7FEFF 		bl	CyExitCriticalSection
 109              	.LVL4:
 295:Generated_Source\PSoC4/A_Interrupt.c **** }
 110              		.loc 1 295 0
 111              		@ sp needed
 112 001a 10BD     		pop	{r4, pc}
 113              	.L9:
 114              		.align	2
 115              	.L8:
 116 001c 10E400E0 		.word	-536812528
 117              		.cfi_endproc
 118              	.LFE39:
 119              		.size	A_Interrupt_SetPriority, .-A_Interrupt_SetPriority
 120              		.section	.text.A_Interrupt_GetPriority,"ax",%progbits
 121              		.align	2
 122              		.global	A_Interrupt_GetPriority
 123              		.code	16
 124              		.thumb_func
 125              		.type	A_Interrupt_GetPriority, %function
 126              	A_Interrupt_GetPriority:
 127              	.LFB40:
 296:Generated_Source\PSoC4/A_Interrupt.c **** 
 297:Generated_Source\PSoC4/A_Interrupt.c **** 
 298:Generated_Source\PSoC4/A_Interrupt.c **** /*******************************************************************************
 299:Generated_Source\PSoC4/A_Interrupt.c **** * Function Name: A_Interrupt_GetPriority
 300:Generated_Source\PSoC4/A_Interrupt.c **** ********************************************************************************
 301:Generated_Source\PSoC4/A_Interrupt.c **** *
 302:Generated_Source\PSoC4/A_Interrupt.c **** * Summary:
 303:Generated_Source\PSoC4/A_Interrupt.c **** *   Gets the Priority of the Interrupt.
 304:Generated_Source\PSoC4/A_Interrupt.c **** *
 305:Generated_Source\PSoC4/A_Interrupt.c **** * Parameters:
 306:Generated_Source\PSoC4/A_Interrupt.c **** *   None
 307:Generated_Source\PSoC4/A_Interrupt.c **** *
 308:Generated_Source\PSoC4/A_Interrupt.c **** * Return:
 309:Generated_Source\PSoC4/A_Interrupt.c **** *   Priority of the interrupt, 0 being the highest priority
 310:Generated_Source\PSoC4/A_Interrupt.c **** *    PSoC 3 and PSoC 5LP: Priority is from 0 to 7.
 311:Generated_Source\PSoC4/A_Interrupt.c **** *    PSoC 4: Priority is from 0 to 3.
 312:Generated_Source\PSoC4/A_Interrupt.c **** *
 313:Generated_Source\PSoC4/A_Interrupt.c **** *******************************************************************************/
 314:Generated_Source\PSoC4/A_Interrupt.c **** uint8 A_Interrupt_GetPriority(void)
 315:Generated_Source\PSoC4/A_Interrupt.c **** {
 128              		.loc 1 315 0
 129              		.cfi_startproc
 130              		@ args = 0, pretend = 0, frame = 0
 131              		@ frame_needed = 0, uses_anonymous_args = 0
 132              		@ link register save eliminated.
 133              	.LVL5:
 316:Generated_Source\PSoC4/A_Interrupt.c ****     uint32 priority;
 317:Generated_Source\PSoC4/A_Interrupt.c **** 	uint32 priorityOffset = ((A_Interrupt__INTC_NUMBER % 4u) * 8u) + 6u;
 318:Generated_Source\PSoC4/A_Interrupt.c **** 
 319:Generated_Source\PSoC4/A_Interrupt.c ****     priority = (*A_Interrupt_INTC_PRIOR & A_Interrupt__INTC_PRIOR_MASK) >> priorityOffset;
 134              		.loc 1 319 0
 135 0000 024B     		ldr	r3, .L11
 136 0002 1868     		ldr	r0, [r3]
ARM GAS  C:\Users\quint\AppData\Local\Temp\ccnLmPRj.s 			page 9


 137 0004 8009     		lsrs	r0, r0, #6
 138              	.LVL6:
 320:Generated_Source\PSoC4/A_Interrupt.c **** 
 321:Generated_Source\PSoC4/A_Interrupt.c ****     return (uint8)priority;
 139              		.loc 1 321 0
 140 0006 0323     		movs	r3, #3
 141 0008 1840     		ands	r0, r3
 142              	.LVL7:
 322:Generated_Source\PSoC4/A_Interrupt.c **** }
 143              		.loc 1 322 0
 144              		@ sp needed
 145 000a 7047     		bx	lr
 146              	.L12:
 147              		.align	2
 148              	.L11:
 149 000c 10E400E0 		.word	-536812528
 150              		.cfi_endproc
 151              	.LFE40:
 152              		.size	A_Interrupt_GetPriority, .-A_Interrupt_GetPriority
 153              		.section	.text.A_Interrupt_Enable,"ax",%progbits
 154              		.align	2
 155              		.global	A_Interrupt_Enable
 156              		.code	16
 157              		.thumb_func
 158              		.type	A_Interrupt_Enable, %function
 159              	A_Interrupt_Enable:
 160              	.LFB41:
 323:Generated_Source\PSoC4/A_Interrupt.c **** 
 324:Generated_Source\PSoC4/A_Interrupt.c **** 
 325:Generated_Source\PSoC4/A_Interrupt.c **** /*******************************************************************************
 326:Generated_Source\PSoC4/A_Interrupt.c **** * Function Name: A_Interrupt_Enable
 327:Generated_Source\PSoC4/A_Interrupt.c **** ********************************************************************************
 328:Generated_Source\PSoC4/A_Interrupt.c **** *
 329:Generated_Source\PSoC4/A_Interrupt.c **** * Summary:
 330:Generated_Source\PSoC4/A_Interrupt.c **** *   Enables the interrupt to the interrupt controller. Do not call this function
 331:Generated_Source\PSoC4/A_Interrupt.c **** *   unless ISR_Start() has been called or the functionality of the ISR_Start() 
 332:Generated_Source\PSoC4/A_Interrupt.c **** *   function, which sets the vector and the priority, has been called.
 333:Generated_Source\PSoC4/A_Interrupt.c **** *
 334:Generated_Source\PSoC4/A_Interrupt.c **** * Parameters:
 335:Generated_Source\PSoC4/A_Interrupt.c **** *   None
 336:Generated_Source\PSoC4/A_Interrupt.c **** *
 337:Generated_Source\PSoC4/A_Interrupt.c **** * Return:
 338:Generated_Source\PSoC4/A_Interrupt.c **** *   None
 339:Generated_Source\PSoC4/A_Interrupt.c **** *
 340:Generated_Source\PSoC4/A_Interrupt.c **** *******************************************************************************/
 341:Generated_Source\PSoC4/A_Interrupt.c **** void A_Interrupt_Enable(void)
 342:Generated_Source\PSoC4/A_Interrupt.c **** {
 161              		.loc 1 342 0
 162              		.cfi_startproc
 163              		@ args = 0, pretend = 0, frame = 0
 164              		@ frame_needed = 0, uses_anonymous_args = 0
 165              		@ link register save eliminated.
 343:Generated_Source\PSoC4/A_Interrupt.c ****     /* Enable the general interrupt. */
 344:Generated_Source\PSoC4/A_Interrupt.c ****     *A_Interrupt_INTC_SET_EN = A_Interrupt__INTC_MASK;
 166              		.loc 1 344 0
 167 0000 8022     		movs	r2, #128
 168 0002 5202     		lsls	r2, r2, #9
ARM GAS  C:\Users\quint\AppData\Local\Temp\ccnLmPRj.s 			page 10


 169 0004 014B     		ldr	r3, .L14
 170 0006 1A60     		str	r2, [r3]
 345:Generated_Source\PSoC4/A_Interrupt.c **** }
 171              		.loc 1 345 0
 172              		@ sp needed
 173 0008 7047     		bx	lr
 174              	.L15:
 175 000a C046     		.align	2
 176              	.L14:
 177 000c 00E100E0 		.word	-536813312
 178              		.cfi_endproc
 179              	.LFE41:
 180              		.size	A_Interrupt_Enable, .-A_Interrupt_Enable
 181              		.section	.text.A_Interrupt_GetState,"ax",%progbits
 182              		.align	2
 183              		.global	A_Interrupt_GetState
 184              		.code	16
 185              		.thumb_func
 186              		.type	A_Interrupt_GetState, %function
 187              	A_Interrupt_GetState:
 188              	.LFB42:
 346:Generated_Source\PSoC4/A_Interrupt.c **** 
 347:Generated_Source\PSoC4/A_Interrupt.c **** 
 348:Generated_Source\PSoC4/A_Interrupt.c **** /*******************************************************************************
 349:Generated_Source\PSoC4/A_Interrupt.c **** * Function Name: A_Interrupt_GetState
 350:Generated_Source\PSoC4/A_Interrupt.c **** ********************************************************************************
 351:Generated_Source\PSoC4/A_Interrupt.c **** *
 352:Generated_Source\PSoC4/A_Interrupt.c **** * Summary:
 353:Generated_Source\PSoC4/A_Interrupt.c **** *   Gets the state (enabled, disabled) of the Interrupt.
 354:Generated_Source\PSoC4/A_Interrupt.c **** *
 355:Generated_Source\PSoC4/A_Interrupt.c **** * Parameters:
 356:Generated_Source\PSoC4/A_Interrupt.c **** *   None
 357:Generated_Source\PSoC4/A_Interrupt.c **** *
 358:Generated_Source\PSoC4/A_Interrupt.c **** * Return:
 359:Generated_Source\PSoC4/A_Interrupt.c **** *   1 if enabled, 0 if disabled.
 360:Generated_Source\PSoC4/A_Interrupt.c **** *
 361:Generated_Source\PSoC4/A_Interrupt.c **** *******************************************************************************/
 362:Generated_Source\PSoC4/A_Interrupt.c **** uint8 A_Interrupt_GetState(void)
 363:Generated_Source\PSoC4/A_Interrupt.c **** {
 189              		.loc 1 363 0
 190              		.cfi_startproc
 191              		@ args = 0, pretend = 0, frame = 0
 192              		@ frame_needed = 0, uses_anonymous_args = 0
 193              		@ link register save eliminated.
 364:Generated_Source\PSoC4/A_Interrupt.c ****     /* Get the state of the general interrupt. */
 365:Generated_Source\PSoC4/A_Interrupt.c ****     return ((*A_Interrupt_INTC_SET_EN & (uint32)A_Interrupt__INTC_MASK) != 0u) ? 1u:0u;
 194              		.loc 1 365 0
 195 0000 034B     		ldr	r3, .L19
 196 0002 1B68     		ldr	r3, [r3]
 197 0004 DB03     		lsls	r3, r3, #15
 198 0006 01D5     		bpl	.L18
 199 0008 0120     		movs	r0, #1
 200 000a 00E0     		b	.L17
 201              	.L18:
 202 000c 0020     		movs	r0, #0
 203              	.L17:
 366:Generated_Source\PSoC4/A_Interrupt.c **** }
ARM GAS  C:\Users\quint\AppData\Local\Temp\ccnLmPRj.s 			page 11


 204              		.loc 1 366 0 discriminator 4
 205              		@ sp needed
 206 000e 7047     		bx	lr
 207              	.L20:
 208              		.align	2
 209              	.L19:
 210 0010 00E100E0 		.word	-536813312
 211              		.cfi_endproc
 212              	.LFE42:
 213              		.size	A_Interrupt_GetState, .-A_Interrupt_GetState
 214              		.section	.text.A_Interrupt_Disable,"ax",%progbits
 215              		.align	2
 216              		.global	A_Interrupt_Disable
 217              		.code	16
 218              		.thumb_func
 219              		.type	A_Interrupt_Disable, %function
 220              	A_Interrupt_Disable:
 221              	.LFB43:
 367:Generated_Source\PSoC4/A_Interrupt.c **** 
 368:Generated_Source\PSoC4/A_Interrupt.c **** 
 369:Generated_Source\PSoC4/A_Interrupt.c **** /*******************************************************************************
 370:Generated_Source\PSoC4/A_Interrupt.c **** * Function Name: A_Interrupt_Disable
 371:Generated_Source\PSoC4/A_Interrupt.c **** ********************************************************************************
 372:Generated_Source\PSoC4/A_Interrupt.c **** *
 373:Generated_Source\PSoC4/A_Interrupt.c **** * Summary:
 374:Generated_Source\PSoC4/A_Interrupt.c **** *   Disables the Interrupt in the interrupt controller.
 375:Generated_Source\PSoC4/A_Interrupt.c **** *
 376:Generated_Source\PSoC4/A_Interrupt.c **** * Parameters:
 377:Generated_Source\PSoC4/A_Interrupt.c **** *   None
 378:Generated_Source\PSoC4/A_Interrupt.c **** *
 379:Generated_Source\PSoC4/A_Interrupt.c **** * Return:
 380:Generated_Source\PSoC4/A_Interrupt.c **** *   None
 381:Generated_Source\PSoC4/A_Interrupt.c **** *
 382:Generated_Source\PSoC4/A_Interrupt.c **** *******************************************************************************/
 383:Generated_Source\PSoC4/A_Interrupt.c **** void A_Interrupt_Disable(void)
 384:Generated_Source\PSoC4/A_Interrupt.c **** {
 222              		.loc 1 384 0
 223              		.cfi_startproc
 224              		@ args = 0, pretend = 0, frame = 0
 225              		@ frame_needed = 0, uses_anonymous_args = 0
 226              		@ link register save eliminated.
 385:Generated_Source\PSoC4/A_Interrupt.c ****     /* Disable the general interrupt. */
 386:Generated_Source\PSoC4/A_Interrupt.c ****     *A_Interrupt_INTC_CLR_EN = A_Interrupt__INTC_MASK;
 227              		.loc 1 386 0
 228 0000 8022     		movs	r2, #128
 229 0002 5202     		lsls	r2, r2, #9
 230 0004 014B     		ldr	r3, .L22
 231 0006 1A60     		str	r2, [r3]
 387:Generated_Source\PSoC4/A_Interrupt.c **** }
 232              		.loc 1 387 0
 233              		@ sp needed
 234 0008 7047     		bx	lr
 235              	.L23:
 236 000a C046     		.align	2
 237              	.L22:
 238 000c 80E100E0 		.word	-536813184
 239              		.cfi_endproc
ARM GAS  C:\Users\quint\AppData\Local\Temp\ccnLmPRj.s 			page 12


 240              	.LFE43:
 241              		.size	A_Interrupt_Disable, .-A_Interrupt_Disable
 242              		.section	.text.A_Interrupt_Start,"ax",%progbits
 243              		.align	2
 244              		.global	A_Interrupt_Start
 245              		.code	16
 246              		.thumb_func
 247              		.type	A_Interrupt_Start, %function
 248              	A_Interrupt_Start:
 249              	.LFB33:
  66:Generated_Source\PSoC4/A_Interrupt.c ****     /* For all we know the interrupt is active. */
 250              		.loc 1 66 0
 251              		.cfi_startproc
 252              		@ args = 0, pretend = 0, frame = 0
 253              		@ frame_needed = 0, uses_anonymous_args = 0
 254 0000 10B5     		push	{r4, lr}
 255              		.cfi_def_cfa_offset 8
 256              		.cfi_offset 4, -8
 257              		.cfi_offset 14, -4
  68:Generated_Source\PSoC4/A_Interrupt.c **** 
 258              		.loc 1 68 0
 259 0002 FFF7FEFF 		bl	A_Interrupt_Disable
 260              	.LVL8:
  71:Generated_Source\PSoC4/A_Interrupt.c **** 
 261              		.loc 1 71 0
 262 0006 0448     		ldr	r0, .L25
 263 0008 FFF7FEFF 		bl	A_Interrupt_SetVector
 264              	.LVL9:
  74:Generated_Source\PSoC4/A_Interrupt.c **** 
 265              		.loc 1 74 0
 266 000c 0320     		movs	r0, #3
 267 000e FFF7FEFF 		bl	A_Interrupt_SetPriority
 268              	.LVL10:
  77:Generated_Source\PSoC4/A_Interrupt.c **** }
 269              		.loc 1 77 0
 270 0012 FFF7FEFF 		bl	A_Interrupt_Enable
 271              	.LVL11:
  78:Generated_Source\PSoC4/A_Interrupt.c **** 
 272              		.loc 1 78 0
 273              		@ sp needed
 274 0016 10BD     		pop	{r4, pc}
 275              	.L26:
 276              		.align	2
 277              	.L25:
 278 0018 00000000 		.word	A_Interrupt_Interrupt
 279              		.cfi_endproc
 280              	.LFE33:
 281              		.size	A_Interrupt_Start, .-A_Interrupt_Start
 282              		.section	.text.A_Interrupt_StartEx,"ax",%progbits
 283              		.align	2
 284              		.global	A_Interrupt_StartEx
 285              		.code	16
 286              		.thumb_func
 287              		.type	A_Interrupt_StartEx, %function
 288              	A_Interrupt_StartEx:
 289              	.LFB34:
 109:Generated_Source\PSoC4/A_Interrupt.c ****     /* For all we know the interrupt is active. */
ARM GAS  C:\Users\quint\AppData\Local\Temp\ccnLmPRj.s 			page 13


 290              		.loc 1 109 0
 291              		.cfi_startproc
 292              		@ args = 0, pretend = 0, frame = 0
 293              		@ frame_needed = 0, uses_anonymous_args = 0
 294              	.LVL12:
 295 0000 10B5     		push	{r4, lr}
 296              		.cfi_def_cfa_offset 8
 297              		.cfi_offset 4, -8
 298              		.cfi_offset 14, -4
 299 0002 0400     		movs	r4, r0
 111:Generated_Source\PSoC4/A_Interrupt.c **** 
 300              		.loc 1 111 0
 301 0004 FFF7FEFF 		bl	A_Interrupt_Disable
 302              	.LVL13:
 114:Generated_Source\PSoC4/A_Interrupt.c **** 
 303              		.loc 1 114 0
 304 0008 2000     		movs	r0, r4
 305 000a FFF7FEFF 		bl	A_Interrupt_SetVector
 306              	.LVL14:
 117:Generated_Source\PSoC4/A_Interrupt.c **** 
 307              		.loc 1 117 0
 308 000e 0320     		movs	r0, #3
 309 0010 FFF7FEFF 		bl	A_Interrupt_SetPriority
 310              	.LVL15:
 120:Generated_Source\PSoC4/A_Interrupt.c **** }
 311              		.loc 1 120 0
 312 0014 FFF7FEFF 		bl	A_Interrupt_Enable
 313              	.LVL16:
 121:Generated_Source\PSoC4/A_Interrupt.c **** 
 314              		.loc 1 121 0
 315              		@ sp needed
 316              	.LVL17:
 317 0018 10BD     		pop	{r4, pc}
 318              		.cfi_endproc
 319              	.LFE34:
 320              		.size	A_Interrupt_StartEx, .-A_Interrupt_StartEx
 321 001a C046     		.section	.text.A_Interrupt_Stop,"ax",%progbits
 322              		.align	2
 323              		.global	A_Interrupt_Stop
 324              		.code	16
 325              		.thumb_func
 326              		.type	A_Interrupt_Stop, %function
 327              	A_Interrupt_Stop:
 328              	.LFB35:
 139:Generated_Source\PSoC4/A_Interrupt.c ****     /* Disable this interrupt. */
 329              		.loc 1 139 0
 330              		.cfi_startproc
 331              		@ args = 0, pretend = 0, frame = 0
 332              		@ frame_needed = 0, uses_anonymous_args = 0
 333 0000 10B5     		push	{r4, lr}
 334              		.cfi_def_cfa_offset 8
 335              		.cfi_offset 4, -8
 336              		.cfi_offset 14, -4
 141:Generated_Source\PSoC4/A_Interrupt.c **** 
 337              		.loc 1 141 0
 338 0002 FFF7FEFF 		bl	A_Interrupt_Disable
 339              	.LVL18:
ARM GAS  C:\Users\quint\AppData\Local\Temp\ccnLmPRj.s 			page 14


 144:Generated_Source\PSoC4/A_Interrupt.c **** }
 340              		.loc 1 144 0
 341 0006 0248     		ldr	r0, .L29
 342 0008 FFF7FEFF 		bl	A_Interrupt_SetVector
 343              	.LVL19:
 145:Generated_Source\PSoC4/A_Interrupt.c **** 
 344              		.loc 1 145 0
 345              		@ sp needed
 346 000c 10BD     		pop	{r4, pc}
 347              	.L30:
 348 000e C046     		.align	2
 349              	.L29:
 350 0010 00000000 		.word	IntDefaultHandler
 351              		.cfi_endproc
 352              	.LFE35:
 353              		.size	A_Interrupt_Stop, .-A_Interrupt_Stop
 354              		.section	.text.A_Interrupt_SetPending,"ax",%progbits
 355              		.align	2
 356              		.global	A_Interrupt_SetPending
 357              		.code	16
 358              		.thumb_func
 359              		.type	A_Interrupt_SetPending, %function
 360              	A_Interrupt_SetPending:
 361              	.LFB44:
 388:Generated_Source\PSoC4/A_Interrupt.c **** 
 389:Generated_Source\PSoC4/A_Interrupt.c **** 
 390:Generated_Source\PSoC4/A_Interrupt.c **** /*******************************************************************************
 391:Generated_Source\PSoC4/A_Interrupt.c **** * Function Name: A_Interrupt_SetPending
 392:Generated_Source\PSoC4/A_Interrupt.c **** ********************************************************************************
 393:Generated_Source\PSoC4/A_Interrupt.c **** *
 394:Generated_Source\PSoC4/A_Interrupt.c **** * Summary:
 395:Generated_Source\PSoC4/A_Interrupt.c **** *   Causes the Interrupt to enter the pending state, a software method of
 396:Generated_Source\PSoC4/A_Interrupt.c **** *   generating the interrupt.
 397:Generated_Source\PSoC4/A_Interrupt.c **** *
 398:Generated_Source\PSoC4/A_Interrupt.c **** * Parameters:
 399:Generated_Source\PSoC4/A_Interrupt.c **** *   None
 400:Generated_Source\PSoC4/A_Interrupt.c **** *
 401:Generated_Source\PSoC4/A_Interrupt.c **** * Return:
 402:Generated_Source\PSoC4/A_Interrupt.c **** *   None
 403:Generated_Source\PSoC4/A_Interrupt.c **** *
 404:Generated_Source\PSoC4/A_Interrupt.c **** * Side Effects:
 405:Generated_Source\PSoC4/A_Interrupt.c **** *   If interrupts are enabled and the interrupt is set up properly, the ISR is
 406:Generated_Source\PSoC4/A_Interrupt.c **** *   entered (depending on the priority of this interrupt and other pending 
 407:Generated_Source\PSoC4/A_Interrupt.c **** *   interrupts).
 408:Generated_Source\PSoC4/A_Interrupt.c **** *
 409:Generated_Source\PSoC4/A_Interrupt.c **** *******************************************************************************/
 410:Generated_Source\PSoC4/A_Interrupt.c **** void A_Interrupt_SetPending(void)
 411:Generated_Source\PSoC4/A_Interrupt.c **** {
 362              		.loc 1 411 0
 363              		.cfi_startproc
 364              		@ args = 0, pretend = 0, frame = 0
 365              		@ frame_needed = 0, uses_anonymous_args = 0
 366              		@ link register save eliminated.
 412:Generated_Source\PSoC4/A_Interrupt.c ****     *A_Interrupt_INTC_SET_PD = A_Interrupt__INTC_MASK;
 367              		.loc 1 412 0
 368 0000 8022     		movs	r2, #128
 369 0002 5202     		lsls	r2, r2, #9
ARM GAS  C:\Users\quint\AppData\Local\Temp\ccnLmPRj.s 			page 15


 370 0004 014B     		ldr	r3, .L32
 371 0006 1A60     		str	r2, [r3]
 413:Generated_Source\PSoC4/A_Interrupt.c **** }
 372              		.loc 1 413 0
 373              		@ sp needed
 374 0008 7047     		bx	lr
 375              	.L33:
 376 000a C046     		.align	2
 377              	.L32:
 378 000c 00E200E0 		.word	-536813056
 379              		.cfi_endproc
 380              	.LFE44:
 381              		.size	A_Interrupt_SetPending, .-A_Interrupt_SetPending
 382              		.section	.text.A_Interrupt_ClearPending,"ax",%progbits
 383              		.align	2
 384              		.global	A_Interrupt_ClearPending
 385              		.code	16
 386              		.thumb_func
 387              		.type	A_Interrupt_ClearPending, %function
 388              	A_Interrupt_ClearPending:
 389              	.LFB45:
 414:Generated_Source\PSoC4/A_Interrupt.c **** 
 415:Generated_Source\PSoC4/A_Interrupt.c **** 
 416:Generated_Source\PSoC4/A_Interrupt.c **** /*******************************************************************************
 417:Generated_Source\PSoC4/A_Interrupt.c **** * Function Name: A_Interrupt_ClearPending
 418:Generated_Source\PSoC4/A_Interrupt.c **** ********************************************************************************
 419:Generated_Source\PSoC4/A_Interrupt.c **** *
 420:Generated_Source\PSoC4/A_Interrupt.c **** * Summary:
 421:Generated_Source\PSoC4/A_Interrupt.c **** *   Clears a pending interrupt in the interrupt controller.
 422:Generated_Source\PSoC4/A_Interrupt.c **** *
 423:Generated_Source\PSoC4/A_Interrupt.c **** *   Note Some interrupt sources are clear-on-read and require the block 
 424:Generated_Source\PSoC4/A_Interrupt.c **** *   interrupt/status register to be read/cleared with the appropriate block API 
 425:Generated_Source\PSoC4/A_Interrupt.c **** *   (GPIO, UART, and so on). Otherwise the ISR will continue to remain in 
 426:Generated_Source\PSoC4/A_Interrupt.c **** *   pending state even though the interrupt itself is cleared using this API.
 427:Generated_Source\PSoC4/A_Interrupt.c **** *
 428:Generated_Source\PSoC4/A_Interrupt.c **** * Parameters:
 429:Generated_Source\PSoC4/A_Interrupt.c **** *   None
 430:Generated_Source\PSoC4/A_Interrupt.c **** *
 431:Generated_Source\PSoC4/A_Interrupt.c **** * Return:
 432:Generated_Source\PSoC4/A_Interrupt.c **** *   None
 433:Generated_Source\PSoC4/A_Interrupt.c **** *
 434:Generated_Source\PSoC4/A_Interrupt.c **** *******************************************************************************/
 435:Generated_Source\PSoC4/A_Interrupt.c **** void A_Interrupt_ClearPending(void)
 436:Generated_Source\PSoC4/A_Interrupt.c **** {
 390              		.loc 1 436 0
 391              		.cfi_startproc
 392              		@ args = 0, pretend = 0, frame = 0
 393              		@ frame_needed = 0, uses_anonymous_args = 0
 394              		@ link register save eliminated.
 437:Generated_Source\PSoC4/A_Interrupt.c ****     *A_Interrupt_INTC_CLR_PD = A_Interrupt__INTC_MASK;
 395              		.loc 1 437 0
 396 0000 8022     		movs	r2, #128
 397 0002 5202     		lsls	r2, r2, #9
 398 0004 014B     		ldr	r3, .L35
 399 0006 1A60     		str	r2, [r3]
 438:Generated_Source\PSoC4/A_Interrupt.c **** }
 400              		.loc 1 438 0
ARM GAS  C:\Users\quint\AppData\Local\Temp\ccnLmPRj.s 			page 16


 401              		@ sp needed
 402 0008 7047     		bx	lr
 403              	.L36:
 404 000a C046     		.align	2
 405              	.L35:
 406 000c 80E200E0 		.word	-536812928
 407              		.cfi_endproc
 408              	.LFE45:
 409              		.size	A_Interrupt_ClearPending, .-A_Interrupt_ClearPending
 410              		.global	__aeabi_idiv
 411              		.section	.text.A_Interrupt_Interrupt,"ax",%progbits
 412              		.align	2
 413              		.global	A_Interrupt_Interrupt
 414              		.code	16
 415              		.thumb_func
 416              		.type	A_Interrupt_Interrupt, %function
 417              	A_Interrupt_Interrupt:
 418              	.LFB36:
 169:Generated_Source\PSoC4/A_Interrupt.c ****     #ifdef A_Interrupt_INTERRUPT_INTERRUPT_CALLBACK
 419              		.loc 1 169 0
 420              		.cfi_startproc
 421              		@ args = 0, pretend = 0, frame = 0
 422              		@ frame_needed = 0, uses_anonymous_args = 0
 423 0000 10B5     		push	{r4, lr}
 424              		.cfi_def_cfa_offset 8
 425              		.cfi_offset 4, -8
 426              		.cfi_offset 14, -4
 176:Generated_Source\PSoC4/A_Interrupt.c ****             //Sample ADCInput channel 1 for Y
 427              		.loc 1 176 0
 428              		.syntax divided
 429              	@ 176 "Generated_Source\PSoC4\A_Interrupt.c" 1
 430 0002 72B6     		CPSID   i
 431              	@ 0 "" 2
 179:Generated_Source\PSoC4/A_Interrupt.c ****             {
 432              		.loc 1 179 0
 433              		.thumb
 434              		.syntax unified
 435 0004 164B     		ldr	r3, .L40
 436 0006 1B68     		ldr	r3, [r3]
 437 0008 832B     		cmp	r3, #131
 438 000a 05D1     		bne	.L38
 182:Generated_Source\PSoC4/A_Interrupt.c ****             
 439              		.loc 1 182 0
 440 000c 0020     		movs	r0, #0
 441 000e FFF7FEFF 		bl	GLCD_Clear
 442              	.LVL20:
 184:Generated_Source\PSoC4/A_Interrupt.c ****             }
 443              		.loc 1 184 0
 444 0012 0022     		movs	r2, #0
 445 0014 124B     		ldr	r3, .L40
 446 0016 1A60     		str	r2, [r3]
 447              	.L38:
 186:Generated_Source\PSoC4/A_Interrupt.c ****             {
 448              		.loc 1 186 0
 449 0018 0120     		movs	r0, #1
 450 001a FFF7FEFF 		bl	ADCInput_IsEndConversion
 451              	.LVL21:
ARM GAS  C:\Users\quint\AppData\Local\Temp\ccnLmPRj.s 			page 17


 452 001e 0028     		cmp	r0, #0
 453 0020 13D0     		beq	.L39
 188:Generated_Source\PSoC4/A_Interrupt.c ****              yPos=((yPos*-90)/2047)+100; 
 454              		.loc 1 188 0
 455 0022 0120     		movs	r0, #1
 456 0024 FFF7FEFF 		bl	ADCInput_GetResult16
 457              	.LVL22:
 189:Generated_Source\PSoC4/A_Interrupt.c ****             GLCD_Pixel(yPos,xPos,GLCD_BLUE);
 458              		.loc 1 189 0
 459 0028 5A23     		movs	r3, #90
 460 002a 5B42     		rsbs	r3, r3, #0
 461 002c 5843     		muls	r0, r3
 462 002e 0D49     		ldr	r1, .L40+4
 463 0030 FFF7FEFF 		bl	__aeabi_idiv
 464              	.LVL23:
 465 0034 6430     		adds	r0, r0, #100
 466 0036 0C4B     		ldr	r3, .L40+8
 467 0038 1860     		str	r0, [r3]
 190:Generated_Source\PSoC4/A_Interrupt.c ****             xPos++; 
 468              		.loc 1 190 0
 469 003a 094C     		ldr	r4, .L40
 470 003c 0F22     		movs	r2, #15
 471 003e 2168     		ldr	r1, [r4]
 472 0040 FFF7FEFF 		bl	GLCD_Pixel
 473              	.LVL24:
 191:Generated_Source\PSoC4/A_Interrupt.c ****             }
 474              		.loc 1 191 0
 475 0044 2368     		ldr	r3, [r4]
 476 0046 0133     		adds	r3, r3, #1
 477 0048 2360     		str	r3, [r4]
 478              	.L39:
 199:Generated_Source\PSoC4/A_Interrupt.c ****             A_Interrupt_ClearPending(); //Needed to make other interrupts work
 479              		.loc 1 199 0
 480 004a 0120     		movs	r0, #1
 481 004c FFF7FEFF 		bl	Timer_1_ClearInterrupt
 482              	.LVL25:
 200:Generated_Source\PSoC4/A_Interrupt.c ****             Timer_1_WriteCounter(0);
 483              		.loc 1 200 0
 484 0050 FFF7FEFF 		bl	A_Interrupt_ClearPending
 485              	.LVL26:
 201:Generated_Source\PSoC4/A_Interrupt.c ****             CyGlobalIntEnable; 
 486              		.loc 1 201 0
 487 0054 0020     		movs	r0, #0
 488 0056 FFF7FEFF 		bl	Timer_1_WriteCounter
 489              	.LVL27:
 202:Generated_Source\PSoC4/A_Interrupt.c ****    
 490              		.loc 1 202 0
 491              		.syntax divided
 492              	@ 202 "Generated_Source\PSoC4\A_Interrupt.c" 1
 493 005a 62B6     		CPSIE   i
 494              	@ 0 "" 2
 206:Generated_Source\PSoC4/A_Interrupt.c **** 
 495              		.loc 1 206 0
 496              		.thumb
 497              		.syntax unified
 498              		@ sp needed
 499 005c 10BD     		pop	{r4, pc}
ARM GAS  C:\Users\quint\AppData\Local\Temp\ccnLmPRj.s 			page 18


 500              	.L41:
 501 005e C046     		.align	2
 502              	.L40:
 503 0060 00000000 		.word	xPos
 504 0064 FF070000 		.word	2047
 505 0068 00000000 		.word	yPos
 506              		.cfi_endproc
 507              	.LFE36:
 508              		.size	A_Interrupt_Interrupt, .-A_Interrupt_Interrupt
 509              		.comm	GLCD_FONT8x16,1552,4
 510              		.text
 511              	.Letext0:
 512              		.file 2 "Generated_Source\\PSoC4/cytypes.h"
 513              		.file 3 "Generated_Source\\PSoC4\\GLCD.h"
 514              		.file 4 "Generated_Source\\PSoC4/CyLib.h"
 515              		.file 5 "Generated_Source\\PSoC4\\ADCInput.h"
 516              		.file 6 "Generated_Source\\PSoC4\\Timer_1.h"