ARM GAS  C:\Users\quint\AppData\Local\Temp\ccHDjPtC.s 			page 1


   1              		.syntax unified
   2              		.cpu cortex-m0
   3              		.fpu softvfp
   4              		.eabi_attribute 20, 1
   5              		.eabi_attribute 21, 1
   6              		.eabi_attribute 23, 3
   7              		.eabi_attribute 24, 1
   8              		.eabi_attribute 25, 1
   9              		.eabi_attribute 26, 1
  10              		.eabi_attribute 30, 1
  11              		.eabi_attribute 34, 0
  12              		.eabi_attribute 18, 4
  13              		.thumb
  14              		.syntax unified
  15              		.file	"ADCInput.c"
  16              		.text
  17              	.Ltext0:
  18              		.cfi_sections	.debug_frame
  19              		.global	__aeabi_idiv
  20              		.section	.text.ADCInput_Init,"ax",%progbits
  21              		.align	2
  22              		.global	ADCInput_Init
  23              		.code	16
  24              		.thumb_func
  25              		.type	ADCInput_Init, %function
  26              	ADCInput_Init:
  27              	.LFB1:
  28              		.file 1 "Generated_Source\\PSoC4\\ADCInput.c"
   1:Generated_Source\PSoC4/ADCInput.c **** /*******************************************************************************
   2:Generated_Source\PSoC4/ADCInput.c **** * File Name: ADCInput.c
   3:Generated_Source\PSoC4/ADCInput.c **** * Version 2.50
   4:Generated_Source\PSoC4/ADCInput.c **** *
   5:Generated_Source\PSoC4/ADCInput.c **** * Description:
   6:Generated_Source\PSoC4/ADCInput.c **** *  This file provides the source code to the API for the Sequencing Successive
   7:Generated_Source\PSoC4/ADCInput.c **** *  Approximation ADC Component Component.
   8:Generated_Source\PSoC4/ADCInput.c **** *
   9:Generated_Source\PSoC4/ADCInput.c **** * Note:
  10:Generated_Source\PSoC4/ADCInput.c **** *
  11:Generated_Source\PSoC4/ADCInput.c **** ********************************************************************************
  12:Generated_Source\PSoC4/ADCInput.c **** * Copyright 2008-2017, Cypress Semiconductor Corporation.  All rights reserved.
  13:Generated_Source\PSoC4/ADCInput.c **** * You may use this file only in accordance with the license, terms, conditions,
  14:Generated_Source\PSoC4/ADCInput.c **** * disclaimers, and limitations in the end user license agreement accompanying
  15:Generated_Source\PSoC4/ADCInput.c **** * the software package with which this file was provided.
  16:Generated_Source\PSoC4/ADCInput.c **** *******************************************************************************/
  17:Generated_Source\PSoC4/ADCInput.c **** 
  18:Generated_Source\PSoC4/ADCInput.c **** #include "ADCInput.h"
  19:Generated_Source\PSoC4/ADCInput.c **** 
  20:Generated_Source\PSoC4/ADCInput.c **** 
  21:Generated_Source\PSoC4/ADCInput.c **** /***************************************
  22:Generated_Source\PSoC4/ADCInput.c **** * Global data allocation
  23:Generated_Source\PSoC4/ADCInput.c **** ***************************************/
  24:Generated_Source\PSoC4/ADCInput.c **** uint8 ADCInput_initVar = 0u;
  25:Generated_Source\PSoC4/ADCInput.c **** volatile int16 ADCInput_offset[ADCInput_TOTAL_CHANNELS_NUM];
  26:Generated_Source\PSoC4/ADCInput.c **** volatile int32 ADCInput_countsPer10Volt[ADCInput_TOTAL_CHANNELS_NUM];   /* Gain compensation */
  27:Generated_Source\PSoC4/ADCInput.c **** 
  28:Generated_Source\PSoC4/ADCInput.c **** 
  29:Generated_Source\PSoC4/ADCInput.c **** /***************************************
ARM GAS  C:\Users\quint\AppData\Local\Temp\ccHDjPtC.s 			page 2


  30:Generated_Source\PSoC4/ADCInput.c **** * Local data allocation
  31:Generated_Source\PSoC4/ADCInput.c **** ***************************************/
  32:Generated_Source\PSoC4/ADCInput.c **** /* Channels configuration generated by customiser */
  33:Generated_Source\PSoC4/ADCInput.c **** static const uint32 CYCODE ADCInput_channelsConfig[] = { 0x00000000u, 0x00000000u };
  34:Generated_Source\PSoC4/ADCInput.c **** 
  35:Generated_Source\PSoC4/ADCInput.c **** 
  36:Generated_Source\PSoC4/ADCInput.c **** /*******************************************************************************
  37:Generated_Source\PSoC4/ADCInput.c **** * Function Name: ADCInput_Start
  38:Generated_Source\PSoC4/ADCInput.c **** ********************************************************************************
  39:Generated_Source\PSoC4/ADCInput.c **** *
  40:Generated_Source\PSoC4/ADCInput.c **** * Summary:
  41:Generated_Source\PSoC4/ADCInput.c **** *  Performs all required initialization for this component
  42:Generated_Source\PSoC4/ADCInput.c **** *  and enables the power. The power will be set to the appropriate
  43:Generated_Source\PSoC4/ADCInput.c **** *  power based on the clock frequency.
  44:Generated_Source\PSoC4/ADCInput.c **** *
  45:Generated_Source\PSoC4/ADCInput.c **** * Parameters:
  46:Generated_Source\PSoC4/ADCInput.c **** *  None.
  47:Generated_Source\PSoC4/ADCInput.c **** *
  48:Generated_Source\PSoC4/ADCInput.c **** * Return:
  49:Generated_Source\PSoC4/ADCInput.c **** *  None.
  50:Generated_Source\PSoC4/ADCInput.c **** *
  51:Generated_Source\PSoC4/ADCInput.c **** * Global variables:
  52:Generated_Source\PSoC4/ADCInput.c **** *  The ADCInput_initVar variable is used to indicate when/if initial
  53:Generated_Source\PSoC4/ADCInput.c **** *  configuration of this component has happened. The variable is initialized to
  54:Generated_Source\PSoC4/ADCInput.c **** *  zero and set to 1 the first time ADC_Start() is called. This allows for
  55:Generated_Source\PSoC4/ADCInput.c **** *  component Re-Start without re-initialization in all subsequent calls to the
  56:Generated_Source\PSoC4/ADCInput.c **** *  ADCInput_Start() routine.
  57:Generated_Source\PSoC4/ADCInput.c **** *  If re-initialization of the component is required the variable should be set
  58:Generated_Source\PSoC4/ADCInput.c **** *  to zero before call of ADCInput_Start() routine, or the user may call
  59:Generated_Source\PSoC4/ADCInput.c **** *  ADCInput_Init() and ADCInput_Enable() as done in the
  60:Generated_Source\PSoC4/ADCInput.c **** *  ADCInput_Start() routine.
  61:Generated_Source\PSoC4/ADCInput.c **** *
  62:Generated_Source\PSoC4/ADCInput.c **** *******************************************************************************/
  63:Generated_Source\PSoC4/ADCInput.c **** void ADCInput_Start(void)
  64:Generated_Source\PSoC4/ADCInput.c **** {
  65:Generated_Source\PSoC4/ADCInput.c ****     /* If not Initialized then initialize all required hardware and software */
  66:Generated_Source\PSoC4/ADCInput.c ****     if(ADCInput_initVar == 0u)
  67:Generated_Source\PSoC4/ADCInput.c ****     {
  68:Generated_Source\PSoC4/ADCInput.c ****         ADCInput_Init();
  69:Generated_Source\PSoC4/ADCInput.c ****         ADCInput_initVar = 1u;
  70:Generated_Source\PSoC4/ADCInput.c ****     }
  71:Generated_Source\PSoC4/ADCInput.c ****     ADCInput_Enable();
  72:Generated_Source\PSoC4/ADCInput.c **** }
  73:Generated_Source\PSoC4/ADCInput.c **** 
  74:Generated_Source\PSoC4/ADCInput.c **** 
  75:Generated_Source\PSoC4/ADCInput.c **** /*******************************************************************************
  76:Generated_Source\PSoC4/ADCInput.c **** * Function Name: ADCInput_Init
  77:Generated_Source\PSoC4/ADCInput.c **** ********************************************************************************
  78:Generated_Source\PSoC4/ADCInput.c **** *
  79:Generated_Source\PSoC4/ADCInput.c **** * Summary:
  80:Generated_Source\PSoC4/ADCInput.c **** *  Initialize component's parameters to the parameters set by user in the
  81:Generated_Source\PSoC4/ADCInput.c **** *  customizer of the component placed onto schematic. Usually called in
  82:Generated_Source\PSoC4/ADCInput.c **** *  ADCInput_Start().
  83:Generated_Source\PSoC4/ADCInput.c **** *
  84:Generated_Source\PSoC4/ADCInput.c **** * Parameters:
  85:Generated_Source\PSoC4/ADCInput.c **** *  None.
  86:Generated_Source\PSoC4/ADCInput.c **** *
ARM GAS  C:\Users\quint\AppData\Local\Temp\ccHDjPtC.s 			page 3


  87:Generated_Source\PSoC4/ADCInput.c **** * Return:
  88:Generated_Source\PSoC4/ADCInput.c **** *  None.
  89:Generated_Source\PSoC4/ADCInput.c **** *
  90:Generated_Source\PSoC4/ADCInput.c **** * Global variables:
  91:Generated_Source\PSoC4/ADCInput.c **** *  The ADCInput_offset variable is initialized.
  92:Generated_Source\PSoC4/ADCInput.c **** *
  93:Generated_Source\PSoC4/ADCInput.c **** *******************************************************************************/
  94:Generated_Source\PSoC4/ADCInput.c **** void ADCInput_Init(void)
  95:Generated_Source\PSoC4/ADCInput.c **** {
  29              		.loc 1 95 0
  30              		.cfi_startproc
  31              		@ args = 0, pretend = 0, frame = 0
  32              		@ frame_needed = 0, uses_anonymous_args = 0
  33 0000 10B5     		push	{r4, lr}
  34              		.cfi_def_cfa_offset 8
  35              		.cfi_offset 4, -8
  36              		.cfi_offset 14, -4
  96:Generated_Source\PSoC4/ADCInput.c ****     uint32 chNum;
  97:Generated_Source\PSoC4/ADCInput.c ****     uint32 tmpRegVal;
  98:Generated_Source\PSoC4/ADCInput.c ****     int32 counts;
  99:Generated_Source\PSoC4/ADCInput.c **** 
 100:Generated_Source\PSoC4/ADCInput.c ****     #if(ADCInput_TOTAL_CHANNELS_NUM > 1u)
 101:Generated_Source\PSoC4/ADCInput.c ****         static const uint8 CYCODE ADCInput_InputsPlacement[] =
 102:Generated_Source\PSoC4/ADCInput.c ****         {
 103:Generated_Source\PSoC4/ADCInput.c ****             (uint8)(ADCInput_cy_psoc4_sarmux_8__CH_0_PORT << 4u) |
 104:Generated_Source\PSoC4/ADCInput.c ****             (uint8)ADCInput_cy_psoc4_sarmux_8__CH_0_PIN
 105:Generated_Source\PSoC4/ADCInput.c ****             ,(uint8)(ADCInput_cy_psoc4_sarmux_8__CH_1_PORT << 4u) |
 106:Generated_Source\PSoC4/ADCInput.c ****              (uint8)ADCInput_cy_psoc4_sarmux_8__CH_1_PIN
 107:Generated_Source\PSoC4/ADCInput.c ****             #if(ADCInput_TOTAL_CHANNELS_NUM > 2u)
 108:Generated_Source\PSoC4/ADCInput.c ****                 ,(uint8)(ADCInput_cy_psoc4_sarmux_8__CH_2_PORT << 4u) |
 109:Generated_Source\PSoC4/ADCInput.c ****                  (uint8)ADCInput_cy_psoc4_sarmux_8__CH_2_PIN
 110:Generated_Source\PSoC4/ADCInput.c ****             #endif /* End ADCInput_TOTAL_CHANNELS_NUM > 2u */
 111:Generated_Source\PSoC4/ADCInput.c ****             #if(ADCInput_TOTAL_CHANNELS_NUM > 3u)
 112:Generated_Source\PSoC4/ADCInput.c ****                 ,(uint8)(ADCInput_cy_psoc4_sarmux_8__CH_3_PORT << 4u) |
 113:Generated_Source\PSoC4/ADCInput.c ****                  (uint8)ADCInput_cy_psoc4_sarmux_8__CH_3_PIN
 114:Generated_Source\PSoC4/ADCInput.c ****             #endif /* End ADCInput_TOTAL_CHANNELS_NUM > 3u */
 115:Generated_Source\PSoC4/ADCInput.c ****             #if(ADCInput_TOTAL_CHANNELS_NUM > 4u)
 116:Generated_Source\PSoC4/ADCInput.c ****                 ,(uint8)(ADCInput_cy_psoc4_sarmux_8__CH_4_PORT << 4u) |
 117:Generated_Source\PSoC4/ADCInput.c ****                  (uint8)ADCInput_cy_psoc4_sarmux_8__CH_4_PIN
 118:Generated_Source\PSoC4/ADCInput.c ****             #endif /* End ADCInput_TOTAL_CHANNELS_NUM > 4u */
 119:Generated_Source\PSoC4/ADCInput.c ****             #if(ADCInput_TOTAL_CHANNELS_NUM > 5u)
 120:Generated_Source\PSoC4/ADCInput.c ****                 ,(uint8)(ADCInput_cy_psoc4_sarmux_8__CH_5_PORT << 4u) |
 121:Generated_Source\PSoC4/ADCInput.c ****                  (uint8)ADCInput_cy_psoc4_sarmux_8__CH_5_PIN
 122:Generated_Source\PSoC4/ADCInput.c ****             #endif /* End ADCInput_TOTAL_CHANNELS_NUM > 5u */
 123:Generated_Source\PSoC4/ADCInput.c ****             #if(ADCInput_TOTAL_CHANNELS_NUM > 6u)
 124:Generated_Source\PSoC4/ADCInput.c ****                 ,(uint8)(ADCInput_cy_psoc4_sarmux_8__CH_6_PORT << 4u) |
 125:Generated_Source\PSoC4/ADCInput.c ****                  (uint8)ADCInput_cy_psoc4_sarmux_8__CH_6_PIN
 126:Generated_Source\PSoC4/ADCInput.c ****             #endif /* End ADCInput_TOTAL_CHANNELS_NUM > 6u */
 127:Generated_Source\PSoC4/ADCInput.c ****             #if(ADCInput_TOTAL_CHANNELS_NUM > 7u)
 128:Generated_Source\PSoC4/ADCInput.c ****                 ,(uint8)(ADCInput_cy_psoc4_sarmux_8__CH_7_PORT << 4u) |
 129:Generated_Source\PSoC4/ADCInput.c ****                  (uint8)ADCInput_cy_psoc4_sarmux_8__CH_7_PIN
 130:Generated_Source\PSoC4/ADCInput.c ****             #endif /* End ADCInput_TOTAL_CHANNELS_NUM > 7u */
 131:Generated_Source\PSoC4/ADCInput.c ****             #if(ADCInput_TOTAL_CHANNELS_NUM > 8u)
 132:Generated_Source\PSoC4/ADCInput.c ****                 ,(uint8)(ADCInput_cy_psoc4_sarmux_8__CH_8_PORT << 4u) |
 133:Generated_Source\PSoC4/ADCInput.c ****                  (uint8)ADCInput_cy_psoc4_sarmux_8__CH_8_PIN
 134:Generated_Source\PSoC4/ADCInput.c ****             #endif /* End ADCInput_TOTAL_CHANNELS_NUM > 8u */
 135:Generated_Source\PSoC4/ADCInput.c ****             #if(ADCInput_TOTAL_CHANNELS_NUM > 9u)
ARM GAS  C:\Users\quint\AppData\Local\Temp\ccHDjPtC.s 			page 4


 136:Generated_Source\PSoC4/ADCInput.c ****                 ,(uint8)(ADCInput_cy_psoc4_sarmux_8__CH_9_PORT << 4u) |
 137:Generated_Source\PSoC4/ADCInput.c ****                  (uint8)ADCInput_cy_psoc4_sarmux_8__CH_9_PIN
 138:Generated_Source\PSoC4/ADCInput.c ****             #endif /* End ADCInput_TOTAL_CHANNELS_NUM > 9u */
 139:Generated_Source\PSoC4/ADCInput.c ****             #if(ADCInput_TOTAL_CHANNELS_NUM > 10u)
 140:Generated_Source\PSoC4/ADCInput.c ****                 ,(uint8)(ADCInput_cy_psoc4_sarmux_8__CH_10_PORT << 4u) |
 141:Generated_Source\PSoC4/ADCInput.c ****                  (uint8)ADCInput_cy_psoc4_sarmux_8__CH_10_PIN
 142:Generated_Source\PSoC4/ADCInput.c ****             #endif /* End ADCInput_TOTAL_CHANNELS_NUM > 10u */
 143:Generated_Source\PSoC4/ADCInput.c ****             #if(ADCInput_TOTAL_CHANNELS_NUM > 11u)
 144:Generated_Source\PSoC4/ADCInput.c ****                 ,(uint8)(ADCInput_cy_psoc4_sarmux_8__CH_11_PORT << 4u) |
 145:Generated_Source\PSoC4/ADCInput.c ****                  (uint8)ADCInput_cy_psoc4_sarmux_8__CH_11_PIN
 146:Generated_Source\PSoC4/ADCInput.c ****             #endif /* End ADCInput_TOTAL_CHANNELS_NUM > 11u */
 147:Generated_Source\PSoC4/ADCInput.c ****             #if(ADCInput_TOTAL_CHANNELS_NUM > 12u)
 148:Generated_Source\PSoC4/ADCInput.c ****                 ,(uint8)(ADCInput_cy_psoc4_sarmux_8__CH_12_PORT << 4u) |
 149:Generated_Source\PSoC4/ADCInput.c ****                  (uint8)ADCInput_cy_psoc4_sarmux_8__CH_12_PIN
 150:Generated_Source\PSoC4/ADCInput.c ****             #endif /* End ADCInput_TOTAL_CHANNELS_NUM > 12u */
 151:Generated_Source\PSoC4/ADCInput.c ****             #if(ADCInput_TOTAL_CHANNELS_NUM > 13u)
 152:Generated_Source\PSoC4/ADCInput.c ****                 ,(uint8)(ADCInput_cy_psoc4_sarmux_8__CH_13_PORT << 4u) |
 153:Generated_Source\PSoC4/ADCInput.c ****                  (uint8)ADCInput_cy_psoc4_sarmux_8__CH_13_PIN
 154:Generated_Source\PSoC4/ADCInput.c ****             #endif /* End ADCInput_TOTAL_CHANNELS_NUM > 13u */
 155:Generated_Source\PSoC4/ADCInput.c ****             #if(ADCInput_TOTAL_CHANNELS_NUM > 14u)
 156:Generated_Source\PSoC4/ADCInput.c ****                 ,(uint8)(ADCInput_cy_psoc4_sarmux_8__CH_14_PORT << 4u) |
 157:Generated_Source\PSoC4/ADCInput.c ****                  (uint8)ADCInput_cy_psoc4_sarmux_8__CH_14_PIN
 158:Generated_Source\PSoC4/ADCInput.c ****             #endif /* End ADCInput_TOTAL_CHANNELS_NUM > 14u */
 159:Generated_Source\PSoC4/ADCInput.c ****             #if(ADCInput_TOTAL_CHANNELS_NUM > 15u)
 160:Generated_Source\PSoC4/ADCInput.c ****                 ,(uint8)(ADCInput_cy_psoc4_sarmux_8__CH_15_PORT << 4u) |
 161:Generated_Source\PSoC4/ADCInput.c ****                  (uint8)ADCInput_cy_psoc4_sarmux_8__CH_15_PIN
 162:Generated_Source\PSoC4/ADCInput.c ****             #endif /* End ADCInput_TOTAL_CHANNELS_NUM > 15u */
 163:Generated_Source\PSoC4/ADCInput.c ****             #if(ADCInput_TOTAL_CHANNELS_NUM > 16u)
 164:Generated_Source\PSoC4/ADCInput.c ****                 ,(uint8)(ADCInput_cy_psoc4_sarmux_8__CH_16_PORT << 4u) |
 165:Generated_Source\PSoC4/ADCInput.c ****                  (uint8)ADCInput_cy_psoc4_sarmux_8__CH_16_PIN
 166:Generated_Source\PSoC4/ADCInput.c ****             #endif /* End ADCInput_TOTAL_CHANNELS_NUM > 16u */
 167:Generated_Source\PSoC4/ADCInput.c ****         };
 168:Generated_Source\PSoC4/ADCInput.c ****     #endif /* End ADCInput_TOTAL_CHANNELS_NUM > 1u */
 169:Generated_Source\PSoC4/ADCInput.c **** 
 170:Generated_Source\PSoC4/ADCInput.c ****     #if(ADCInput_IRQ_REMOVE == 0u)
 171:Generated_Source\PSoC4/ADCInput.c ****         /* Start and set interrupt vector */
 172:Generated_Source\PSoC4/ADCInput.c ****         CyIntSetPriority(ADCInput_INTC_NUMBER, ADCInput_INTC_PRIOR_NUMBER);
  37              		.loc 1 172 0
  38 0002 0321     		movs	r1, #3
  39 0004 0E20     		movs	r0, #14
  40 0006 FFF7FEFF 		bl	CyIntSetPriority
  41              	.LVL0:
 173:Generated_Source\PSoC4/ADCInput.c ****         (void)CyIntSetVector(ADCInput_INTC_NUMBER, &ADCInput_ISR);
  42              		.loc 1 173 0
  43 000a 4249     		ldr	r1, .L12
  44 000c 0E20     		movs	r0, #14
  45 000e FFF7FEFF 		bl	CyIntSetVector
  46              	.LVL1:
 174:Generated_Source\PSoC4/ADCInput.c ****     #endif   /* End ADCInput_IRQ_REMOVE */
 175:Generated_Source\PSoC4/ADCInput.c **** 
 176:Generated_Source\PSoC4/ADCInput.c ****     /* Init SAR and MUX registers */
 177:Generated_Source\PSoC4/ADCInput.c ****     ADCInput_SAR_CHAN_EN_REG = ADCInput_DEFAULT_EN_CHANNELS;
  47              		.loc 1 177 0
  48 0012 0322     		movs	r2, #3
  49 0014 404B     		ldr	r3, .L12+4
  50 0016 1A60     		str	r2, [r3]
 178:Generated_Source\PSoC4/ADCInput.c ****     ADCInput_SAR_CTRL_REG |= ADCInput_DEFAULT_CTRL_REG_CFG | 
ARM GAS  C:\Users\quint\AppData\Local\Temp\ccHDjPtC.s 			page 5


 179:Generated_Source\PSoC4/ADCInput.c ****         /* Enable the SAR internal pump when global pump is enabled */
 180:Generated_Source\PSoC4/ADCInput.c ****         (((ADCInput_PUMP_CTRL_REG & ADCInput_PUMP_CTRL_ENABLED) != 0u) ? 
  51              		.loc 1 180 0
  52 0018 404B     		ldr	r3, .L12+8
  53 001a 1B68     		ldr	r3, [r3]
 178:Generated_Source\PSoC4/ADCInput.c ****     ADCInput_SAR_CTRL_REG |= ADCInput_DEFAULT_CTRL_REG_CFG | 
  54              		.loc 1 178 0
  55 001c 002B     		cmp	r3, #0
  56 001e 01DA     		bge	.L10
  57 0020 3F49     		ldr	r1, .L12+12
  58 0022 00E0     		b	.L2
  59              	.L10:
  60 0024 3F49     		ldr	r1, .L12+16
  61              	.L2:
 178:Generated_Source\PSoC4/ADCInput.c ****     ADCInput_SAR_CTRL_REG |= ADCInput_DEFAULT_CTRL_REG_CFG | 
  62              		.loc 1 178 0 is_stmt 0 discriminator 4
  63 0026 404A     		ldr	r2, .L12+20
  64 0028 1368     		ldr	r3, [r2]
  65 002a 0B43     		orrs	r3, r1
  66 002c 1360     		str	r3, [r2]
 181:Generated_Source\PSoC4/ADCInput.c ****         ADCInput_BOOSTPUMP_EN : 0u);
 182:Generated_Source\PSoC4/ADCInput.c ****     ADCInput_SAR_SAMPLE_CTRL_REG = ADCInput_DEFAULT_SAMPLE_CTRL_REG_CFG;
  67              		.loc 1 182 0 is_stmt 1 discriminator 4
  68 002e 3F4A     		ldr	r2, .L12+24
  69 0030 3F4B     		ldr	r3, .L12+28
  70 0032 1A60     		str	r2, [r3]
 183:Generated_Source\PSoC4/ADCInput.c ****     ADCInput_SAR_RANGE_THRES_REG = ADCInput_DEFAULT_RANGE_THRES_REG_CFG;
  71              		.loc 1 183 0 discriminator 4
  72 0034 3F4A     		ldr	r2, .L12+32
  73 0036 404B     		ldr	r3, .L12+36
  74 0038 1A60     		str	r2, [r3]
 184:Generated_Source\PSoC4/ADCInput.c ****     ADCInput_SAR_RANGE_COND_REG  = ADCInput_COMPARE_MODE;
  75              		.loc 1 184 0 discriminator 4
  76 003a 0023     		movs	r3, #0
  77 003c 3F4A     		ldr	r2, .L12+40
  78 003e 1360     		str	r3, [r2]
 185:Generated_Source\PSoC4/ADCInput.c ****     ADCInput_SAR_SAMPLE_TIME01_REG = ADCInput_DEFAULT_SAMPLE_TIME01_REG_CFG;
  79              		.loc 1 185 0 discriminator 4
  80 0040 3F4A     		ldr	r2, .L12+44
  81 0042 4049     		ldr	r1, .L12+48
  82 0044 0A60     		str	r2, [r1]
 186:Generated_Source\PSoC4/ADCInput.c ****     ADCInput_SAR_SAMPLE_TIME23_REG = ADCInput_DEFAULT_SAMPLE_TIME23_REG_CFG;
  83              		.loc 1 186 0 discriminator 4
  84 0046 4049     		ldr	r1, .L12+52
  85 0048 0A60     		str	r2, [r1]
 187:Generated_Source\PSoC4/ADCInput.c ****     
 188:Generated_Source\PSoC4/ADCInput.c ****     /* Connect Vm to VSSA when even one channel is single-ended or multiple channels configured */
 189:Generated_Source\PSoC4/ADCInput.c ****     #if(ADCInput_DEFAULT_MUX_SWITCH0 != 0u)
 190:Generated_Source\PSoC4/ADCInput.c ****         ADCInput_MUX_SWITCH0_REG |= ADCInput_DEFAULT_MUX_SWITCH0;
  86              		.loc 1 190 0 discriminator 4
  87 004a 404A     		ldr	r2, .L12+56
  88 004c 1168     		ldr	r1, [r2]
  89 004e 8020     		movs	r0, #128
  90 0050 4002     		lsls	r0, r0, #9
  91 0052 0143     		orrs	r1, r0
  92 0054 1160     		str	r1, [r2]
 191:Generated_Source\PSoC4/ADCInput.c ****         /* Set MUX_HW_CTRL_VSSA in MUX_SWITCH_HW_CTRL when multiple channels enabled */
ARM GAS  C:\Users\quint\AppData\Local\Temp\ccHDjPtC.s 			page 6


 192:Generated_Source\PSoC4/ADCInput.c ****         #if(ADCInput_TOTAL_CHANNELS_NUM > 1u)
 193:Generated_Source\PSoC4/ADCInput.c ****             ADCInput_MUX_SWITCH_HW_CTRL_REG |= ADCInput_DEFAULT_MUX_SWITCH0;
  93              		.loc 1 193 0 discriminator 4
  94 0056 3E49     		ldr	r1, .L12+60
  95 0058 0A68     		ldr	r2, [r1]
  96 005a 0243     		orrs	r2, r0
  97 005c 0A60     		str	r2, [r1]
 194:Generated_Source\PSoC4/ADCInput.c ****         #endif /* ADCInput_TOTAL_CHANNELS_NUM > 1u */
 195:Generated_Source\PSoC4/ADCInput.c ****     #endif /*ADCInput_CHANNELS_MODE !=0 */
 196:Generated_Source\PSoC4/ADCInput.c **** 
 197:Generated_Source\PSoC4/ADCInput.c ****     ADCInput_SAR_SATURATE_INTR_MASK_REG = 0u;
  98              		.loc 1 197 0 discriminator 4
  99 005e 3D4A     		ldr	r2, .L12+64
 100 0060 1360     		str	r3, [r2]
 198:Generated_Source\PSoC4/ADCInput.c ****     ADCInput_SAR_RANGE_INTR_MASK_REG = 0u;
 101              		.loc 1 198 0 discriminator 4
 102 0062 3D4A     		ldr	r2, .L12+68
 103 0064 1360     		str	r3, [r2]
 199:Generated_Source\PSoC4/ADCInput.c ****     ADCInput_SAR_INTR_MASK_REG = ADCInput_SAR_INTR_MASK;
 104              		.loc 1 199 0 discriminator 4
 105 0066 0133     		adds	r3, r3, #1
 106 0068 3C4A     		ldr	r2, .L12+72
 107 006a 1360     		str	r3, [r2]
 200:Generated_Source\PSoC4/ADCInput.c **** 
 201:Generated_Source\PSoC4/ADCInput.c ****     #if(ADCInput_CY_SAR_IP_VER == ADCInput_CY_SAR_IP_VER0)
 202:Generated_Source\PSoC4/ADCInput.c ****         ADCInput_ANA_TRIM_REG = ADCInput_TRIM_COEF;
 108              		.loc 1 202 0 discriminator 4
 109 006c 0221     		movs	r1, #2
 110 006e 3C4A     		ldr	r2, .L12+76
 111 0070 1160     		str	r1, [r2]
 203:Generated_Source\PSoC4/ADCInput.c ****     #endif /* (ADCInput_CY_SAR_IP_VER == ADCInput_CY_SAR_IP_VER0) */
 204:Generated_Source\PSoC4/ADCInput.c **** 
 205:Generated_Source\PSoC4/ADCInput.c ****     /* Read and modify default configuration based on characterization */
 206:Generated_Source\PSoC4/ADCInput.c ****     tmpRegVal = ADCInput_SAR_DFT_CTRL_REG;
 112              		.loc 1 206 0 discriminator 4
 113 0072 3C49     		ldr	r1, .L12+80
 114 0074 0868     		ldr	r0, [r1]
 115              	.LVL2:
 207:Generated_Source\PSoC4/ADCInput.c ****     tmpRegVal &= (uint32)~ADCInput_DCEN;
 116              		.loc 1 207 0 discriminator 4
 117 0076 3C4A     		ldr	r2, .L12+84
 118 0078 0240     		ands	r2, r0
 119              	.LVL3:
 208:Generated_Source\PSoC4/ADCInput.c ****     
 209:Generated_Source\PSoC4/ADCInput.c ****     #if(ADCInput_CY_SAR_IP_VER == ADCInput_CY_SAR_IP_VER0)
 210:Generated_Source\PSoC4/ADCInput.c ****         #if(ADCInput_NOMINAL_CLOCK_FREQ > (ADCInput_MAX_FREQUENCY / 2))
 211:Generated_Source\PSoC4/ADCInput.c ****             tmpRegVal |= ADCInput_SEL_CSEL_DFT_CHAR;
 212:Generated_Source\PSoC4/ADCInput.c ****         #else  /* clock speed < 9 Mhz */
 213:Generated_Source\PSoC4/ADCInput.c ****             tmpRegVal |= ADCInput_DLY_INC;
 120              		.loc 1 213 0 discriminator 4
 121 007a 1343     		orrs	r3, r2
 122              	.LVL4:
 214:Generated_Source\PSoC4/ADCInput.c ****         #endif /* clock speed > 9 Mhz */
 215:Generated_Source\PSoC4/ADCInput.c ****     #else
 216:Generated_Source\PSoC4/ADCInput.c ****         #if ((ADCInput_DEFAULT_VREF_SEL == ADCInput__INTERNAL1024) || \
 217:Generated_Source\PSoC4/ADCInput.c ****              (ADCInput_DEFAULT_VREF_SEL == ADCInput__INTERNALVREF))
 218:Generated_Source\PSoC4/ADCInput.c ****             tmpRegVal |= ADCInput_DLY_INC;
ARM GAS  C:\Users\quint\AppData\Local\Temp\ccHDjPtC.s 			page 7


 219:Generated_Source\PSoC4/ADCInput.c ****         #else
 220:Generated_Source\PSoC4/ADCInput.c ****             tmpRegVal |= ADCInput_DCEN;
 221:Generated_Source\PSoC4/ADCInput.c ****             tmpRegVal &= (uint32)~ADCInput_DLY_INC;
 222:Generated_Source\PSoC4/ADCInput.c ****         #endif /* ((ADCInput_DEFAULT_VREF_SEL == ADCInput__INTERNAL1024) || \
 223:Generated_Source\PSoC4/ADCInput.c ****                    (ADCInput_DEFAULT_VREF_SEL == ADCInput__INTERNALVREF)) */
 224:Generated_Source\PSoC4/ADCInput.c ****     #endif /* (ADCInput_CY_SAR_IP_VER == ADCInput_CY_SAR_IP_VER0) */
 225:Generated_Source\PSoC4/ADCInput.c ****     
 226:Generated_Source\PSoC4/ADCInput.c ****     ADCInput_SAR_DFT_CTRL_REG = tmpRegVal;
 123              		.loc 1 226 0 discriminator 4
 124 007c 0B60     		str	r3, [r1]
 125              	.LVL5:
 227:Generated_Source\PSoC4/ADCInput.c **** 
 228:Generated_Source\PSoC4/ADCInput.c ****     #if(ADCInput_MAX_RESOLUTION != ADCInput_RESOLUTION_12)
 229:Generated_Source\PSoC4/ADCInput.c ****         ADCInput_WOUNDING_REG = ADCInput_ALT_WOUNDING;
 230:Generated_Source\PSoC4/ADCInput.c ****     #endif /* ADCInput_MAX_RESOLUTION != ADCInput_RESOLUTION_12 */
 231:Generated_Source\PSoC4/ADCInput.c **** 
 232:Generated_Source\PSoC4/ADCInput.c ****     for(chNum = 0u; chNum < ADCInput_TOTAL_CHANNELS_NUM; chNum++)
 126              		.loc 1 232 0 discriminator 4
 127 007e 0024     		movs	r4, #0
 128 0080 45E0     		b	.L3
 129              	.LVL6:
 130              	.L9:
 233:Generated_Source\PSoC4/ADCInput.c ****     {
 234:Generated_Source\PSoC4/ADCInput.c ****         tmpRegVal = (ADCInput_channelsConfig[chNum] & ADCInput_CHANNEL_CONFIG_MASK);
 131              		.loc 1 234 0
 132 0082 3A49     		ldr	r1, .L12+88
 133 0084 A200     		lsls	r2, r4, #2
 134 0086 5058     		ldr	r0, [r2, r1]
 135 0088 DC23     		movs	r3, #220
 136 008a 9B01     		lsls	r3, r3, #6
 137 008c 0340     		ands	r3, r0
 138              	.LVL7:
 235:Generated_Source\PSoC4/ADCInput.c ****         #if(ADCInput_TOTAL_CHANNELS_NUM > 1u)
 236:Generated_Source\PSoC4/ADCInput.c ****             tmpRegVal |= ADCInput_InputsPlacement[chNum];
 139              		.loc 1 236 0
 140 008e 0919     		adds	r1, r1, r4
 141 0090 097A     		ldrb	r1, [r1, #8]
 142 0092 0B43     		orrs	r3, r1
 143              	.LVL8:
 237:Generated_Source\PSoC4/ADCInput.c ****         #endif /* End ADCInput_TOTAL_CHANNELS_NUM > 1u */
 238:Generated_Source\PSoC4/ADCInput.c ****         
 239:Generated_Source\PSoC4/ADCInput.c ****         
 240:Generated_Source\PSoC4/ADCInput.c ****         /* When the part is limited to 10-bit then the SUB_RESOLUTION bit
 241:Generated_Source\PSoC4/ADCInput.c ****         *  will be ignored and the RESOLUTION bit selects between 10-bit
 242:Generated_Source\PSoC4/ADCInput.c ****         *  (0) and 8-bit (1) resolution.
 243:Generated_Source\PSoC4/ADCInput.c ****         */
 244:Generated_Source\PSoC4/ADCInput.c ****         #if((ADCInput_MAX_RESOLUTION != ADCInput_RESOLUTION_12) && \
 245:Generated_Source\PSoC4/ADCInput.c ****             (ADCInput_ALT_WOUNDING == ADCInput_WOUNDING_10BIT))
 246:Generated_Source\PSoC4/ADCInput.c ****             tmpRegVal &= (uint32)(~ADCInput_ALT_RESOLUTION_ON);
 247:Generated_Source\PSoC4/ADCInput.c ****         #endif /* ADCInput_MAX_RESOLUTION != ADCInput_RESOLUTION_12 */
 248:Generated_Source\PSoC4/ADCInput.c **** 
 249:Generated_Source\PSoC4/ADCInput.c ****         #if(ADCInput_INJ_CHANNEL_ENABLED)
 250:Generated_Source\PSoC4/ADCInput.c ****         if(chNum < ADCInput_SEQUENCED_CHANNELS_NUM)
 251:Generated_Source\PSoC4/ADCInput.c ****         #endif /* ADCInput_INJ_CHANNEL_ENABLED */
 252:Generated_Source\PSoC4/ADCInput.c ****         {
 253:Generated_Source\PSoC4/ADCInput.c ****             CY_SET_REG32((reg32 *)(ADCInput_SAR_CHAN_CONFIG_IND + (uint32)(chNum << 2)), tmpRegVal)
 144              		.loc 1 253 0
ARM GAS  C:\Users\quint\AppData\Local\Temp\ccHDjPtC.s 			page 8


 145 0094 3649     		ldr	r1, .L12+92
 146 0096 8C46     		mov	ip, r1
 147 0098 6244     		add	r2, r2, ip
 148 009a 1360     		str	r3, [r2]
 254:Generated_Source\PSoC4/ADCInput.c **** 
 255:Generated_Source\PSoC4/ADCInput.c ****             if((ADCInput_channelsConfig[chNum] & ADCInput_IS_SATURATE_EN_MASK) != 0u)
 149              		.loc 1 255 0
 150 009c C307     		lsls	r3, r0, #31
 151 009e 07D5     		bpl	.L4
 152              	.LVL9:
 256:Generated_Source\PSoC4/ADCInput.c ****             {
 257:Generated_Source\PSoC4/ADCInput.c ****                 ADCInput_SAR_SATURATE_INTR_MASK_REG |= (uint16)((uint16)1 << chNum);
 153              		.loc 1 257 0
 154 00a0 2C49     		ldr	r1, .L12+64
 155 00a2 0A68     		ldr	r2, [r1]
 156              	.LVL10:
 157 00a4 0123     		movs	r3, #1
 158 00a6 A340     		lsls	r3, r3, r4
 159 00a8 1B04     		lsls	r3, r3, #16
 160 00aa 1B0C     		lsrs	r3, r3, #16
 161 00ac 1343     		orrs	r3, r2
 162 00ae 0B60     		str	r3, [r1]
 163              	.LVL11:
 164              	.L4:
 258:Generated_Source\PSoC4/ADCInput.c ****             }
 259:Generated_Source\PSoC4/ADCInput.c **** 
 260:Generated_Source\PSoC4/ADCInput.c ****             if((ADCInput_channelsConfig[chNum] & ADCInput_IS_RANGE_CTRL_EN_MASK) != 0u)
 165              		.loc 1 260 0
 166 00b0 A300     		lsls	r3, r4, #2
 167 00b2 2E4A     		ldr	r2, .L12+88
 168              	.LVL12:
 169 00b4 9B58     		ldr	r3, [r3, r2]
 170 00b6 9B07     		lsls	r3, r3, #30
 171 00b8 07D5     		bpl	.L5
 261:Generated_Source\PSoC4/ADCInput.c ****             {
 262:Generated_Source\PSoC4/ADCInput.c ****                 ADCInput_SAR_RANGE_INTR_MASK_REG |= (uint16)((uint16)1 << chNum);
 172              		.loc 1 262 0
 173 00ba 2749     		ldr	r1, .L12+68
 174 00bc 0A68     		ldr	r2, [r1]
 175              	.LVL13:
 176 00be 0123     		movs	r3, #1
 177 00c0 A340     		lsls	r3, r3, r4
 178 00c2 1B04     		lsls	r3, r3, #16
 179 00c4 1B0C     		lsrs	r3, r3, #16
 180 00c6 1343     		orrs	r3, r2
 181 00c8 0B60     		str	r3, [r1]
 182              	.L5:
 263:Generated_Source\PSoC4/ADCInput.c ****             }
 264:Generated_Source\PSoC4/ADCInput.c ****         }
 265:Generated_Source\PSoC4/ADCInput.c ****         #if(ADCInput_INJ_CHANNEL_ENABLED)
 266:Generated_Source\PSoC4/ADCInput.c ****             else
 267:Generated_Source\PSoC4/ADCInput.c ****             {
 268:Generated_Source\PSoC4/ADCInput.c ****                 CY_SET_REG32(ADCInput_SAR_INJ_CHAN_CONFIG_PTR, tmpRegVal | ADCInput_INJ_TAILGATING)
 269:Generated_Source\PSoC4/ADCInput.c **** 
 270:Generated_Source\PSoC4/ADCInput.c ****                 if((ADCInput_channelsConfig[chNum] & ADCInput_IS_SATURATE_EN_MASK) != 0u)
 271:Generated_Source\PSoC4/ADCInput.c ****                 {
 272:Generated_Source\PSoC4/ADCInput.c ****                     ADCInput_SAR_INTR_MASK_REG |= ADCInput_INJ_SATURATE_MASK;
ARM GAS  C:\Users\quint\AppData\Local\Temp\ccHDjPtC.s 			page 9


 273:Generated_Source\PSoC4/ADCInput.c ****                 }
 274:Generated_Source\PSoC4/ADCInput.c **** 
 275:Generated_Source\PSoC4/ADCInput.c ****                 if((ADCInput_channelsConfig[chNum] & ADCInput_IS_RANGE_CTRL_EN_MASK) != 0u)
 276:Generated_Source\PSoC4/ADCInput.c ****                 {
 277:Generated_Source\PSoC4/ADCInput.c ****                     ADCInput_SAR_INTR_MASK_REG |= ADCInput_INJ_RANGE_MASK;
 278:Generated_Source\PSoC4/ADCInput.c ****                 }
 279:Generated_Source\PSoC4/ADCInput.c ****             }
 280:Generated_Source\PSoC4/ADCInput.c ****         #endif /* ADCInput_INJ_CHANNEL_ENABLED */
 281:Generated_Source\PSoC4/ADCInput.c **** 
 282:Generated_Source\PSoC4/ADCInput.c ****         if((ADCInput_channelsConfig[chNum] & ADCInput_ALT_RESOLUTION_ON) != 0u)
 183              		.loc 1 282 0
 184 00ca A300     		lsls	r3, r4, #2
 185 00cc 274A     		ldr	r2, .L12+88
 186              	.LVL14:
 187 00ce 9B58     		ldr	r3, [r3, r2]
 188 00d0 9A05     		lsls	r2, r3, #22
 189 00d2 02D5     		bpl	.L11
 190              	.LVL15:
 283:Generated_Source\PSoC4/ADCInput.c ****         {
 284:Generated_Source\PSoC4/ADCInput.c ****                counts = (int32)ADCInput_DEFAULT_MAX_WRK_ALT;
 191              		.loc 1 284 0
 192 00d4 8020     		movs	r0, #128
 193              	.LVL16:
 194 00d6 4000     		lsls	r0, r0, #1
 195 00d8 01E0     		b	.L6
 196              	.LVL17:
 197              	.L11:
 285:Generated_Source\PSoC4/ADCInput.c ****         }
 286:Generated_Source\PSoC4/ADCInput.c ****         else
 287:Generated_Source\PSoC4/ADCInput.c ****         {
 288:Generated_Source\PSoC4/ADCInput.c ****                counts = (int32)ADCInput_SAR_WRK_MAX_12BIT;
 198              		.loc 1 288 0
 199 00da 8020     		movs	r0, #128
 200              	.LVL18:
 201 00dc 4001     		lsls	r0, r0, #5
 202              	.L6:
 203              	.LVL19:
 289:Generated_Source\PSoC4/ADCInput.c ****         }
 290:Generated_Source\PSoC4/ADCInput.c **** 
 291:Generated_Source\PSoC4/ADCInput.c ****         if((ADCInput_channelsConfig[chNum] & ADCInput_DIFFERENTIAL_EN) == 0u)
 204              		.loc 1 291 0
 205 00de DB05     		lsls	r3, r3, #23
 206 00e0 04D4     		bmi	.L7
 292:Generated_Source\PSoC4/ADCInput.c ****         {
 293:Generated_Source\PSoC4/ADCInput.c ****             #if((ADCInput_DEFAULT_SE_RESULT_FORMAT_SEL == ADCInput__FSIGNED) && \
 294:Generated_Source\PSoC4/ADCInput.c ****                 (ADCInput_DEFAULT_NEG_INPUT_SEL == ADCInput__VREF))
 295:Generated_Source\PSoC4/ADCInput.c ****                 /* Set offset to the minus half scale to convert results to unsigned format */
 296:Generated_Source\PSoC4/ADCInput.c ****                 ADCInput_offset[chNum] = (int16)(counts / -2);
 297:Generated_Source\PSoC4/ADCInput.c ****             #else
 298:Generated_Source\PSoC4/ADCInput.c ****                 ADCInput_offset[chNum] = 0;
 207              		.loc 1 298 0
 208 00e2 6300     		lsls	r3, r4, #1
 209 00e4 0021     		movs	r1, #0
 210 00e6 234A     		ldr	r2, .L12+96
 211 00e8 9952     		strh	r1, [r3, r2]
 212 00ea 03E0     		b	.L8
 213              	.L7:
ARM GAS  C:\Users\quint\AppData\Local\Temp\ccHDjPtC.s 			page 10


 299:Generated_Source\PSoC4/ADCInput.c ****             #endif /* end DEFAULT_SE_RESULT_FORMAT_SEL == ADCInput__FSIGNED */
 300:Generated_Source\PSoC4/ADCInput.c ****         }
 301:Generated_Source\PSoC4/ADCInput.c ****         else    /* Differential channel */
 302:Generated_Source\PSoC4/ADCInput.c ****         {
 303:Generated_Source\PSoC4/ADCInput.c ****             #if(ADCInput_DEFAULT_DIFF_RESULT_FORMAT_SEL == ADCInput__FUNSIGNED)
 304:Generated_Source\PSoC4/ADCInput.c ****                 /* Set offset to the half scale to convert results to signed format */
 305:Generated_Source\PSoC4/ADCInput.c ****                 ADCInput_offset[chNum] = (int16)(counts / 2);
 306:Generated_Source\PSoC4/ADCInput.c ****             #else
 307:Generated_Source\PSoC4/ADCInput.c ****                 ADCInput_offset[chNum] = 0;
 214              		.loc 1 307 0
 215 00ec 6300     		lsls	r3, r4, #1
 216 00ee 0021     		movs	r1, #0
 217 00f0 204A     		ldr	r2, .L12+96
 218 00f2 9952     		strh	r1, [r3, r2]
 219              	.L8:
 308:Generated_Source\PSoC4/ADCInput.c ****             #endif /* end ADCInput_DEFAULT_DIFF_RESULT_FORMAT_SEL == ADCInput__FUNSIGNED */
 309:Generated_Source\PSoC4/ADCInput.c ****         }
 310:Generated_Source\PSoC4/ADCInput.c ****         /* Calculate gain in counts per 10 volts with rounding */
 311:Generated_Source\PSoC4/ADCInput.c ****         ADCInput_countsPer10Volt[chNum] = (int16)(((counts * ADCInput_10MV_COUNTS) +
 220              		.loc 1 311 0 discriminator 2
 221 00f4 204B     		ldr	r3, .L12+100
 222 00f6 5843     		muls	r0, r3
 223              	.LVL20:
 224 00f8 204B     		ldr	r3, .L12+104
 225 00fa 9C46     		mov	ip, r3
 226 00fc 6044     		add	r0, r0, ip
 312:Generated_Source\PSoC4/ADCInput.c ****                             ADCInput_DEFAULT_VREF_MV_VALUE) / (ADCInput_DEFAULT_VREF_MV_VALUE * 2))
 227              		.loc 1 312 0 discriminator 2
 228 00fe 2049     		ldr	r1, .L12+108
 229 0100 FFF7FEFF 		bl	__aeabi_idiv
 230              	.LVL21:
 311:Generated_Source\PSoC4/ADCInput.c ****                             ADCInput_DEFAULT_VREF_MV_VALUE) / (ADCInput_DEFAULT_VREF_MV_VALUE * 2))
 231              		.loc 1 311 0 discriminator 2
 232 0104 00B2     		sxth	r0, r0
 233 0106 A200     		lsls	r2, r4, #2
 234 0108 1E4B     		ldr	r3, .L12+112
 235 010a D050     		str	r0, [r2, r3]
 232:Generated_Source\PSoC4/ADCInput.c ****     {
 236              		.loc 1 232 0 discriminator 2
 237 010c 0134     		adds	r4, r4, #1
 238              	.LVL22:
 239              	.L3:
 232:Generated_Source\PSoC4/ADCInput.c ****     {
 240              		.loc 1 232 0 is_stmt 0 discriminator 1
 241 010e 012C     		cmp	r4, #1
 242 0110 B7D9     		bls	.L9
 313:Generated_Source\PSoC4/ADCInput.c ****     }
 314:Generated_Source\PSoC4/ADCInput.c **** }
 243              		.loc 1 314 0 is_stmt 1
 244              		@ sp needed
 245              	.LVL23:
 246 0112 10BD     		pop	{r4, pc}
 247              	.L13:
 248              		.align	2
 249              	.L12:
 250 0114 00000000 		.word	ADCInput_ISR
 251 0118 20001A40 		.word	1075445792
ARM GAS  C:\Users\quint\AppData\Local\Temp\ccHDjPtC.s 			page 11


 252 011c 80031A40 		.word	1075446656
 253 0120 70201010 		.word	269492336
 254 0124 70200010 		.word	268443760
 255 0128 00001A40 		.word	1075445760
 256 012c 8C000080 		.word	-2147483508
 257 0130 04001A40 		.word	1075445764
 258 0134 0000FF07 		.word	134152192
 259 0138 18001A40 		.word	1075445784
 260 013c 1C001A40 		.word	1075445788
 261 0140 04000400 		.word	262148
 262 0144 10001A40 		.word	1075445776
 263 0148 14001A40 		.word	1075445780
 264 014c 00031A40 		.word	1075446528
 265 0150 40031A40 		.word	1075446592
 266 0154 28021A40 		.word	1075446312
 267 0158 38021A40 		.word	1075446328
 268 015c 18021A40 		.word	1075446296
 269 0160 000F1A40 		.word	1075449600
 270 0164 30001A40 		.word	1075445808
 271 0168 FFFFFFDF 		.word	-536870913
 272 016c 00000000 		.word	.LANCHOR0
 273 0170 80001A40 		.word	1075445888
 274 0174 00000000 		.word	ADCInput_offset
 275 0178 10270000 		.word	10000
 276 017c E40C0000 		.word	3300
 277 0180 C8190000 		.word	6600
 278 0184 00000000 		.word	ADCInput_countsPer10Volt
 279              		.cfi_endproc
 280              	.LFE1:
 281              		.size	ADCInput_Init, .-ADCInput_Init
 282              		.section	.text.ADCInput_Enable,"ax",%progbits
 283              		.align	2
 284              		.global	ADCInput_Enable
 285              		.code	16
 286              		.thumb_func
 287              		.type	ADCInput_Enable, %function
 288              	ADCInput_Enable:
 289              	.LFB2:
 315:Generated_Source\PSoC4/ADCInput.c **** 
 316:Generated_Source\PSoC4/ADCInput.c **** /*******************************************************************************
 317:Generated_Source\PSoC4/ADCInput.c **** * Function Name: ADC_SAR_1_Enable
 318:Generated_Source\PSoC4/ADCInput.c **** ********************************************************************************
 319:Generated_Source\PSoC4/ADCInput.c **** *
 320:Generated_Source\PSoC4/ADCInput.c **** * Summary:
 321:Generated_Source\PSoC4/ADCInput.c **** *  Enables the clock and analog power for SAR ADC.
 322:Generated_Source\PSoC4/ADCInput.c **** *
 323:Generated_Source\PSoC4/ADCInput.c **** * Parameters:
 324:Generated_Source\PSoC4/ADCInput.c **** *  None.
 325:Generated_Source\PSoC4/ADCInput.c **** *
 326:Generated_Source\PSoC4/ADCInput.c **** * Return:
 327:Generated_Source\PSoC4/ADCInput.c **** *  None.
 328:Generated_Source\PSoC4/ADCInput.c **** *
 329:Generated_Source\PSoC4/ADCInput.c **** *******************************************************************************/
 330:Generated_Source\PSoC4/ADCInput.c **** void ADCInput_Enable(void)
 331:Generated_Source\PSoC4/ADCInput.c **** {
 290              		.loc 1 331 0
 291              		.cfi_startproc
ARM GAS  C:\Users\quint\AppData\Local\Temp\ccHDjPtC.s 			page 12


 292              		@ args = 0, pretend = 0, frame = 0
 293              		@ frame_needed = 0, uses_anonymous_args = 0
 294 0000 10B5     		push	{r4, lr}
 295              		.cfi_def_cfa_offset 8
 296              		.cfi_offset 4, -8
 297              		.cfi_offset 14, -4
 332:Generated_Source\PSoC4/ADCInput.c ****     if (0u == (ADCInput_SAR_CTRL_REG & ADCInput_ENABLE))
 298              		.loc 1 332 0
 299 0002 074B     		ldr	r3, .L16
 300 0004 1B68     		ldr	r3, [r3]
 301 0006 002B     		cmp	r3, #0
 302 0008 08DB     		blt	.L14
 333:Generated_Source\PSoC4/ADCInput.c ****     {
 334:Generated_Source\PSoC4/ADCInput.c ****         #if(ADCInput_CY_SAR_IP_VER != ADCInput_CY_SAR_IP_VER0)
 335:Generated_Source\PSoC4/ADCInput.c **** 
 336:Generated_Source\PSoC4/ADCInput.c ****             while (0u != (ADCInput_SAR_STATUS_REG & ADCInput_STATUS_BUSY))
 337:Generated_Source\PSoC4/ADCInput.c ****             {
 338:Generated_Source\PSoC4/ADCInput.c ****                 /* wait for SAR to go idle to avoid deadlock */
 339:Generated_Source\PSoC4/ADCInput.c ****             }
 340:Generated_Source\PSoC4/ADCInput.c ****         #endif /* (ADCInput_CY_SAR_IP_VER != ADCInput_CY_SAR_IP_VER0) */
 341:Generated_Source\PSoC4/ADCInput.c ****         
 342:Generated_Source\PSoC4/ADCInput.c ****         ADCInput_SAR_CTRL_REG |= ADCInput_ENABLE;
 303              		.loc 1 342 0
 304 000a 054A     		ldr	r2, .L16
 305 000c 1368     		ldr	r3, [r2]
 306 000e 8021     		movs	r1, #128
 307 0010 0906     		lsls	r1, r1, #24
 308 0012 0B43     		orrs	r3, r1
 309 0014 1360     		str	r3, [r2]
 343:Generated_Source\PSoC4/ADCInput.c ****         
 344:Generated_Source\PSoC4/ADCInput.c ****         /* The block is ready to use 10 us after the enable signal is set high. */
 345:Generated_Source\PSoC4/ADCInput.c ****         CyDelayUs(ADCInput_10US_DELAY);         
 310              		.loc 1 345 0
 311 0016 0A20     		movs	r0, #10
 312 0018 FFF7FEFF 		bl	CyDelayUs
 313              	.LVL24:
 314              	.L14:
 346:Generated_Source\PSoC4/ADCInput.c ****     }
 347:Generated_Source\PSoC4/ADCInput.c **** }
 315              		.loc 1 347 0
 316              		@ sp needed
 317 001c 10BD     		pop	{r4, pc}
 318              	.L17:
 319 001e C046     		.align	2
 320              	.L16:
 321 0020 00001A40 		.word	1075445760
 322              		.cfi_endproc
 323              	.LFE2:
 324              		.size	ADCInput_Enable, .-ADCInput_Enable
 325              		.section	.text.ADCInput_Start,"ax",%progbits
 326              		.align	2
 327              		.global	ADCInput_Start
 328              		.code	16
 329              		.thumb_func
 330              		.type	ADCInput_Start, %function
 331              	ADCInput_Start:
 332              	.LFB0:
ARM GAS  C:\Users\quint\AppData\Local\Temp\ccHDjPtC.s 			page 13


  64:Generated_Source\PSoC4/ADCInput.c ****     /* If not Initialized then initialize all required hardware and software */
 333              		.loc 1 64 0
 334              		.cfi_startproc
 335              		@ args = 0, pretend = 0, frame = 0
 336              		@ frame_needed = 0, uses_anonymous_args = 0
 337 0000 10B5     		push	{r4, lr}
 338              		.cfi_def_cfa_offset 8
 339              		.cfi_offset 4, -8
 340              		.cfi_offset 14, -4
  66:Generated_Source\PSoC4/ADCInput.c ****     {
 341              		.loc 1 66 0
 342 0002 064B     		ldr	r3, .L20
 343 0004 1B78     		ldrb	r3, [r3]
 344 0006 002B     		cmp	r3, #0
 345 0008 04D1     		bne	.L19
  68:Generated_Source\PSoC4/ADCInput.c ****         ADCInput_initVar = 1u;
 346              		.loc 1 68 0
 347 000a FFF7FEFF 		bl	ADCInput_Init
 348              	.LVL25:
  69:Generated_Source\PSoC4/ADCInput.c ****     }
 349              		.loc 1 69 0
 350 000e 0122     		movs	r2, #1
 351 0010 024B     		ldr	r3, .L20
 352 0012 1A70     		strb	r2, [r3]
 353              	.L19:
  71:Generated_Source\PSoC4/ADCInput.c **** }
 354              		.loc 1 71 0
 355 0014 FFF7FEFF 		bl	ADCInput_Enable
 356              	.LVL26:
  72:Generated_Source\PSoC4/ADCInput.c **** 
 357              		.loc 1 72 0
 358              		@ sp needed
 359 0018 10BD     		pop	{r4, pc}
 360              	.L21:
 361 001a C046     		.align	2
 362              	.L20:
 363 001c 00000000 		.word	.LANCHOR1
 364              		.cfi_endproc
 365              	.LFE0:
 366              		.size	ADCInput_Start, .-ADCInput_Start
 367              		.section	.text.ADCInput_Stop,"ax",%progbits
 368              		.align	2
 369              		.global	ADCInput_Stop
 370              		.code	16
 371              		.thumb_func
 372              		.type	ADCInput_Stop, %function
 373              	ADCInput_Stop:
 374              	.LFB3:
 348:Generated_Source\PSoC4/ADCInput.c **** 
 349:Generated_Source\PSoC4/ADCInput.c **** 
 350:Generated_Source\PSoC4/ADCInput.c **** /*******************************************************************************
 351:Generated_Source\PSoC4/ADCInput.c **** * Function Name: ADCInput_Stop
 352:Generated_Source\PSoC4/ADCInput.c **** ********************************************************************************
 353:Generated_Source\PSoC4/ADCInput.c **** *
 354:Generated_Source\PSoC4/ADCInput.c **** * Summary:
 355:Generated_Source\PSoC4/ADCInput.c **** *  This function stops ADC conversions and puts the ADC into its lowest power
 356:Generated_Source\PSoC4/ADCInput.c **** *  mode.
ARM GAS  C:\Users\quint\AppData\Local\Temp\ccHDjPtC.s 			page 14


 357:Generated_Source\PSoC4/ADCInput.c **** *
 358:Generated_Source\PSoC4/ADCInput.c **** * Parameters:
 359:Generated_Source\PSoC4/ADCInput.c **** *  None.
 360:Generated_Source\PSoC4/ADCInput.c **** *
 361:Generated_Source\PSoC4/ADCInput.c **** * Return:
 362:Generated_Source\PSoC4/ADCInput.c **** *  None.
 363:Generated_Source\PSoC4/ADCInput.c **** *
 364:Generated_Source\PSoC4/ADCInput.c **** *******************************************************************************/
 365:Generated_Source\PSoC4/ADCInput.c **** void ADCInput_Stop(void)
 366:Generated_Source\PSoC4/ADCInput.c **** {
 375              		.loc 1 366 0
 376              		.cfi_startproc
 377              		@ args = 0, pretend = 0, frame = 0
 378              		@ frame_needed = 0, uses_anonymous_args = 0
 379              		@ link register save eliminated.
 367:Generated_Source\PSoC4/ADCInput.c ****     ADCInput_SAR_CTRL_REG &= (uint32)~ADCInput_ENABLE;
 380              		.loc 1 367 0
 381 0000 024A     		ldr	r2, .L23
 382 0002 1368     		ldr	r3, [r2]
 383 0004 5B00     		lsls	r3, r3, #1
 384 0006 5B08     		lsrs	r3, r3, #1
 385 0008 1360     		str	r3, [r2]
 368:Generated_Source\PSoC4/ADCInput.c **** }
 386              		.loc 1 368 0
 387              		@ sp needed
 388 000a 7047     		bx	lr
 389              	.L24:
 390              		.align	2
 391              	.L23:
 392 000c 00001A40 		.word	1075445760
 393              		.cfi_endproc
 394              	.LFE3:
 395              		.size	ADCInput_Stop, .-ADCInput_Stop
 396              		.section	.text.ADCInput_StartConvert,"ax",%progbits
 397              		.align	2
 398              		.global	ADCInput_StartConvert
 399              		.code	16
 400              		.thumb_func
 401              		.type	ADCInput_StartConvert, %function
 402              	ADCInput_StartConvert:
 403              	.LFB4:
 369:Generated_Source\PSoC4/ADCInput.c **** 
 370:Generated_Source\PSoC4/ADCInput.c **** 
 371:Generated_Source\PSoC4/ADCInput.c **** /*******************************************************************************
 372:Generated_Source\PSoC4/ADCInput.c **** * Function Name: ADCInput_StartConvert
 373:Generated_Source\PSoC4/ADCInput.c **** ********************************************************************************
 374:Generated_Source\PSoC4/ADCInput.c **** *
 375:Generated_Source\PSoC4/ADCInput.c **** * Summary:
 376:Generated_Source\PSoC4/ADCInput.c **** *  Description:
 377:Generated_Source\PSoC4/ADCInput.c **** *  For free running mode, this API starts the conversion process and it
 378:Generated_Source\PSoC4/ADCInput.c **** *  runs continuously.
 379:Generated_Source\PSoC4/ADCInput.c **** *
 380:Generated_Source\PSoC4/ADCInput.c **** *  In a triggered mode, this routine triggers every conversion by
 381:Generated_Source\PSoC4/ADCInput.c **** *  writing into the FW_TRIGGER bit in SAR_START_CTRL reg. In triggered mode,
 382:Generated_Source\PSoC4/ADCInput.c **** *  every conversion has to start by this API.
 383:Generated_Source\PSoC4/ADCInput.c **** *
 384:Generated_Source\PSoC4/ADCInput.c **** * Parameters:
ARM GAS  C:\Users\quint\AppData\Local\Temp\ccHDjPtC.s 			page 15


 385:Generated_Source\PSoC4/ADCInput.c **** *  None.
 386:Generated_Source\PSoC4/ADCInput.c **** *
 387:Generated_Source\PSoC4/ADCInput.c **** * Return:
 388:Generated_Source\PSoC4/ADCInput.c **** *  None.
 389:Generated_Source\PSoC4/ADCInput.c **** *
 390:Generated_Source\PSoC4/ADCInput.c **** *******************************************************************************/
 391:Generated_Source\PSoC4/ADCInput.c **** void ADCInput_StartConvert(void)
 392:Generated_Source\PSoC4/ADCInput.c **** {
 404              		.loc 1 392 0
 405              		.cfi_startproc
 406              		@ args = 0, pretend = 0, frame = 0
 407              		@ frame_needed = 0, uses_anonymous_args = 0
 408              		@ link register save eliminated.
 393:Generated_Source\PSoC4/ADCInput.c ****     #if(ADCInput_DEFAULT_SAMPLE_MODE_SEL == ADCInput__FREERUNNING)
 394:Generated_Source\PSoC4/ADCInput.c ****         ADCInput_SAR_SAMPLE_CTRL_REG |= ADCInput_CONTINUOUS_EN;
 409              		.loc 1 394 0
 410 0000 034A     		ldr	r2, .L26
 411 0002 1368     		ldr	r3, [r2]
 412 0004 8021     		movs	r1, #128
 413 0006 4902     		lsls	r1, r1, #9
 414 0008 0B43     		orrs	r3, r1
 415 000a 1360     		str	r3, [r2]
 395:Generated_Source\PSoC4/ADCInput.c ****     #else /* Firmware trigger */
 396:Generated_Source\PSoC4/ADCInput.c ****         ADCInput_SAR_START_CTRL_REG = ADCInput_FW_TRIGGER;
 397:Generated_Source\PSoC4/ADCInput.c ****     #endif /* End ADCInput_DEFAULT_SAMPLE_MODE == ADCInput__FREERUNNING */
 398:Generated_Source\PSoC4/ADCInput.c **** 
 399:Generated_Source\PSoC4/ADCInput.c **** }
 416              		.loc 1 399 0
 417              		@ sp needed
 418 000c 7047     		bx	lr
 419              	.L27:
 420 000e C046     		.align	2
 421              	.L26:
 422 0010 04001A40 		.word	1075445764
 423              		.cfi_endproc
 424              	.LFE4:
 425              		.size	ADCInput_StartConvert, .-ADCInput_StartConvert
 426              		.section	.text.ADCInput_StopConvert,"ax",%progbits
 427              		.align	2
 428              		.global	ADCInput_StopConvert
 429              		.code	16
 430              		.thumb_func
 431              		.type	ADCInput_StopConvert, %function
 432              	ADCInput_StopConvert:
 433              	.LFB5:
 400:Generated_Source\PSoC4/ADCInput.c **** 
 401:Generated_Source\PSoC4/ADCInput.c **** 
 402:Generated_Source\PSoC4/ADCInput.c **** /*******************************************************************************
 403:Generated_Source\PSoC4/ADCInput.c **** * Function Name: ADCInput_StopConvert
 404:Generated_Source\PSoC4/ADCInput.c **** ********************************************************************************
 405:Generated_Source\PSoC4/ADCInput.c **** *
 406:Generated_Source\PSoC4/ADCInput.c **** * Summary:
 407:Generated_Source\PSoC4/ADCInput.c **** *  Forces the ADC to stop all conversions.
 408:Generated_Source\PSoC4/ADCInput.c **** *
 409:Generated_Source\PSoC4/ADCInput.c **** * Parameters:
 410:Generated_Source\PSoC4/ADCInput.c **** *  None.
 411:Generated_Source\PSoC4/ADCInput.c **** *
ARM GAS  C:\Users\quint\AppData\Local\Temp\ccHDjPtC.s 			page 16


 412:Generated_Source\PSoC4/ADCInput.c **** * Return:
 413:Generated_Source\PSoC4/ADCInput.c **** *  None.
 414:Generated_Source\PSoC4/ADCInput.c **** *
 415:Generated_Source\PSoC4/ADCInput.c **** *******************************************************************************/
 416:Generated_Source\PSoC4/ADCInput.c **** void ADCInput_StopConvert(void)
 417:Generated_Source\PSoC4/ADCInput.c **** {
 434              		.loc 1 417 0
 435              		.cfi_startproc
 436              		@ args = 0, pretend = 0, frame = 0
 437              		@ frame_needed = 0, uses_anonymous_args = 0
 438              		@ link register save eliminated.
 418:Generated_Source\PSoC4/ADCInput.c ****     #if(ADCInput_DEFAULT_SAMPLE_MODE_SEL == ADCInput__FREERUNNING)
 419:Generated_Source\PSoC4/ADCInput.c ****         ADCInput_SAR_SAMPLE_CTRL_REG &= (uint32)(~ADCInput_CONTINUOUS_EN);
 439              		.loc 1 419 0
 440 0000 024A     		ldr	r2, .L29
 441 0002 1168     		ldr	r1, [r2]
 442 0004 024B     		ldr	r3, .L29+4
 443 0006 0B40     		ands	r3, r1
 444 0008 1360     		str	r3, [r2]
 420:Generated_Source\PSoC4/ADCInput.c ****     #endif /* ADCInput_DEFAULT_SAMPLE_MODE == ADCInput__FREERUNNING */
 421:Generated_Source\PSoC4/ADCInput.c **** }
 445              		.loc 1 421 0
 446              		@ sp needed
 447 000a 7047     		bx	lr
 448              	.L30:
 449              		.align	2
 450              	.L29:
 451 000c 04001A40 		.word	1075445764
 452 0010 FFFFFEFF 		.word	-65537
 453              		.cfi_endproc
 454              	.LFE5:
 455              		.size	ADCInput_StopConvert, .-ADCInput_StopConvert
 456              		.section	.text.ADCInput_IsEndConversion,"ax",%progbits
 457              		.align	2
 458              		.global	ADCInput_IsEndConversion
 459              		.code	16
 460              		.thumb_func
 461              		.type	ADCInput_IsEndConversion, %function
 462              	ADCInput_IsEndConversion:
 463              	.LFB6:
 422:Generated_Source\PSoC4/ADCInput.c **** 
 423:Generated_Source\PSoC4/ADCInput.c **** 
 424:Generated_Source\PSoC4/ADCInput.c **** /*******************************************************************************
 425:Generated_Source\PSoC4/ADCInput.c **** * Function Name: ADCInput_IsEndConversion
 426:Generated_Source\PSoC4/ADCInput.c **** ********************************************************************************
 427:Generated_Source\PSoC4/ADCInput.c **** *
 428:Generated_Source\PSoC4/ADCInput.c **** * Summary:
 429:Generated_Source\PSoC4/ADCInput.c **** *  Description: Checks for ADC end of conversion for the case one
 430:Generated_Source\PSoC4/ADCInput.c **** *  channel and end of scan for the case of multiple channels. It acts
 431:Generated_Source\PSoC4/ADCInput.c **** *  as a software version of the EOC. This function provides the
 432:Generated_Source\PSoC4/ADCInput.c **** *  programmer with two options. In one mode this function
 433:Generated_Source\PSoC4/ADCInput.c **** *  immediately returns with the conversion status. In the other mode,
 434:Generated_Source\PSoC4/ADCInput.c **** *  the function does not return (blocking) until the conversion has
 435:Generated_Source\PSoC4/ADCInput.c **** *  completed.
 436:Generated_Source\PSoC4/ADCInput.c **** *
 437:Generated_Source\PSoC4/ADCInput.c **** * Parameters:
 438:Generated_Source\PSoC4/ADCInput.c **** *  ADC_RETURN_STATUS        -> Immediately returns conversion result status
ARM GAS  C:\Users\quint\AppData\Local\Temp\ccHDjPtC.s 			page 17


 439:Generated_Source\PSoC4/ADCInput.c **** *  ADC_WAIT_FOR_RESULT      -> Does not return until ADC complete
 440:Generated_Source\PSoC4/ADCInput.c **** *  ADC_RETURN_STATUS_INJ    -> Immediately returns conversion result status
 441:Generated_Source\PSoC4/ADCInput.c **** *                              for injection channel
 442:Generated_Source\PSoC4/ADCInput.c **** *  ADC_WAIT_FOR_RESULT_INJ  -> Does not return until ADC completes injection
 443:Generated_Source\PSoC4/ADCInput.c **** *                              channel conversion
 444:Generated_Source\PSoC4/ADCInput.c **** *
 445:Generated_Source\PSoC4/ADCInput.c **** * Return:
 446:Generated_Source\PSoC4/ADCInput.c **** *  If a non-zero value is returned, the last conversion or scan has completed.
 447:Generated_Source\PSoC4/ADCInput.c **** *  If the returned value is zero, the ADC is still in the process of a scan.
 448:Generated_Source\PSoC4/ADCInput.c **** *
 449:Generated_Source\PSoC4/ADCInput.c **** *******************************************************************************/
 450:Generated_Source\PSoC4/ADCInput.c **** uint32 ADCInput_IsEndConversion(uint32 retMode)
 451:Generated_Source\PSoC4/ADCInput.c **** {
 464              		.loc 1 451 0
 465              		.cfi_startproc
 466              		@ args = 0, pretend = 0, frame = 0
 467              		@ frame_needed = 0, uses_anonymous_args = 0
 468              		@ link register save eliminated.
 469              	.LVL27:
 470 0000 0200     		movs	r2, r0
 471              	.LVL28:
 452:Generated_Source\PSoC4/ADCInput.c ****     uint32 status = 0u;
 453:Generated_Source\PSoC4/ADCInput.c **** 
 454:Generated_Source\PSoC4/ADCInput.c ****     if((retMode & (ADCInput_RETURN_STATUS | ADCInput_WAIT_FOR_RESULT)) != 0u)
 472              		.loc 1 454 0
 473 0002 8307     		lsls	r3, r0, #30
 474 0004 0CD0     		beq	.L35
 475              	.LVL29:
 476              	.L34:
 455:Generated_Source\PSoC4/ADCInput.c ****     {
 456:Generated_Source\PSoC4/ADCInput.c ****         do
 457:Generated_Source\PSoC4/ADCInput.c ****         {
 458:Generated_Source\PSoC4/ADCInput.c ****             status = ADCInput_SAR_INTR_REG & ADCInput_EOS_MASK;
 477              		.loc 1 458 0 discriminator 2
 478 0006 074B     		ldr	r3, .L36
 479 0008 1B68     		ldr	r3, [r3]
 480 000a 0120     		movs	r0, #1
 481 000c 1840     		ands	r0, r3
 482              	.LVL30:
 459:Generated_Source\PSoC4/ADCInput.c ****         }while((status == 0u) && ((retMode & ADCInput_WAIT_FOR_RESULT) != 0u));
 483              		.loc 1 459 0 discriminator 2
 484 000e 01D1     		bne	.L33
 485              		.loc 1 459 0 is_stmt 0 discriminator 1
 486 0010 9307     		lsls	r3, r2, #30
 487 0012 F8D4     		bmi	.L34
 488              	.L33:
 460:Generated_Source\PSoC4/ADCInput.c **** 
 461:Generated_Source\PSoC4/ADCInput.c ****         if(status != 0u)
 489              		.loc 1 461 0 is_stmt 1
 490 0014 0028     		cmp	r0, #0
 491 0016 04D0     		beq	.L32
 462:Generated_Source\PSoC4/ADCInput.c ****         {
 463:Generated_Source\PSoC4/ADCInput.c ****             /* Clear EOS bit */
 464:Generated_Source\PSoC4/ADCInput.c ****             ADCInput_SAR_INTR_REG = ADCInput_EOS_MASK;
 492              		.loc 1 464 0
 493 0018 0122     		movs	r2, #1
 494              	.LVL31:
ARM GAS  C:\Users\quint\AppData\Local\Temp\ccHDjPtC.s 			page 18


 495 001a 024B     		ldr	r3, .L36
 496 001c 1A60     		str	r2, [r3]
 497 001e 00E0     		b	.L32
 498              	.LVL32:
 499              	.L35:
 452:Generated_Source\PSoC4/ADCInput.c **** 
 500              		.loc 1 452 0
 501 0020 0020     		movs	r0, #0
 502              	.LVL33:
 503              	.L32:
 465:Generated_Source\PSoC4/ADCInput.c ****         }
 466:Generated_Source\PSoC4/ADCInput.c ****     }
 467:Generated_Source\PSoC4/ADCInput.c **** 
 468:Generated_Source\PSoC4/ADCInput.c ****     #if(ADCInput_INJ_CHANNEL_ENABLED)
 469:Generated_Source\PSoC4/ADCInput.c ****         if((retMode & (ADCInput_RETURN_STATUS_INJ | ADCInput_WAIT_FOR_RESULT_INJ)) != 0u)
 470:Generated_Source\PSoC4/ADCInput.c ****         {
 471:Generated_Source\PSoC4/ADCInput.c ****             do
 472:Generated_Source\PSoC4/ADCInput.c ****             {
 473:Generated_Source\PSoC4/ADCInput.c ****                 status |= ADCInput_SAR_INTR_REG & ADCInput_INJ_EOC_MASK;
 474:Generated_Source\PSoC4/ADCInput.c ****             }while(((status & ADCInput_INJ_EOC_MASK) == 0u) &&
 475:Generated_Source\PSoC4/ADCInput.c ****                    ((retMode & ADCInput_WAIT_FOR_RESULT_INJ) != 0u));
 476:Generated_Source\PSoC4/ADCInput.c **** 
 477:Generated_Source\PSoC4/ADCInput.c ****             if((status & ADCInput_INJ_EOC_MASK) != 0u)
 478:Generated_Source\PSoC4/ADCInput.c ****             {
 479:Generated_Source\PSoC4/ADCInput.c ****                 /* Clear Injection EOS bit */
 480:Generated_Source\PSoC4/ADCInput.c ****                 ADCInput_SAR_INTR_REG = ADCInput_INJ_EOC_MASK;
 481:Generated_Source\PSoC4/ADCInput.c ****             }
 482:Generated_Source\PSoC4/ADCInput.c ****         }
 483:Generated_Source\PSoC4/ADCInput.c ****     #endif /* ADCInput_INJ_CHANNEL_ENABLED */
 484:Generated_Source\PSoC4/ADCInput.c **** 
 485:Generated_Source\PSoC4/ADCInput.c ****     return (status);
 486:Generated_Source\PSoC4/ADCInput.c **** }
 504              		.loc 1 486 0
 505              		@ sp needed
 506 0022 7047     		bx	lr
 507              	.L37:
 508              		.align	2
 509              	.L36:
 510 0024 10021A40 		.word	1075446288
 511              		.cfi_endproc
 512              	.LFE6:
 513              		.size	ADCInput_IsEndConversion, .-ADCInput_IsEndConversion
 514              		.section	.text.ADCInput_GetResult16,"ax",%progbits
 515              		.align	2
 516              		.global	ADCInput_GetResult16
 517              		.code	16
 518              		.thumb_func
 519              		.type	ADCInput_GetResult16, %function
 520              	ADCInput_GetResult16:
 521              	.LFB7:
 487:Generated_Source\PSoC4/ADCInput.c **** 
 488:Generated_Source\PSoC4/ADCInput.c **** 
 489:Generated_Source\PSoC4/ADCInput.c **** /*******************************************************************************
 490:Generated_Source\PSoC4/ADCInput.c **** * Function Name: ADCInput_GetResult16
 491:Generated_Source\PSoC4/ADCInput.c **** ********************************************************************************
 492:Generated_Source\PSoC4/ADCInput.c **** *
 493:Generated_Source\PSoC4/ADCInput.c **** * Summary:
ARM GAS  C:\Users\quint\AppData\Local\Temp\ccHDjPtC.s 			page 19


 494:Generated_Source\PSoC4/ADCInput.c **** *  Gets the data available in the SAR DATA register.
 495:Generated_Source\PSoC4/ADCInput.c **** *
 496:Generated_Source\PSoC4/ADCInput.c **** * Parameters:
 497:Generated_Source\PSoC4/ADCInput.c **** *  chan: The ADC channel in which to return the result. The first channel
 498:Generated_Source\PSoC4/ADCInput.c **** *  is 0 and the injection channel if enabled is the number of valid channels.
 499:Generated_Source\PSoC4/ADCInput.c **** *
 500:Generated_Source\PSoC4/ADCInput.c **** * Return:
 501:Generated_Source\PSoC4/ADCInput.c **** *  Returns converted data as a signed 16-bit integer
 502:Generated_Source\PSoC4/ADCInput.c **** *
 503:Generated_Source\PSoC4/ADCInput.c **** *******************************************************************************/
 504:Generated_Source\PSoC4/ADCInput.c **** int16 ADCInput_GetResult16(uint32 chan)
 505:Generated_Source\PSoC4/ADCInput.c **** {
 522              		.loc 1 505 0
 523              		.cfi_startproc
 524              		@ args = 0, pretend = 0, frame = 0
 525              		@ frame_needed = 0, uses_anonymous_args = 0
 526              	.LVL34:
 527 0000 10B5     		push	{r4, lr}
 528              		.cfi_def_cfa_offset 8
 529              		.cfi_offset 4, -8
 530              		.cfi_offset 14, -4
 531 0002 0400     		movs	r4, r0
 506:Generated_Source\PSoC4/ADCInput.c ****     uint32 result;
 507:Generated_Source\PSoC4/ADCInput.c **** 
 508:Generated_Source\PSoC4/ADCInput.c ****     /* Halt CPU in debug mode if channel is out of valid range */
 509:Generated_Source\PSoC4/ADCInput.c ****     CYASSERT(chan < ADCInput_TOTAL_CHANNELS_NUM);
 532              		.loc 1 509 0
 533 0004 0128     		cmp	r0, #1
 534 0006 02D9     		bls	.L39
 535              		.loc 1 509 0 is_stmt 0 discriminator 1
 536 0008 0020     		movs	r0, #0
 537              	.LVL35:
 538 000a FFF7FEFF 		bl	CyHalt
 539              	.LVL36:
 540              	.L39:
 510:Generated_Source\PSoC4/ADCInput.c **** 
 511:Generated_Source\PSoC4/ADCInput.c ****     if(chan < ADCInput_SEQUENCED_CHANNELS_NUM)
 541              		.loc 1 511 0 is_stmt 1
 542 000e 012C     		cmp	r4, #1
 543 0010 07D8     		bhi	.L41
 512:Generated_Source\PSoC4/ADCInput.c ****     {
 513:Generated_Source\PSoC4/ADCInput.c ****         result = CY_GET_REG32((reg32 *)(ADCInput_SAR_CHAN_RESULT_IND + (uint32)(chan << 2u))) &
 544              		.loc 1 513 0
 545 0012 A400     		lsls	r4, r4, #2
 546              	.LVL37:
 547 0014 044B     		ldr	r3, .L42
 548 0016 9C46     		mov	ip, r3
 549 0018 6444     		add	r4, r4, ip
 550 001a 2068     		ldr	r0, [r4]
 551 001c 0004     		lsls	r0, r0, #16
 552 001e 000C     		lsrs	r0, r0, #16
 553              	.LVL38:
 554 0020 00E0     		b	.L40
 555              	.LVL39:
 556              	.L41:
 514:Generated_Source\PSoC4/ADCInput.c ****                 ADCInput_RESULT_MASK;
 515:Generated_Source\PSoC4/ADCInput.c ****     }
ARM GAS  C:\Users\quint\AppData\Local\Temp\ccHDjPtC.s 			page 20


 516:Generated_Source\PSoC4/ADCInput.c ****     else
 517:Generated_Source\PSoC4/ADCInput.c ****     {
 518:Generated_Source\PSoC4/ADCInput.c ****         #if(ADCInput_INJ_CHANNEL_ENABLED)
 519:Generated_Source\PSoC4/ADCInput.c ****             result = ADCInput_SAR_INJ_RESULT_REG & ADCInput_RESULT_MASK;
 520:Generated_Source\PSoC4/ADCInput.c ****         #else
 521:Generated_Source\PSoC4/ADCInput.c ****             result = 0u;
 557              		.loc 1 521 0
 558 0022 0020     		movs	r0, #0
 559              	.LVL40:
 560              	.L40:
 522:Generated_Source\PSoC4/ADCInput.c ****         #endif /* ADCInput_INJ_CHANNEL_ENABLED */
 523:Generated_Source\PSoC4/ADCInput.c ****     }
 524:Generated_Source\PSoC4/ADCInput.c **** 
 525:Generated_Source\PSoC4/ADCInput.c ****     return ( (int16)result );
 561              		.loc 1 525 0
 562 0024 00B2     		sxth	r0, r0
 563              	.LVL41:
 526:Generated_Source\PSoC4/ADCInput.c **** }
 564              		.loc 1 526 0
 565              		@ sp needed
 566 0026 10BD     		pop	{r4, pc}
 567              	.L43:
 568              		.align	2
 569              	.L42:
 570 0028 80011A40 		.word	1075446144
 571              		.cfi_endproc
 572              	.LFE7:
 573              		.size	ADCInput_GetResult16, .-ADCInput_GetResult16
 574              		.section	.text.ADCInput_SetChanMask,"ax",%progbits
 575              		.align	2
 576              		.global	ADCInput_SetChanMask
 577              		.code	16
 578              		.thumb_func
 579              		.type	ADCInput_SetChanMask, %function
 580              	ADCInput_SetChanMask:
 581              	.LFB8:
 527:Generated_Source\PSoC4/ADCInput.c **** 
 528:Generated_Source\PSoC4/ADCInput.c **** 
 529:Generated_Source\PSoC4/ADCInput.c **** /*******************************************************************************
 530:Generated_Source\PSoC4/ADCInput.c **** * Function Name: ADCInput_SetChanMask
 531:Generated_Source\PSoC4/ADCInput.c **** ********************************************************************************
 532:Generated_Source\PSoC4/ADCInput.c **** *
 533:Generated_Source\PSoC4/ADCInput.c **** * Summary:
 534:Generated_Source\PSoC4/ADCInput.c **** *  Sets the channel enable mask.
 535:Generated_Source\PSoC4/ADCInput.c **** *
 536:Generated_Source\PSoC4/ADCInput.c **** * Parameters:
 537:Generated_Source\PSoC4/ADCInput.c **** *  mask: Sets which channels that will be
 538:Generated_Source\PSoC4/ADCInput.c **** *  scanned. Setting bits for channels that do not exist will have no
 539:Generated_Source\PSoC4/ADCInput.c **** *  effect. For example, if only 6 channels were enabled, setting a
 540:Generated_Source\PSoC4/ADCInput.c **** *  mask of 0x0103 would only enable the last two channels (0 and 1).
 541:Generated_Source\PSoC4/ADCInput.c **** *  This API will not enable the injection channel.
 542:Generated_Source\PSoC4/ADCInput.c **** *  Examples: If the component is setup to sequence through 8
 543:Generated_Source\PSoC4/ADCInput.c **** *  channels, a mask of 0x000F would enable channels 0, 1, 2, and 3.
 544:Generated_Source\PSoC4/ADCInput.c **** *
 545:Generated_Source\PSoC4/ADCInput.c **** * Return:
 546:Generated_Source\PSoC4/ADCInput.c **** *  None.
 547:Generated_Source\PSoC4/ADCInput.c **** *
ARM GAS  C:\Users\quint\AppData\Local\Temp\ccHDjPtC.s 			page 21


 548:Generated_Source\PSoC4/ADCInput.c **** *******************************************************************************/
 549:Generated_Source\PSoC4/ADCInput.c **** void ADCInput_SetChanMask(uint32 mask)
 550:Generated_Source\PSoC4/ADCInput.c **** {
 582              		.loc 1 550 0
 583              		.cfi_startproc
 584              		@ args = 0, pretend = 0, frame = 0
 585              		@ frame_needed = 0, uses_anonymous_args = 0
 586              		@ link register save eliminated.
 587              	.LVL42:
 551:Generated_Source\PSoC4/ADCInput.c ****     ADCInput_SAR_CHAN_EN_REG = mask & ADCInput_MAX_CHANNELS_EN_MASK;
 588              		.loc 1 551 0
 589 0000 0323     		movs	r3, #3
 590 0002 1840     		ands	r0, r3
 591              	.LVL43:
 592 0004 014B     		ldr	r3, .L45
 593 0006 1860     		str	r0, [r3]
 552:Generated_Source\PSoC4/ADCInput.c **** }
 594              		.loc 1 552 0
 595              		@ sp needed
 596 0008 7047     		bx	lr
 597              	.L46:
 598 000a C046     		.align	2
 599              	.L45:
 600 000c 20001A40 		.word	1075445792
 601              		.cfi_endproc
 602              	.LFE8:
 603              		.size	ADCInput_SetChanMask, .-ADCInput_SetChanMask
 604              		.section	.text.ADCInput_SetLowLimit,"ax",%progbits
 605              		.align	2
 606              		.global	ADCInput_SetLowLimit
 607              		.code	16
 608              		.thumb_func
 609              		.type	ADCInput_SetLowLimit, %function
 610              	ADCInput_SetLowLimit:
 611              	.LFB9:
 553:Generated_Source\PSoC4/ADCInput.c **** 
 554:Generated_Source\PSoC4/ADCInput.c **** #if(ADCInput_INJ_CHANNEL_ENABLED)
 555:Generated_Source\PSoC4/ADCInput.c **** 
 556:Generated_Source\PSoC4/ADCInput.c **** 
 557:Generated_Source\PSoC4/ADCInput.c ****     /*******************************************************************************
 558:Generated_Source\PSoC4/ADCInput.c ****     * Function Name: ADCInput_EnableInjection
 559:Generated_Source\PSoC4/ADCInput.c ****     ********************************************************************************
 560:Generated_Source\PSoC4/ADCInput.c ****     *
 561:Generated_Source\PSoC4/ADCInput.c ****     * Summary:
 562:Generated_Source\PSoC4/ADCInput.c ****     *  Enables the injection channel for the next scan only.
 563:Generated_Source\PSoC4/ADCInput.c ****     *
 564:Generated_Source\PSoC4/ADCInput.c ****     * Parameters:
 565:Generated_Source\PSoC4/ADCInput.c ****     *  None.
 566:Generated_Source\PSoC4/ADCInput.c ****     *
 567:Generated_Source\PSoC4/ADCInput.c ****     * Return:
 568:Generated_Source\PSoC4/ADCInput.c ****     *  None.
 569:Generated_Source\PSoC4/ADCInput.c ****     *
 570:Generated_Source\PSoC4/ADCInput.c ****     *******************************************************************************/
 571:Generated_Source\PSoC4/ADCInput.c ****     void ADCInput_EnableInjection(void)
 572:Generated_Source\PSoC4/ADCInput.c ****     {
 573:Generated_Source\PSoC4/ADCInput.c ****         ADCInput_SAR_INJ_CHAN_CONFIG_REG |= ADCInput_INJ_CHAN_EN;
 574:Generated_Source\PSoC4/ADCInput.c ****     }
ARM GAS  C:\Users\quint\AppData\Local\Temp\ccHDjPtC.s 			page 22


 575:Generated_Source\PSoC4/ADCInput.c **** 
 576:Generated_Source\PSoC4/ADCInput.c **** #endif /* ADCInput_INJ_CHANNEL_ENABLED */
 577:Generated_Source\PSoC4/ADCInput.c **** 
 578:Generated_Source\PSoC4/ADCInput.c **** 
 579:Generated_Source\PSoC4/ADCInput.c **** /*******************************************************************************
 580:Generated_Source\PSoC4/ADCInput.c **** * Function Name: ADCInput_SetLowLimit
 581:Generated_Source\PSoC4/ADCInput.c **** ********************************************************************************
 582:Generated_Source\PSoC4/ADCInput.c **** *
 583:Generated_Source\PSoC4/ADCInput.c **** * Summary:
 584:Generated_Source\PSoC4/ADCInput.c **** *  Sets the low limit parameter for a limit condition.
 585:Generated_Source\PSoC4/ADCInput.c **** *
 586:Generated_Source\PSoC4/ADCInput.c **** * Parameters:
 587:Generated_Source\PSoC4/ADCInput.c **** *  lowLimit: The low limit for a limit condition.
 588:Generated_Source\PSoC4/ADCInput.c **** *
 589:Generated_Source\PSoC4/ADCInput.c **** * Return:
 590:Generated_Source\PSoC4/ADCInput.c **** *  None.
 591:Generated_Source\PSoC4/ADCInput.c **** *
 592:Generated_Source\PSoC4/ADCInput.c **** *******************************************************************************/
 593:Generated_Source\PSoC4/ADCInput.c **** void ADCInput_SetLowLimit(uint32 lowLimit)
 594:Generated_Source\PSoC4/ADCInput.c **** {
 612              		.loc 1 594 0
 613              		.cfi_startproc
 614              		@ args = 0, pretend = 0, frame = 0
 615              		@ frame_needed = 0, uses_anonymous_args = 0
 616              		@ link register save eliminated.
 617              	.LVL44:
 595:Generated_Source\PSoC4/ADCInput.c ****     ADCInput_SAR_RANGE_THRES_REG &= (uint32)(~ADCInput_RANGE_LOW_MASK);
 618              		.loc 1 595 0
 619 0000 054A     		ldr	r2, .L48
 620 0002 1368     		ldr	r3, [r2]
 621 0004 1B0C     		lsrs	r3, r3, #16
 622 0006 1B04     		lsls	r3, r3, #16
 623 0008 1360     		str	r3, [r2]
 596:Generated_Source\PSoC4/ADCInput.c ****     ADCInput_SAR_RANGE_THRES_REG |= lowLimit & ADCInput_RANGE_LOW_MASK;
 624              		.loc 1 596 0
 625 000a 1368     		ldr	r3, [r2]
 626 000c 0004     		lsls	r0, r0, #16
 627              	.LVL45:
 628 000e 000C     		lsrs	r0, r0, #16
 629 0010 1843     		orrs	r0, r3
 630 0012 1060     		str	r0, [r2]
 597:Generated_Source\PSoC4/ADCInput.c **** }
 631              		.loc 1 597 0
 632              		@ sp needed
 633 0014 7047     		bx	lr
 634              	.L49:
 635 0016 C046     		.align	2
 636              	.L48:
 637 0018 18001A40 		.word	1075445784
 638              		.cfi_endproc
 639              	.LFE9:
 640              		.size	ADCInput_SetLowLimit, .-ADCInput_SetLowLimit
 641              		.section	.text.ADCInput_SetHighLimit,"ax",%progbits
 642              		.align	2
 643              		.global	ADCInput_SetHighLimit
 644              		.code	16
 645              		.thumb_func
ARM GAS  C:\Users\quint\AppData\Local\Temp\ccHDjPtC.s 			page 23


 646              		.type	ADCInput_SetHighLimit, %function
 647              	ADCInput_SetHighLimit:
 648              	.LFB10:
 598:Generated_Source\PSoC4/ADCInput.c **** 
 599:Generated_Source\PSoC4/ADCInput.c **** 
 600:Generated_Source\PSoC4/ADCInput.c **** /*******************************************************************************
 601:Generated_Source\PSoC4/ADCInput.c **** * Function Name: ADCInput_SetHighLimit
 602:Generated_Source\PSoC4/ADCInput.c **** ********************************************************************************
 603:Generated_Source\PSoC4/ADCInput.c **** *
 604:Generated_Source\PSoC4/ADCInput.c **** * Summary:
 605:Generated_Source\PSoC4/ADCInput.c **** *  Sets the low limit parameter for a limit condition.
 606:Generated_Source\PSoC4/ADCInput.c **** *
 607:Generated_Source\PSoC4/ADCInput.c **** * Parameters:
 608:Generated_Source\PSoC4/ADCInput.c **** *  highLimit: The high limit for a limit condition.
 609:Generated_Source\PSoC4/ADCInput.c **** *
 610:Generated_Source\PSoC4/ADCInput.c **** * Return:
 611:Generated_Source\PSoC4/ADCInput.c **** *  None.
 612:Generated_Source\PSoC4/ADCInput.c **** *
 613:Generated_Source\PSoC4/ADCInput.c **** *******************************************************************************/
 614:Generated_Source\PSoC4/ADCInput.c **** void ADCInput_SetHighLimit(uint32 highLimit)
 615:Generated_Source\PSoC4/ADCInput.c **** {
 649              		.loc 1 615 0
 650              		.cfi_startproc
 651              		@ args = 0, pretend = 0, frame = 0
 652              		@ frame_needed = 0, uses_anonymous_args = 0
 653              		@ link register save eliminated.
 654              	.LVL46:
 616:Generated_Source\PSoC4/ADCInput.c ****     ADCInput_SAR_RANGE_THRES_REG &= (uint32)(~ADCInput_RANGE_HIGH_MASK);
 655              		.loc 1 616 0
 656 0000 044A     		ldr	r2, .L51
 657 0002 1368     		ldr	r3, [r2]
 658 0004 1B04     		lsls	r3, r3, #16
 659 0006 1B0C     		lsrs	r3, r3, #16
 660 0008 1360     		str	r3, [r2]
 617:Generated_Source\PSoC4/ADCInput.c ****     ADCInput_SAR_RANGE_THRES_REG |= (uint32)(highLimit << ADCInput_RANGE_HIGH_OFFSET);
 661              		.loc 1 617 0
 662 000a 1368     		ldr	r3, [r2]
 663 000c 0004     		lsls	r0, r0, #16
 664              	.LVL47:
 665 000e 1843     		orrs	r0, r3
 666 0010 1060     		str	r0, [r2]
 618:Generated_Source\PSoC4/ADCInput.c **** }
 667              		.loc 1 618 0
 668              		@ sp needed
 669 0012 7047     		bx	lr
 670              	.L52:
 671              		.align	2
 672              	.L51:
 673 0014 18001A40 		.word	1075445784
 674              		.cfi_endproc
 675              	.LFE10:
 676              		.size	ADCInput_SetHighLimit, .-ADCInput_SetHighLimit
 677              		.section	.text.ADCInput_SetLimitMask,"ax",%progbits
 678              		.align	2
 679              		.global	ADCInput_SetLimitMask
 680              		.code	16
 681              		.thumb_func
ARM GAS  C:\Users\quint\AppData\Local\Temp\ccHDjPtC.s 			page 24


 682              		.type	ADCInput_SetLimitMask, %function
 683              	ADCInput_SetLimitMask:
 684              	.LFB11:
 619:Generated_Source\PSoC4/ADCInput.c **** 
 620:Generated_Source\PSoC4/ADCInput.c **** 
 621:Generated_Source\PSoC4/ADCInput.c **** /*******************************************************************************
 622:Generated_Source\PSoC4/ADCInput.c **** * Function Name: ADCInput_SetLimitMask
 623:Generated_Source\PSoC4/ADCInput.c **** ********************************************************************************
 624:Generated_Source\PSoC4/ADCInput.c **** *
 625:Generated_Source\PSoC4/ADCInput.c **** * Summary:
 626:Generated_Source\PSoC4/ADCInput.c **** *  Sets the channel limit condition mask.
 627:Generated_Source\PSoC4/ADCInput.c **** *
 628:Generated_Source\PSoC4/ADCInput.c **** * Parameters:
 629:Generated_Source\PSoC4/ADCInput.c **** *  mask: Sets which channels that may cause a
 630:Generated_Source\PSoC4/ADCInput.c **** *  limit condition interrupt. Setting bits for channels that do not exist
 631:Generated_Source\PSoC4/ADCInput.c **** *  will have no effect. For example, if only 6 channels were enabled,
 632:Generated_Source\PSoC4/ADCInput.c **** *  setting a mask of 0x0103 would only enable the last two channels (0 and 1).
 633:Generated_Source\PSoC4/ADCInput.c **** *
 634:Generated_Source\PSoC4/ADCInput.c **** * Return:
 635:Generated_Source\PSoC4/ADCInput.c **** *  None.
 636:Generated_Source\PSoC4/ADCInput.c **** *
 637:Generated_Source\PSoC4/ADCInput.c **** *******************************************************************************/
 638:Generated_Source\PSoC4/ADCInput.c **** void ADCInput_SetLimitMask(uint32 mask)
 639:Generated_Source\PSoC4/ADCInput.c **** {
 685              		.loc 1 639 0
 686              		.cfi_startproc
 687              		@ args = 0, pretend = 0, frame = 0
 688              		@ frame_needed = 0, uses_anonymous_args = 0
 689              		@ link register save eliminated.
 690              	.LVL48:
 640:Generated_Source\PSoC4/ADCInput.c ****     ADCInput_SAR_RANGE_INTR_MASK_REG = mask & ADCInput_MAX_CHANNELS_EN_MASK;
 691              		.loc 1 640 0
 692 0000 0323     		movs	r3, #3
 693 0002 1840     		ands	r0, r3
 694              	.LVL49:
 695 0004 014B     		ldr	r3, .L54
 696 0006 1860     		str	r0, [r3]
 641:Generated_Source\PSoC4/ADCInput.c **** }
 697              		.loc 1 641 0
 698              		@ sp needed
 699 0008 7047     		bx	lr
 700              	.L55:
 701 000a C046     		.align	2
 702              	.L54:
 703 000c 38021A40 		.word	1075446328
 704              		.cfi_endproc
 705              	.LFE11:
 706              		.size	ADCInput_SetLimitMask, .-ADCInput_SetLimitMask
 707              		.section	.text.ADCInput_SetSatMask,"ax",%progbits
 708              		.align	2
 709              		.global	ADCInput_SetSatMask
 710              		.code	16
 711              		.thumb_func
 712              		.type	ADCInput_SetSatMask, %function
 713              	ADCInput_SetSatMask:
 714              	.LFB12:
 642:Generated_Source\PSoC4/ADCInput.c **** 
ARM GAS  C:\Users\quint\AppData\Local\Temp\ccHDjPtC.s 			page 25


 643:Generated_Source\PSoC4/ADCInput.c **** 
 644:Generated_Source\PSoC4/ADCInput.c **** /*******************************************************************************
 645:Generated_Source\PSoC4/ADCInput.c **** * Function Name: ADCInput_SetSatMask
 646:Generated_Source\PSoC4/ADCInput.c **** ********************************************************************************
 647:Generated_Source\PSoC4/ADCInput.c **** *
 648:Generated_Source\PSoC4/ADCInput.c **** * Summary:
 649:Generated_Source\PSoC4/ADCInput.c **** *  Sets the channel saturation event mask.
 650:Generated_Source\PSoC4/ADCInput.c **** *
 651:Generated_Source\PSoC4/ADCInput.c **** * Parameters:
 652:Generated_Source\PSoC4/ADCInput.c **** *  mask: Sets which channels that may cause a
 653:Generated_Source\PSoC4/ADCInput.c **** *  saturation event interrupt. Setting bits for channels that do not exist
 654:Generated_Source\PSoC4/ADCInput.c **** *  will have no effect. For example, if only 8 channels were enabled,
 655:Generated_Source\PSoC4/ADCInput.c **** *  setting a mask of 0x01C0 would only enable two channels (6 and 7).
 656:Generated_Source\PSoC4/ADCInput.c **** *
 657:Generated_Source\PSoC4/ADCInput.c **** * Return:
 658:Generated_Source\PSoC4/ADCInput.c **** *  None.
 659:Generated_Source\PSoC4/ADCInput.c **** *
 660:Generated_Source\PSoC4/ADCInput.c **** *******************************************************************************/
 661:Generated_Source\PSoC4/ADCInput.c **** void ADCInput_SetSatMask(uint32 mask)
 662:Generated_Source\PSoC4/ADCInput.c **** {
 715              		.loc 1 662 0
 716              		.cfi_startproc
 717              		@ args = 0, pretend = 0, frame = 0
 718              		@ frame_needed = 0, uses_anonymous_args = 0
 719              		@ link register save eliminated.
 720              	.LVL50:
 663:Generated_Source\PSoC4/ADCInput.c ****     ADCInput_SAR_SATURATE_INTR_MASK_REG = mask & ADCInput_MAX_CHANNELS_EN_MASK;
 721              		.loc 1 663 0
 722 0000 0323     		movs	r3, #3
 723 0002 1840     		ands	r0, r3
 724              	.LVL51:
 725 0004 014B     		ldr	r3, .L57
 726 0006 1860     		str	r0, [r3]
 664:Generated_Source\PSoC4/ADCInput.c **** }
 727              		.loc 1 664 0
 728              		@ sp needed
 729 0008 7047     		bx	lr
 730              	.L58:
 731 000a C046     		.align	2
 732              	.L57:
 733 000c 28021A40 		.word	1075446312
 734              		.cfi_endproc
 735              	.LFE12:
 736              		.size	ADCInput_SetSatMask, .-ADCInput_SetSatMask
 737              		.section	.text.ADCInput_SetOffset,"ax",%progbits
 738              		.align	2
 739              		.global	ADCInput_SetOffset
 740              		.code	16
 741              		.thumb_func
 742              		.type	ADCInput_SetOffset, %function
 743              	ADCInput_SetOffset:
 744              	.LFB13:
 665:Generated_Source\PSoC4/ADCInput.c **** 
 666:Generated_Source\PSoC4/ADCInput.c **** 
 667:Generated_Source\PSoC4/ADCInput.c **** /*******************************************************************************
 668:Generated_Source\PSoC4/ADCInput.c **** * Function Name: ADCInput_SetOffset
 669:Generated_Source\PSoC4/ADCInput.c **** ********************************************************************************
ARM GAS  C:\Users\quint\AppData\Local\Temp\ccHDjPtC.s 			page 26


 670:Generated_Source\PSoC4/ADCInput.c **** *
 671:Generated_Source\PSoC4/ADCInput.c **** * Summary:
 672:Generated_Source\PSoC4/ADCInput.c **** *   Description: Sets the ADC offset which is used by the functions
 673:Generated_Source\PSoC4/ADCInput.c **** *   ADC_CountsTo_uVolts, ADC_CountsTo_mVolts and ADC_CountsTo_Volts
 674:Generated_Source\PSoC4/ADCInput.c **** *   to substract the offset from the given reading
 675:Generated_Source\PSoC4/ADCInput.c **** *   before calculating the voltage conversion.
 676:Generated_Source\PSoC4/ADCInput.c **** *
 677:Generated_Source\PSoC4/ADCInput.c **** * Parameters:
 678:Generated_Source\PSoC4/ADCInput.c **** *  chan: ADC channel number.
 679:Generated_Source\PSoC4/ADCInput.c **** *  offset: This value is a measured value when the
 680:Generated_Source\PSoC4/ADCInput.c **** *          inputs are shorted or connected to the same input voltage.
 681:Generated_Source\PSoC4/ADCInput.c **** *
 682:Generated_Source\PSoC4/ADCInput.c **** * Return:
 683:Generated_Source\PSoC4/ADCInput.c **** *  None.
 684:Generated_Source\PSoC4/ADCInput.c **** *
 685:Generated_Source\PSoC4/ADCInput.c **** * Global variables:
 686:Generated_Source\PSoC4/ADCInput.c **** *  ADCInput_Offset:  Modified to set the user provided offset.
 687:Generated_Source\PSoC4/ADCInput.c **** *
 688:Generated_Source\PSoC4/ADCInput.c **** *******************************************************************************/
 689:Generated_Source\PSoC4/ADCInput.c **** void ADCInput_SetOffset(uint32 chan, int16 offset)
 690:Generated_Source\PSoC4/ADCInput.c **** {
 745              		.loc 1 690 0
 746              		.cfi_startproc
 747              		@ args = 0, pretend = 0, frame = 0
 748              		@ frame_needed = 0, uses_anonymous_args = 0
 749              	.LVL52:
 750 0000 70B5     		push	{r4, r5, r6, lr}
 751              		.cfi_def_cfa_offset 16
 752              		.cfi_offset 4, -16
 753              		.cfi_offset 5, -12
 754              		.cfi_offset 6, -8
 755              		.cfi_offset 14, -4
 756 0002 0400     		movs	r4, r0
 757 0004 0D00     		movs	r5, r1
 691:Generated_Source\PSoC4/ADCInput.c ****     /* Halt CPU in debug mode if channel is out of valid range */
 692:Generated_Source\PSoC4/ADCInput.c ****     CYASSERT(chan < ADCInput_TOTAL_CHANNELS_NUM);
 758              		.loc 1 692 0
 759 0006 0128     		cmp	r0, #1
 760 0008 02D9     		bls	.L60
 761              		.loc 1 692 0 is_stmt 0 discriminator 1
 762 000a 0020     		movs	r0, #0
 763              	.LVL53:
 764 000c FFF7FEFF 		bl	CyHalt
 765              	.LVL54:
 766              	.L60:
 693:Generated_Source\PSoC4/ADCInput.c **** 
 694:Generated_Source\PSoC4/ADCInput.c ****     ADCInput_offset[chan] = offset;
 767              		.loc 1 694 0 is_stmt 1
 768 0010 6400     		lsls	r4, r4, #1
 769              	.LVL55:
 770 0012 014B     		ldr	r3, .L61
 771 0014 E552     		strh	r5, [r4, r3]
 695:Generated_Source\PSoC4/ADCInput.c **** }
 772              		.loc 1 695 0
 773              		@ sp needed
 774 0016 70BD     		pop	{r4, r5, r6, pc}
 775              	.L62:
ARM GAS  C:\Users\quint\AppData\Local\Temp\ccHDjPtC.s 			page 27


 776              		.align	2
 777              	.L61:
 778 0018 00000000 		.word	ADCInput_offset
 779              		.cfi_endproc
 780              	.LFE13:
 781              		.size	ADCInput_SetOffset, .-ADCInput_SetOffset
 782              		.section	.text.ADCInput_SetGain,"ax",%progbits
 783              		.align	2
 784              		.global	ADCInput_SetGain
 785              		.code	16
 786              		.thumb_func
 787              		.type	ADCInput_SetGain, %function
 788              	ADCInput_SetGain:
 789              	.LFB14:
 696:Generated_Source\PSoC4/ADCInput.c **** 
 697:Generated_Source\PSoC4/ADCInput.c **** 
 698:Generated_Source\PSoC4/ADCInput.c **** /*******************************************************************************
 699:Generated_Source\PSoC4/ADCInput.c **** * Function Name: ADCInput_SetGain
 700:Generated_Source\PSoC4/ADCInput.c **** ********************************************************************************
 701:Generated_Source\PSoC4/ADCInput.c **** *
 702:Generated_Source\PSoC4/ADCInput.c **** * Summary:
 703:Generated_Source\PSoC4/ADCInput.c **** *  Description: Sets the ADC gain in counts per 10 volt for the voltage
 704:Generated_Source\PSoC4/ADCInput.c **** *  conversion functions below. This value is set by default by the
 705:Generated_Source\PSoC4/ADCInput.c **** *  reference and input range settings. It should only be used to further
 706:Generated_Source\PSoC4/ADCInput.c **** *  calibrate the ADC with a known input or if an external reference is
 707:Generated_Source\PSoC4/ADCInput.c **** *  used. Affects the ADC_CountsTo_uVolts, ADC_CountsTo_mVolts
 708:Generated_Source\PSoC4/ADCInput.c **** *  and ADC_CountsTo_Volts functions by supplying the correct
 709:Generated_Source\PSoC4/ADCInput.c **** *  conversion between ADC counts and voltage.
 710:Generated_Source\PSoC4/ADCInput.c **** *
 711:Generated_Source\PSoC4/ADCInput.c **** * Parameters:
 712:Generated_Source\PSoC4/ADCInput.c **** *  chan: ADC channel number.
 713:Generated_Source\PSoC4/ADCInput.c **** *  adcGain: ADC gain in counts per 10 volts.
 714:Generated_Source\PSoC4/ADCInput.c **** *
 715:Generated_Source\PSoC4/ADCInput.c **** * Return:
 716:Generated_Source\PSoC4/ADCInput.c **** *  None.
 717:Generated_Source\PSoC4/ADCInput.c **** *
 718:Generated_Source\PSoC4/ADCInput.c **** * Global variables:
 719:Generated_Source\PSoC4/ADCInput.c **** *  ADCInput_CountsPer10Volt:  modified to set the ADC gain in counts
 720:Generated_Source\PSoC4/ADCInput.c **** *   per 10 volt.
 721:Generated_Source\PSoC4/ADCInput.c **** *
 722:Generated_Source\PSoC4/ADCInput.c **** *******************************************************************************/
 723:Generated_Source\PSoC4/ADCInput.c **** void ADCInput_SetGain(uint32 chan, int32 adcGain)
 724:Generated_Source\PSoC4/ADCInput.c **** {
 790              		.loc 1 724 0
 791              		.cfi_startproc
 792              		@ args = 0, pretend = 0, frame = 0
 793              		@ frame_needed = 0, uses_anonymous_args = 0
 794              	.LVL56:
 795 0000 70B5     		push	{r4, r5, r6, lr}
 796              		.cfi_def_cfa_offset 16
 797              		.cfi_offset 4, -16
 798              		.cfi_offset 5, -12
 799              		.cfi_offset 6, -8
 800              		.cfi_offset 14, -4
 801 0002 0400     		movs	r4, r0
 802 0004 0D00     		movs	r5, r1
 725:Generated_Source\PSoC4/ADCInput.c ****     /* Halt CPU in debug mode if channel is out of valid range */
ARM GAS  C:\Users\quint\AppData\Local\Temp\ccHDjPtC.s 			page 28


 726:Generated_Source\PSoC4/ADCInput.c ****     CYASSERT(chan < ADCInput_TOTAL_CHANNELS_NUM);
 803              		.loc 1 726 0
 804 0006 0128     		cmp	r0, #1
 805 0008 02D9     		bls	.L64
 806              		.loc 1 726 0 is_stmt 0 discriminator 1
 807 000a 0020     		movs	r0, #0
 808              	.LVL57:
 809 000c FFF7FEFF 		bl	CyHalt
 810              	.LVL58:
 811              	.L64:
 727:Generated_Source\PSoC4/ADCInput.c **** 
 728:Generated_Source\PSoC4/ADCInput.c ****     ADCInput_countsPer10Volt[chan] = adcGain;
 812              		.loc 1 728 0 is_stmt 1
 813 0010 A400     		lsls	r4, r4, #2
 814              	.LVL59:
 815 0012 014B     		ldr	r3, .L65
 816 0014 E550     		str	r5, [r4, r3]
 729:Generated_Source\PSoC4/ADCInput.c **** }
 817              		.loc 1 729 0
 818              		@ sp needed
 819              	.LVL60:
 820 0016 70BD     		pop	{r4, r5, r6, pc}
 821              	.L66:
 822              		.align	2
 823              	.L65:
 824 0018 00000000 		.word	ADCInput_countsPer10Volt
 825              		.cfi_endproc
 826              	.LFE14:
 827              		.size	ADCInput_SetGain, .-ADCInput_SetGain
 828              		.section	.text.ADCInput_CountsTo_mVolts,"ax",%progbits
 829              		.align	2
 830              		.global	ADCInput_CountsTo_mVolts
 831              		.code	16
 832              		.thumb_func
 833              		.type	ADCInput_CountsTo_mVolts, %function
 834              	ADCInput_CountsTo_mVolts:
 835              	.LFB15:
 730:Generated_Source\PSoC4/ADCInput.c **** 
 731:Generated_Source\PSoC4/ADCInput.c **** 
 732:Generated_Source\PSoC4/ADCInput.c **** #if(ADCInput_DEFAULT_JUSTIFICATION_SEL == ADCInput__RIGHT)
 733:Generated_Source\PSoC4/ADCInput.c **** 
 734:Generated_Source\PSoC4/ADCInput.c **** 
 735:Generated_Source\PSoC4/ADCInput.c ****     /*******************************************************************************
 736:Generated_Source\PSoC4/ADCInput.c ****     * Function Name: ADCInput_CountsTo_mVolts
 737:Generated_Source\PSoC4/ADCInput.c ****     ********************************************************************************
 738:Generated_Source\PSoC4/ADCInput.c ****     *
 739:Generated_Source\PSoC4/ADCInput.c ****     * Summary:
 740:Generated_Source\PSoC4/ADCInput.c ****     *  This function converts ADC counts to mVolts
 741:Generated_Source\PSoC4/ADCInput.c ****     *  This function is not available when left data format justification selected.
 742:Generated_Source\PSoC4/ADCInput.c ****     *
 743:Generated_Source\PSoC4/ADCInput.c ****     * Parameters:
 744:Generated_Source\PSoC4/ADCInput.c ****     *  chan: The ADC channel number.
 745:Generated_Source\PSoC4/ADCInput.c ****     *  adcCounts: Result from the ADC conversion
 746:Generated_Source\PSoC4/ADCInput.c ****     *
 747:Generated_Source\PSoC4/ADCInput.c ****     * Return:
 748:Generated_Source\PSoC4/ADCInput.c ****     *  Results in mVolts
 749:Generated_Source\PSoC4/ADCInput.c ****     *
ARM GAS  C:\Users\quint\AppData\Local\Temp\ccHDjPtC.s 			page 29


 750:Generated_Source\PSoC4/ADCInput.c ****     * Global variables:
 751:Generated_Source\PSoC4/ADCInput.c ****     *  ADCInput_countsPer10Volt:  used to convert ADC counts to mVolts.
 752:Generated_Source\PSoC4/ADCInput.c ****     *  ADCInput_Offset:  Used as the offset while converting ADC counts
 753:Generated_Source\PSoC4/ADCInput.c ****     *   to mVolts.
 754:Generated_Source\PSoC4/ADCInput.c ****     *
 755:Generated_Source\PSoC4/ADCInput.c ****     *******************************************************************************/
 756:Generated_Source\PSoC4/ADCInput.c ****     int16 ADCInput_CountsTo_mVolts(uint32 chan, int16 adcCounts)
 757:Generated_Source\PSoC4/ADCInput.c ****     {
 836              		.loc 1 757 0
 837              		.cfi_startproc
 838              		@ args = 0, pretend = 0, frame = 0
 839              		@ frame_needed = 0, uses_anonymous_args = 0
 840              	.LVL61:
 841 0000 70B5     		push	{r4, r5, r6, lr}
 842              		.cfi_def_cfa_offset 16
 843              		.cfi_offset 4, -16
 844              		.cfi_offset 5, -12
 845              		.cfi_offset 6, -8
 846              		.cfi_offset 14, -4
 847 0002 0400     		movs	r4, r0
 848 0004 0D00     		movs	r5, r1
 758:Generated_Source\PSoC4/ADCInput.c ****         int16 mVolts;
 759:Generated_Source\PSoC4/ADCInput.c **** 
 760:Generated_Source\PSoC4/ADCInput.c ****         /* Halt CPU in debug mode if channel is out of valid range */
 761:Generated_Source\PSoC4/ADCInput.c ****         CYASSERT(chan < ADCInput_TOTAL_CHANNELS_NUM);
 849              		.loc 1 761 0
 850 0006 0128     		cmp	r0, #1
 851 0008 02D9     		bls	.L68
 852              		.loc 1 761 0 is_stmt 0 discriminator 1
 853 000a 0020     		movs	r0, #0
 854              	.LVL62:
 855 000c FFF7FEFF 		bl	CyHalt
 856              	.LVL63:
 857              	.L68:
 762:Generated_Source\PSoC4/ADCInput.c **** 
 763:Generated_Source\PSoC4/ADCInput.c ****         /* Divide the adcCount when accumulate averaging mode selected */
 764:Generated_Source\PSoC4/ADCInput.c ****         #if(ADCInput_DEFAULT_AVG_MODE == ADCInput__ACCUMULATE)
 765:Generated_Source\PSoC4/ADCInput.c ****             if((ADCInput_channelsConfig[chan] & ADCInput_AVERAGING_EN) != 0u)
 766:Generated_Source\PSoC4/ADCInput.c ****             {
 767:Generated_Source\PSoC4/ADCInput.c ****                 adcCounts /= ADCInput_DEFAULT_AVG_SAMPLES_DIV;
 768:Generated_Source\PSoC4/ADCInput.c ****             }
 769:Generated_Source\PSoC4/ADCInput.c ****         #endif /* ADCInput_DEFAULT_AVG_MODE == ADCInput__ACCUMULATE */
 770:Generated_Source\PSoC4/ADCInput.c **** 
 771:Generated_Source\PSoC4/ADCInput.c ****         /* Subtract ADC offset */
 772:Generated_Source\PSoC4/ADCInput.c ****         adcCounts -= ADCInput_offset[chan];
 858              		.loc 1 772 0 is_stmt 1
 859 0010 6300     		lsls	r3, r4, #1
 860 0012 0F4A     		ldr	r2, .L71
 861 0014 995A     		ldrh	r1, [r3, r2]
 862 0016 09B2     		sxth	r1, r1
 863 0018 691A     		subs	r1, r5, r1
 864 001a 09B2     		sxth	r1, r1
 865              	.LVL64:
 773:Generated_Source\PSoC4/ADCInput.c **** 
 774:Generated_Source\PSoC4/ADCInput.c ****         mVolts = (int16)((((int32)adcCounts * ADCInput_10MV_COUNTS) + ( (adcCounts > 0) ?
 866              		.loc 1 774 0
 867 001c 0D48     		ldr	r0, .L71+4
ARM GAS  C:\Users\quint\AppData\Local\Temp\ccHDjPtC.s 			page 30


 868 001e 4843     		muls	r0, r1
 775:Generated_Source\PSoC4/ADCInput.c ****                  (ADCInput_countsPer10Volt[chan] / 2) : (-(ADCInput_countsPer10Volt[chan] / 2)) ))
 869              		.loc 1 775 0
 870 0020 0029     		cmp	r1, #0
 871 0022 06DD     		ble	.L69
 872              		.loc 1 775 0 is_stmt 0 discriminator 1
 873 0024 A300     		lsls	r3, r4, #2
 874 0026 0C4A     		ldr	r2, .L71+8
 875 0028 9A58     		ldr	r2, [r3, r2]
 876 002a D30F     		lsrs	r3, r2, #31
 877 002c 9A18     		adds	r2, r3, r2
 878 002e 5310     		asrs	r3, r2, #1
 879 0030 06E0     		b	.L70
 880              	.L69:
 881              		.loc 1 775 0 discriminator 2
 882 0032 A300     		lsls	r3, r4, #2
 883 0034 084A     		ldr	r2, .L71+8
 884 0036 9A58     		ldr	r2, [r3, r2]
 885 0038 D30F     		lsrs	r3, r2, #31
 886 003a 9A18     		adds	r2, r3, r2
 887 003c 5210     		asrs	r2, r2, #1
 888 003e 5342     		rsbs	r3, r2, #0
 889              	.L70:
 774:Generated_Source\PSoC4/ADCInput.c ****                  (ADCInput_countsPer10Volt[chan] / 2) : (-(ADCInput_countsPer10Volt[chan] / 2)) ))
 890              		.loc 1 774 0 is_stmt 1
 891 0040 1818     		adds	r0, r3, r0
 776:Generated_Source\PSoC4/ADCInput.c ****                  / ADCInput_countsPer10Volt[chan]);
 892              		.loc 1 776 0
 893 0042 A400     		lsls	r4, r4, #2
 894              	.LVL65:
 895 0044 044B     		ldr	r3, .L71+8
 896 0046 E158     		ldr	r1, [r4, r3]
 897              	.LVL66:
 898 0048 FFF7FEFF 		bl	__aeabi_idiv
 899              	.LVL67:
 774:Generated_Source\PSoC4/ADCInput.c ****                  (ADCInput_countsPer10Volt[chan] / 2) : (-(ADCInput_countsPer10Volt[chan] / 2)) ))
 900              		.loc 1 774 0
 901 004c 00B2     		sxth	r0, r0
 902              	.LVL68:
 777:Generated_Source\PSoC4/ADCInput.c **** 
 778:Generated_Source\PSoC4/ADCInput.c ****         return( mVolts );
 779:Generated_Source\PSoC4/ADCInput.c ****     }
 903              		.loc 1 779 0
 904              		@ sp needed
 905 004e 70BD     		pop	{r4, r5, r6, pc}
 906              	.L72:
 907              		.align	2
 908              	.L71:
 909 0050 00000000 		.word	ADCInput_offset
 910 0054 10270000 		.word	10000
 911 0058 00000000 		.word	ADCInput_countsPer10Volt
 912              		.cfi_endproc
 913              	.LFE15:
 914              		.size	ADCInput_CountsTo_mVolts, .-ADCInput_CountsTo_mVolts
 915              		.global	__aeabi_lmul
 916              		.global	__aeabi_ldivmod
 917              		.section	.text.ADCInput_CountsTo_uVolts,"ax",%progbits
ARM GAS  C:\Users\quint\AppData\Local\Temp\ccHDjPtC.s 			page 31


 918              		.align	2
 919              		.global	ADCInput_CountsTo_uVolts
 920              		.code	16
 921              		.thumb_func
 922              		.type	ADCInput_CountsTo_uVolts, %function
 923              	ADCInput_CountsTo_uVolts:
 924              	.LFB16:
 780:Generated_Source\PSoC4/ADCInput.c **** 
 781:Generated_Source\PSoC4/ADCInput.c **** 
 782:Generated_Source\PSoC4/ADCInput.c ****     /*******************************************************************************
 783:Generated_Source\PSoC4/ADCInput.c ****     * Function Name: ADCInput_CountsTo_uVolts
 784:Generated_Source\PSoC4/ADCInput.c ****     ********************************************************************************
 785:Generated_Source\PSoC4/ADCInput.c ****     *
 786:Generated_Source\PSoC4/ADCInput.c ****     * Summary:
 787:Generated_Source\PSoC4/ADCInput.c ****     *  This function converts ADC counts to micro Volts
 788:Generated_Source\PSoC4/ADCInput.c ****     *  This function is not available when left data format justification selected.
 789:Generated_Source\PSoC4/ADCInput.c ****     *
 790:Generated_Source\PSoC4/ADCInput.c ****     * Parameters:
 791:Generated_Source\PSoC4/ADCInput.c ****     *  chan: The ADC channel number.
 792:Generated_Source\PSoC4/ADCInput.c ****     *  adcCounts: Result from the ADC conversion
 793:Generated_Source\PSoC4/ADCInput.c ****     *
 794:Generated_Source\PSoC4/ADCInput.c ****     * Return:
 795:Generated_Source\PSoC4/ADCInput.c ****     *  Results in uVolts
 796:Generated_Source\PSoC4/ADCInput.c ****     *
 797:Generated_Source\PSoC4/ADCInput.c ****     * Global variables:
 798:Generated_Source\PSoC4/ADCInput.c ****     *  ADCInput_countsPer10Volt:  used to convert ADC counts to uVolts.
 799:Generated_Source\PSoC4/ADCInput.c ****     *  ADCInput_Offset:  Used as the offset while converting ADC counts
 800:Generated_Source\PSoC4/ADCInput.c ****     *   to mVolts.
 801:Generated_Source\PSoC4/ADCInput.c ****     *
 802:Generated_Source\PSoC4/ADCInput.c ****     * Theory:
 803:Generated_Source\PSoC4/ADCInput.c ****     *  Care must be taken to not exceed the maximum value for a 31 bit signed
 804:Generated_Source\PSoC4/ADCInput.c ****     *  number in the conversion to uVolts and at the same time not loose
 805:Generated_Source\PSoC4/ADCInput.c ****     *  resolution.
 806:Generated_Source\PSoC4/ADCInput.c ****     *  To convert adcCounts to microVolts it is required to be multiplied
 807:Generated_Source\PSoC4/ADCInput.c ****     *  on 10 million and later divide on gain in counts per 10V.
 808:Generated_Source\PSoC4/ADCInput.c ****     *
 809:Generated_Source\PSoC4/ADCInput.c ****     *******************************************************************************/
 810:Generated_Source\PSoC4/ADCInput.c ****     int32 ADCInput_CountsTo_uVolts(uint32 chan, int16 adcCounts)
 811:Generated_Source\PSoC4/ADCInput.c ****     {
 925              		.loc 1 811 0
 926              		.cfi_startproc
 927              		@ args = 0, pretend = 0, frame = 0
 928              		@ frame_needed = 0, uses_anonymous_args = 0
 929              	.LVL69:
 930 0000 70B5     		push	{r4, r5, r6, lr}
 931              		.cfi_def_cfa_offset 16
 932              		.cfi_offset 4, -16
 933              		.cfi_offset 5, -12
 934              		.cfi_offset 6, -8
 935              		.cfi_offset 14, -4
 936 0002 0500     		movs	r5, r0
 937 0004 0C00     		movs	r4, r1
 812:Generated_Source\PSoC4/ADCInput.c ****         int64 uVolts;
 813:Generated_Source\PSoC4/ADCInput.c **** 
 814:Generated_Source\PSoC4/ADCInput.c ****         /* Halt CPU in debug mode if channel is out of valid range */
 815:Generated_Source\PSoC4/ADCInput.c ****         CYASSERT(chan < ADCInput_TOTAL_CHANNELS_NUM);
 938              		.loc 1 815 0
ARM GAS  C:\Users\quint\AppData\Local\Temp\ccHDjPtC.s 			page 32


 939 0006 0128     		cmp	r0, #1
 940 0008 02D9     		bls	.L74
 941              		.loc 1 815 0 is_stmt 0 discriminator 1
 942 000a 0020     		movs	r0, #0
 943              	.LVL70:
 944 000c FFF7FEFF 		bl	CyHalt
 945              	.LVL71:
 946              	.L74:
 816:Generated_Source\PSoC4/ADCInput.c **** 
 817:Generated_Source\PSoC4/ADCInput.c ****         /* Divide the adcCount when accumulate averaging mode selected */
 818:Generated_Source\PSoC4/ADCInput.c ****         #if(ADCInput_DEFAULT_AVG_MODE == ADCInput__ACCUMULATE)
 819:Generated_Source\PSoC4/ADCInput.c ****             if((ADCInput_channelsConfig[chan] & ADCInput_AVERAGING_EN) != 0u)
 820:Generated_Source\PSoC4/ADCInput.c ****             {
 821:Generated_Source\PSoC4/ADCInput.c ****                 adcCounts /= ADCInput_DEFAULT_AVG_SAMPLES_DIV;
 822:Generated_Source\PSoC4/ADCInput.c ****             }
 823:Generated_Source\PSoC4/ADCInput.c ****         #endif /* ADCInput_DEFAULT_AVG_MODE == ADCInput__ACCUMULATE */
 824:Generated_Source\PSoC4/ADCInput.c **** 
 825:Generated_Source\PSoC4/ADCInput.c ****         /* Subtract ADC offset */
 826:Generated_Source\PSoC4/ADCInput.c ****         adcCounts -= ADCInput_offset[chan];
 947              		.loc 1 826 0 is_stmt 1
 948 0010 6A00     		lsls	r2, r5, #1
 949 0012 084B     		ldr	r3, .L75
 950 0014 D05A     		ldrh	r0, [r2, r3]
 951 0016 00B2     		sxth	r0, r0
 952 0018 201A     		subs	r0, r4, r0
 953 001a 00B2     		sxth	r0, r0
 954              	.LVL72:
 827:Generated_Source\PSoC4/ADCInput.c **** 
 828:Generated_Source\PSoC4/ADCInput.c ****         uVolts = ((int64)adcCounts * ADCInput_10UV_COUNTS) / ADCInput_countsPer10Volt[chan];
 955              		.loc 1 828 0
 956 001c C117     		asrs	r1, r0, #31
 957 001e 064A     		ldr	r2, .L75+4
 958 0020 0023     		movs	r3, #0
 959 0022 FFF7FEFF 		bl	__aeabi_lmul
 960              	.LVL73:
 961 0026 AD00     		lsls	r5, r5, #2
 962              	.LVL74:
 963 0028 044B     		ldr	r3, .L75+8
 964 002a EA58     		ldr	r2, [r5, r3]
 965 002c D317     		asrs	r3, r2, #31
 966 002e FFF7FEFF 		bl	__aeabi_ldivmod
 967              	.LVL75:
 829:Generated_Source\PSoC4/ADCInput.c **** 
 830:Generated_Source\PSoC4/ADCInput.c ****         return( (int32)uVolts );
 831:Generated_Source\PSoC4/ADCInput.c ****     }
 968              		.loc 1 831 0
 969              		@ sp needed
 970 0032 70BD     		pop	{r4, r5, r6, pc}
 971              	.L76:
 972              		.align	2
 973              	.L75:
 974 0034 00000000 		.word	ADCInput_offset
 975 0038 80969800 		.word	10000000
 976 003c 00000000 		.word	ADCInput_countsPer10Volt
 977              		.cfi_endproc
 978              	.LFE16:
 979              		.size	ADCInput_CountsTo_uVolts, .-ADCInput_CountsTo_uVolts
ARM GAS  C:\Users\quint\AppData\Local\Temp\ccHDjPtC.s 			page 33


 980              		.global	__aeabi_i2f
 981              		.global	__aeabi_fmul
 982              		.global	__aeabi_fdiv
 983              		.section	.text.ADCInput_CountsTo_Volts,"ax",%progbits
 984              		.align	2
 985              		.global	ADCInput_CountsTo_Volts
 986              		.code	16
 987              		.thumb_func
 988              		.type	ADCInput_CountsTo_Volts, %function
 989              	ADCInput_CountsTo_Volts:
 990              	.LFB17:
 832:Generated_Source\PSoC4/ADCInput.c **** 
 833:Generated_Source\PSoC4/ADCInput.c **** 
 834:Generated_Source\PSoC4/ADCInput.c ****     /*******************************************************************************
 835:Generated_Source\PSoC4/ADCInput.c ****     * Function Name: ADCInput_CountsTo_Volts
 836:Generated_Source\PSoC4/ADCInput.c ****     ********************************************************************************
 837:Generated_Source\PSoC4/ADCInput.c ****     *
 838:Generated_Source\PSoC4/ADCInput.c ****     * Summary:
 839:Generated_Source\PSoC4/ADCInput.c ****     *  Converts the ADC output to Volts as a floating point number.
 840:Generated_Source\PSoC4/ADCInput.c ****     *  This function is not available when left data format justification selected.
 841:Generated_Source\PSoC4/ADCInput.c ****     *
 842:Generated_Source\PSoC4/ADCInput.c ****     * Parameters:
 843:Generated_Source\PSoC4/ADCInput.c ****     *  chan: The ADC channel number.
 844:Generated_Source\PSoC4/ADCInput.c ****     *  Result from the ADC conversion
 845:Generated_Source\PSoC4/ADCInput.c ****     *
 846:Generated_Source\PSoC4/ADCInput.c ****     * Return:
 847:Generated_Source\PSoC4/ADCInput.c ****     *  Results in Volts
 848:Generated_Source\PSoC4/ADCInput.c ****     *
 849:Generated_Source\PSoC4/ADCInput.c ****     * Global variables:
 850:Generated_Source\PSoC4/ADCInput.c ****     *  ADCInput_countsPer10Volt:  used to convert ADC counts to Volts.
 851:Generated_Source\PSoC4/ADCInput.c ****     *  ADCInput_Offset:  Used as the offset while converting ADC counts
 852:Generated_Source\PSoC4/ADCInput.c ****     *   to mVolts.
 853:Generated_Source\PSoC4/ADCInput.c ****     *
 854:Generated_Source\PSoC4/ADCInput.c ****     *******************************************************************************/
 855:Generated_Source\PSoC4/ADCInput.c ****     float32 ADCInput_CountsTo_Volts(uint32 chan, int16 adcCounts)
 856:Generated_Source\PSoC4/ADCInput.c ****     {
 991              		.loc 1 856 0
 992              		.cfi_startproc
 993              		@ args = 0, pretend = 0, frame = 0
 994              		@ frame_needed = 0, uses_anonymous_args = 0
 995              	.LVL76:
 996 0000 70B5     		push	{r4, r5, r6, lr}
 997              		.cfi_def_cfa_offset 16
 998              		.cfi_offset 4, -16
 999              		.cfi_offset 5, -12
 1000              		.cfi_offset 6, -8
 1001              		.cfi_offset 14, -4
 1002 0002 0400     		movs	r4, r0
 1003 0004 0D00     		movs	r5, r1
 857:Generated_Source\PSoC4/ADCInput.c ****         float32 volts;
 858:Generated_Source\PSoC4/ADCInput.c **** 
 859:Generated_Source\PSoC4/ADCInput.c ****         /* Halt CPU in debug mode if channel is out of valid range */
 860:Generated_Source\PSoC4/ADCInput.c ****         CYASSERT(chan < ADCInput_TOTAL_CHANNELS_NUM);
 1004              		.loc 1 860 0
 1005 0006 0128     		cmp	r0, #1
 1006 0008 02D9     		bls	.L78
 1007              		.loc 1 860 0 is_stmt 0 discriminator 1
ARM GAS  C:\Users\quint\AppData\Local\Temp\ccHDjPtC.s 			page 34


 1008 000a 0020     		movs	r0, #0
 1009              	.LVL77:
 1010 000c FFF7FEFF 		bl	CyHalt
 1011              	.LVL78:
 1012              	.L78:
 861:Generated_Source\PSoC4/ADCInput.c **** 
 862:Generated_Source\PSoC4/ADCInput.c ****         /* Divide the adcCount when accumulate averaging mode selected */
 863:Generated_Source\PSoC4/ADCInput.c ****         #if(ADCInput_DEFAULT_AVG_MODE == ADCInput__ACCUMULATE)
 864:Generated_Source\PSoC4/ADCInput.c ****             if((ADCInput_channelsConfig[chan] & ADCInput_AVERAGING_EN) != 0u)
 865:Generated_Source\PSoC4/ADCInput.c ****             {
 866:Generated_Source\PSoC4/ADCInput.c ****                 adcCounts /= ADCInput_DEFAULT_AVG_SAMPLES_DIV;
 867:Generated_Source\PSoC4/ADCInput.c ****             }
 868:Generated_Source\PSoC4/ADCInput.c ****         #endif /* ADCInput_DEFAULT_AVG_MODE == ADCInput__ACCUMULATE */
 869:Generated_Source\PSoC4/ADCInput.c **** 
 870:Generated_Source\PSoC4/ADCInput.c ****         /* Subtract ADC offset */
 871:Generated_Source\PSoC4/ADCInput.c ****         adcCounts -= ADCInput_offset[chan];
 1013              		.loc 1 871 0 is_stmt 1
 1014 0010 6200     		lsls	r2, r4, #1
 1015 0012 0A4B     		ldr	r3, .L79
 1016 0014 D05A     		ldrh	r0, [r2, r3]
 1017 0016 00B2     		sxth	r0, r0
 1018 0018 281A     		subs	r0, r5, r0
 1019 001a 00B2     		sxth	r0, r0
 1020              	.LVL79:
 872:Generated_Source\PSoC4/ADCInput.c **** 
 873:Generated_Source\PSoC4/ADCInput.c ****         volts = ((float32)adcCounts * ADCInput_10V_COUNTS) / (float32)ADCInput_countsPer10Volt[chan
 1021              		.loc 1 873 0
 1022 001c FFF7FEFF 		bl	__aeabi_i2f
 1023              	.LVL80:
 1024 0020 0749     		ldr	r1, .L79+4
 1025 0022 FFF7FEFF 		bl	__aeabi_fmul
 1026              	.LVL81:
 1027 0026 051C     		adds	r5, r0, #0
 1028 0028 A400     		lsls	r4, r4, #2
 1029              	.LVL82:
 1030 002a 064B     		ldr	r3, .L79+8
 1031 002c E058     		ldr	r0, [r4, r3]
 1032 002e FFF7FEFF 		bl	__aeabi_i2f
 1033              	.LVL83:
 1034 0032 011C     		adds	r1, r0, #0
 1035 0034 281C     		adds	r0, r5, #0
 1036 0036 FFF7FEFF 		bl	__aeabi_fdiv
 1037              	.LVL84:
 874:Generated_Source\PSoC4/ADCInput.c **** 
 875:Generated_Source\PSoC4/ADCInput.c ****         return( volts );
 876:Generated_Source\PSoC4/ADCInput.c ****     }
 1038              		.loc 1 876 0
 1039              		@ sp needed
 1040 003a 70BD     		pop	{r4, r5, r6, pc}
 1041              	.L80:
 1042              		.align	2
 1043              	.L79:
 1044 003c 00000000 		.word	ADCInput_offset
 1045 0040 00002041 		.word	1092616192
 1046 0044 00000000 		.word	ADCInput_countsPer10Volt
 1047              		.cfi_endproc
 1048              	.LFE17:
ARM GAS  C:\Users\quint\AppData\Local\Temp\ccHDjPtC.s 			page 35


 1049              		.size	ADCInput_CountsTo_Volts, .-ADCInput_CountsTo_Volts
 1050              		.comm	ADCInput_countsPer10Volt,8,4
 1051              		.comm	ADCInput_offset,4,4
 1052              		.global	ADCInput_initVar
 1053              		.section	.rodata
 1054              		.align	2
 1055              		.set	.LANCHOR0,. + 0
 1056              		.type	ADCInput_channelsConfig, %object
 1057              		.size	ADCInput_channelsConfig, 8
 1058              	ADCInput_channelsConfig:
 1059 0000 00000000 		.space	8
 1059      00000000 
 1060              		.type	ADCInput_InputsPlacement.4874, %object
 1061              		.size	ADCInput_InputsPlacement.4874, 2
 1062              	ADCInput_InputsPlacement.4874:
 1063 0008 00       		.byte	0
 1064 0009 01       		.byte	1
 1065              		.bss
 1066              		.set	.LANCHOR1,. + 0
 1067              		.type	ADCInput_initVar, %object
 1068              		.size	ADCInput_initVar, 1
 1069              	ADCInput_initVar:
 1070 0000 00       		.space	1
 1071              		.text
 1072              	.Letext0:
 1073              		.file 2 "Generated_Source\\PSoC4\\cytypes.h"
 1074              		.file 3 "Generated_Source\\PSoC4\\CyLib.h"