ARM GAS  C:\Users\quint\AppData\Local\Temp\ccqX8RMg.s 			page 1


   1              		.syntax unified
   2              		.cpu cortex-m0
   3              		.fpu softvfp
   4              		.eabi_attribute 20, 1
   5              		.eabi_attribute 21, 1
   6              		.eabi_attribute 23, 3
   7              		.eabi_attribute 24, 1
   8              		.eabi_attribute 25, 1
   9              		.eabi_attribute 26, 1
  10              		.eabi_attribute 30, 1
  11              		.eabi_attribute 34, 0
  12              		.eabi_attribute 18, 4
  13              		.thumb
  14              		.syntax unified
  15              		.file	"A_Interrupt.c"
  16              		.text
  17              	.Ltext0:
  18              		.cfi_sections	.debug_frame
  19              		.global	__aeabi_i2d
  20              		.global	__aeabi_dmul
  21              		.global	__aeabi_dadd
  22              		.global	__aeabi_d2iz
  23              		.section	.text.A_Interrupt_Interrupt,"ax",%progbits
  24              		.align	2
  25              		.global	A_Interrupt_Interrupt
  26              		.code	16
  27              		.thumb_func
  28              		.type	A_Interrupt_Interrupt, %function
  29              	A_Interrupt_Interrupt:
  30              	.LFB35:
  31              		.file 1 "Generated_Source\\PSoC4\\A_Interrupt.c"
   1:Generated_Source\PSoC4/A_Interrupt.c **** /*******************************************************************************
   2:Generated_Source\PSoC4/A_Interrupt.c **** * File Name: A_Interrupt.c  
   3:Generated_Source\PSoC4/A_Interrupt.c **** * Version 1.70
   4:Generated_Source\PSoC4/A_Interrupt.c **** *
   5:Generated_Source\PSoC4/A_Interrupt.c **** *  Description:
   6:Generated_Source\PSoC4/A_Interrupt.c **** *   API for controlling the state of an interrupt.
   7:Generated_Source\PSoC4/A_Interrupt.c **** *
   8:Generated_Source\PSoC4/A_Interrupt.c **** *
   9:Generated_Source\PSoC4/A_Interrupt.c **** *  Note:
  10:Generated_Source\PSoC4/A_Interrupt.c **** *
  11:Generated_Source\PSoC4/A_Interrupt.c **** ********************************************************************************
  12:Generated_Source\PSoC4/A_Interrupt.c **** * Copyright 2008-2015, Cypress Semiconductor Corporation.  All rights reserved.
  13:Generated_Source\PSoC4/A_Interrupt.c **** * You may use this file only in accordance with the license, terms, conditions, 
  14:Generated_Source\PSoC4/A_Interrupt.c **** * disclaimers, and limitations in the end user license agreement accompanying 
  15:Generated_Source\PSoC4/A_Interrupt.c **** * the software package with which this file was provided.
  16:Generated_Source\PSoC4/A_Interrupt.c **** *******************************************************************************/
  17:Generated_Source\PSoC4/A_Interrupt.c **** 
  18:Generated_Source\PSoC4/A_Interrupt.c **** 
  19:Generated_Source\PSoC4/A_Interrupt.c **** #include <cydevice_trm.h>
  20:Generated_Source\PSoC4/A_Interrupt.c **** #include <CyLib.h>
  21:Generated_Source\PSoC4/A_Interrupt.c **** #include <A_Interrupt.h>
  22:Generated_Source\PSoC4/A_Interrupt.c **** #include "cyapicallbacks.h"
  23:Generated_Source\PSoC4/A_Interrupt.c **** 
  24:Generated_Source\PSoC4/A_Interrupt.c **** #if !defined(A_Interrupt__REMOVED) /* Check for removal by optimization */
  25:Generated_Source\PSoC4/A_Interrupt.c **** 
  26:Generated_Source\PSoC4/A_Interrupt.c **** /*******************************************************************************
ARM GAS  C:\Users\quint\AppData\Local\Temp\ccqX8RMg.s 			page 2


  27:Generated_Source\PSoC4/A_Interrupt.c **** *  Place your includes, defines and code here 
  28:Generated_Source\PSoC4/A_Interrupt.c **** ********************************************************************************/
  29:Generated_Source\PSoC4/A_Interrupt.c **** /* `#START A_Interrupt_intc` */
  30:Generated_Source\PSoC4/A_Interrupt.c ****     
  31:Generated_Source\PSoC4/A_Interrupt.c **** #include "project.h"
  32:Generated_Source\PSoC4/A_Interrupt.c **** 
  33:Generated_Source\PSoC4/A_Interrupt.c **** extern int xPos; 
  34:Generated_Source\PSoC4/A_Interrupt.c **** 
  35:Generated_Source\PSoC4/A_Interrupt.c **** /* `#END` */
  36:Generated_Source\PSoC4/A_Interrupt.c **** 
  37:Generated_Source\PSoC4/A_Interrupt.c **** extern cyisraddress CyRamVectors[CYINT_IRQ_BASE + CY_NUM_INTERRUPTS];
  38:Generated_Source\PSoC4/A_Interrupt.c **** 
  39:Generated_Source\PSoC4/A_Interrupt.c **** /* Declared in startup, used to set unused interrupts to. */
  40:Generated_Source\PSoC4/A_Interrupt.c **** CY_ISR_PROTO(IntDefaultHandler);
  41:Generated_Source\PSoC4/A_Interrupt.c **** 
  42:Generated_Source\PSoC4/A_Interrupt.c **** 
  43:Generated_Source\PSoC4/A_Interrupt.c **** /*******************************************************************************
  44:Generated_Source\PSoC4/A_Interrupt.c **** * Function Name: A_Interrupt_Start
  45:Generated_Source\PSoC4/A_Interrupt.c **** ********************************************************************************
  46:Generated_Source\PSoC4/A_Interrupt.c **** *
  47:Generated_Source\PSoC4/A_Interrupt.c **** * Summary:
  48:Generated_Source\PSoC4/A_Interrupt.c **** *  Set up the interrupt and enable it. This function disables the interrupt, 
  49:Generated_Source\PSoC4/A_Interrupt.c **** *  sets the default interrupt vector, sets the priority from the value in the
  50:Generated_Source\PSoC4/A_Interrupt.c **** *  Design Wide Resources Interrupt Editor, then enables the interrupt to the 
  51:Generated_Source\PSoC4/A_Interrupt.c **** *  interrupt controller.
  52:Generated_Source\PSoC4/A_Interrupt.c **** *
  53:Generated_Source\PSoC4/A_Interrupt.c **** * Parameters:  
  54:Generated_Source\PSoC4/A_Interrupt.c **** *   None
  55:Generated_Source\PSoC4/A_Interrupt.c **** *
  56:Generated_Source\PSoC4/A_Interrupt.c **** * Return:
  57:Generated_Source\PSoC4/A_Interrupt.c **** *   None
  58:Generated_Source\PSoC4/A_Interrupt.c **** *
  59:Generated_Source\PSoC4/A_Interrupt.c **** *******************************************************************************/
  60:Generated_Source\PSoC4/A_Interrupt.c **** void A_Interrupt_Start(void)
  61:Generated_Source\PSoC4/A_Interrupt.c **** {
  62:Generated_Source\PSoC4/A_Interrupt.c ****     /* For all we know the interrupt is active. */
  63:Generated_Source\PSoC4/A_Interrupt.c ****     A_Interrupt_Disable();
  64:Generated_Source\PSoC4/A_Interrupt.c **** 
  65:Generated_Source\PSoC4/A_Interrupt.c ****     /* Set the ISR to point to the A_Interrupt Interrupt. */
  66:Generated_Source\PSoC4/A_Interrupt.c ****     A_Interrupt_SetVector(&A_Interrupt_Interrupt);
  67:Generated_Source\PSoC4/A_Interrupt.c **** 
  68:Generated_Source\PSoC4/A_Interrupt.c ****     /* Set the priority. */
  69:Generated_Source\PSoC4/A_Interrupt.c ****     A_Interrupt_SetPriority((uint8)A_Interrupt_INTC_PRIOR_NUMBER);
  70:Generated_Source\PSoC4/A_Interrupt.c **** 
  71:Generated_Source\PSoC4/A_Interrupt.c ****     /* Enable it. */
  72:Generated_Source\PSoC4/A_Interrupt.c ****     A_Interrupt_Enable();
  73:Generated_Source\PSoC4/A_Interrupt.c **** }
  74:Generated_Source\PSoC4/A_Interrupt.c **** 
  75:Generated_Source\PSoC4/A_Interrupt.c **** 
  76:Generated_Source\PSoC4/A_Interrupt.c **** /*******************************************************************************
  77:Generated_Source\PSoC4/A_Interrupt.c **** * Function Name: A_Interrupt_StartEx
  78:Generated_Source\PSoC4/A_Interrupt.c **** ********************************************************************************
  79:Generated_Source\PSoC4/A_Interrupt.c **** *
  80:Generated_Source\PSoC4/A_Interrupt.c **** * Summary:
  81:Generated_Source\PSoC4/A_Interrupt.c **** *  Sets up the interrupt and enables it. This function disables the interrupt,
  82:Generated_Source\PSoC4/A_Interrupt.c **** *  sets the interrupt vector based on the address passed in, sets the priority 
  83:Generated_Source\PSoC4/A_Interrupt.c **** *  from the value in the Design Wide Resources Interrupt Editor, then enables 
ARM GAS  C:\Users\quint\AppData\Local\Temp\ccqX8RMg.s 			page 3


  84:Generated_Source\PSoC4/A_Interrupt.c **** *  the interrupt to the interrupt controller.
  85:Generated_Source\PSoC4/A_Interrupt.c **** *  
  86:Generated_Source\PSoC4/A_Interrupt.c **** *  When defining ISR functions, the CY_ISR and CY_ISR_PROTO macros should be 
  87:Generated_Source\PSoC4/A_Interrupt.c **** *  used to provide consistent definition across compilers:
  88:Generated_Source\PSoC4/A_Interrupt.c **** *  
  89:Generated_Source\PSoC4/A_Interrupt.c **** *  Function definition example:
  90:Generated_Source\PSoC4/A_Interrupt.c **** *   CY_ISR(MyISR)
  91:Generated_Source\PSoC4/A_Interrupt.c **** *   {
  92:Generated_Source\PSoC4/A_Interrupt.c **** *   }
  93:Generated_Source\PSoC4/A_Interrupt.c **** *   Function prototype example:
  94:Generated_Source\PSoC4/A_Interrupt.c **** *   CY_ISR_PROTO(MyISR);
  95:Generated_Source\PSoC4/A_Interrupt.c **** *
  96:Generated_Source\PSoC4/A_Interrupt.c **** * Parameters:  
  97:Generated_Source\PSoC4/A_Interrupt.c **** *   address: Address of the ISR to set in the interrupt vector table.
  98:Generated_Source\PSoC4/A_Interrupt.c **** *
  99:Generated_Source\PSoC4/A_Interrupt.c **** * Return:
 100:Generated_Source\PSoC4/A_Interrupt.c **** *   None
 101:Generated_Source\PSoC4/A_Interrupt.c **** *
 102:Generated_Source\PSoC4/A_Interrupt.c **** *******************************************************************************/
 103:Generated_Source\PSoC4/A_Interrupt.c **** void A_Interrupt_StartEx(cyisraddress address)
 104:Generated_Source\PSoC4/A_Interrupt.c **** {
 105:Generated_Source\PSoC4/A_Interrupt.c ****     /* For all we know the interrupt is active. */
 106:Generated_Source\PSoC4/A_Interrupt.c ****     A_Interrupt_Disable();
 107:Generated_Source\PSoC4/A_Interrupt.c **** 
 108:Generated_Source\PSoC4/A_Interrupt.c ****     /* Set the ISR to point to the A_Interrupt Interrupt. */
 109:Generated_Source\PSoC4/A_Interrupt.c ****     A_Interrupt_SetVector(address);
 110:Generated_Source\PSoC4/A_Interrupt.c **** 
 111:Generated_Source\PSoC4/A_Interrupt.c ****     /* Set the priority. */
 112:Generated_Source\PSoC4/A_Interrupt.c ****     A_Interrupt_SetPriority((uint8)A_Interrupt_INTC_PRIOR_NUMBER);
 113:Generated_Source\PSoC4/A_Interrupt.c **** 
 114:Generated_Source\PSoC4/A_Interrupt.c ****     /* Enable it. */
 115:Generated_Source\PSoC4/A_Interrupt.c ****     A_Interrupt_Enable();
 116:Generated_Source\PSoC4/A_Interrupt.c **** }
 117:Generated_Source\PSoC4/A_Interrupt.c **** 
 118:Generated_Source\PSoC4/A_Interrupt.c **** 
 119:Generated_Source\PSoC4/A_Interrupt.c **** /*******************************************************************************
 120:Generated_Source\PSoC4/A_Interrupt.c **** * Function Name: A_Interrupt_Stop
 121:Generated_Source\PSoC4/A_Interrupt.c **** ********************************************************************************
 122:Generated_Source\PSoC4/A_Interrupt.c **** *
 123:Generated_Source\PSoC4/A_Interrupt.c **** * Summary:
 124:Generated_Source\PSoC4/A_Interrupt.c **** *   Disables and removes the interrupt.
 125:Generated_Source\PSoC4/A_Interrupt.c **** *
 126:Generated_Source\PSoC4/A_Interrupt.c **** * Parameters:  
 127:Generated_Source\PSoC4/A_Interrupt.c **** *   None
 128:Generated_Source\PSoC4/A_Interrupt.c **** *
 129:Generated_Source\PSoC4/A_Interrupt.c **** * Return:
 130:Generated_Source\PSoC4/A_Interrupt.c **** *   None
 131:Generated_Source\PSoC4/A_Interrupt.c **** *
 132:Generated_Source\PSoC4/A_Interrupt.c **** *******************************************************************************/
 133:Generated_Source\PSoC4/A_Interrupt.c **** void A_Interrupt_Stop(void)
 134:Generated_Source\PSoC4/A_Interrupt.c **** {
 135:Generated_Source\PSoC4/A_Interrupt.c ****     /* Disable this interrupt. */
 136:Generated_Source\PSoC4/A_Interrupt.c ****     A_Interrupt_Disable();
 137:Generated_Source\PSoC4/A_Interrupt.c **** 
 138:Generated_Source\PSoC4/A_Interrupt.c ****     /* Set the ISR to point to the passive one. */
 139:Generated_Source\PSoC4/A_Interrupt.c ****     A_Interrupt_SetVector(&IntDefaultHandler);
 140:Generated_Source\PSoC4/A_Interrupt.c **** }
ARM GAS  C:\Users\quint\AppData\Local\Temp\ccqX8RMg.s 			page 4


 141:Generated_Source\PSoC4/A_Interrupt.c **** 
 142:Generated_Source\PSoC4/A_Interrupt.c **** 
 143:Generated_Source\PSoC4/A_Interrupt.c **** /*******************************************************************************
 144:Generated_Source\PSoC4/A_Interrupt.c **** * Function Name: A_Interrupt_Interrupt
 145:Generated_Source\PSoC4/A_Interrupt.c **** ********************************************************************************
 146:Generated_Source\PSoC4/A_Interrupt.c **** *
 147:Generated_Source\PSoC4/A_Interrupt.c **** * Summary:
 148:Generated_Source\PSoC4/A_Interrupt.c **** *   The default Interrupt Service Routine for A_Interrupt.
 149:Generated_Source\PSoC4/A_Interrupt.c **** *
 150:Generated_Source\PSoC4/A_Interrupt.c **** *   Add custom code between the START and END comments to keep the next version
 151:Generated_Source\PSoC4/A_Interrupt.c **** *   of this file from over-writing your code.
 152:Generated_Source\PSoC4/A_Interrupt.c **** *
 153:Generated_Source\PSoC4/A_Interrupt.c **** *   Note You may use either the default ISR by using this API, or you may define
 154:Generated_Source\PSoC4/A_Interrupt.c **** *   your own separate ISR through ISR_StartEx().
 155:Generated_Source\PSoC4/A_Interrupt.c **** *
 156:Generated_Source\PSoC4/A_Interrupt.c **** * Parameters:  
 157:Generated_Source\PSoC4/A_Interrupt.c **** *   None
 158:Generated_Source\PSoC4/A_Interrupt.c **** *
 159:Generated_Source\PSoC4/A_Interrupt.c **** * Return:
 160:Generated_Source\PSoC4/A_Interrupt.c **** *   None
 161:Generated_Source\PSoC4/A_Interrupt.c **** *
 162:Generated_Source\PSoC4/A_Interrupt.c **** *******************************************************************************/
 163:Generated_Source\PSoC4/A_Interrupt.c **** CY_ISR(A_Interrupt_Interrupt)
 164:Generated_Source\PSoC4/A_Interrupt.c **** {
  32              		.loc 1 164 0
  33              		.cfi_startproc
  34              		@ args = 0, pretend = 0, frame = 0
  35              		@ frame_needed = 0, uses_anonymous_args = 0
  36 0000 10B5     		push	{r4, lr}
  37              		.cfi_def_cfa_offset 8
  38              		.cfi_offset 4, -8
  39              		.cfi_offset 14, -4
 165:Generated_Source\PSoC4/A_Interrupt.c ****     #ifdef A_Interrupt_INTERRUPT_INTERRUPT_CALLBACK
 166:Generated_Source\PSoC4/A_Interrupt.c ****         A_Interrupt_Interrupt_InterruptCallback();
 167:Generated_Source\PSoC4/A_Interrupt.c ****     #endif /* A_Interrupt_INTERRUPT_INTERRUPT_CALLBACK */ 
 168:Generated_Source\PSoC4/A_Interrupt.c **** 
 169:Generated_Source\PSoC4/A_Interrupt.c ****     /*  Place your Interrupt code here. */
 170:Generated_Source\PSoC4/A_Interrupt.c ****     /* `#START A_Interrupt_Interrupt` */
 171:Generated_Source\PSoC4/A_Interrupt.c **** 
 172:Generated_Source\PSoC4/A_Interrupt.c ****     
 173:Generated_Source\PSoC4/A_Interrupt.c ****            
 174:Generated_Source\PSoC4/A_Interrupt.c ****             if(ADCInput_IsEndConversion(ADCInput_RETURN_STATUS))
  40              		.loc 1 174 0
  41 0002 0120     		movs	r0, #1
  42 0004 FFF7FEFF 		bl	ADCInput_IsEndConversion
  43              	.LVL0:
  44 0008 0028     		cmp	r0, #0
  45 000a 16D0     		beq	.L2
 175:Generated_Source\PSoC4/A_Interrupt.c ****             {
 176:Generated_Source\PSoC4/A_Interrupt.c ****             GLCD_Pixel(((ADCInput_GetResult16(1)*-0.044)+100),xPos++,GLCD_BLUE);    //Print the pix
  46              		.loc 1 176 0
  47 000c 0120     		movs	r0, #1
  48 000e FFF7FEFF 		bl	ADCInput_GetResult16
  49              	.LVL1:
  50 0012 FFF7FEFF 		bl	__aeabi_i2d
  51              	.LVL2:
  52 0016 0B4A     		ldr	r2, .L3
ARM GAS  C:\Users\quint\AppData\Local\Temp\ccqX8RMg.s 			page 5


  53 0018 0B4B     		ldr	r3, .L3+4
  54 001a FFF7FEFF 		bl	__aeabi_dmul
  55              	.LVL3:
  56 001e 0022     		movs	r2, #0
  57 0020 0A4B     		ldr	r3, .L3+8
  58 0022 FFF7FEFF 		bl	__aeabi_dadd
  59              	.LVL4:
  60 0026 0A4B     		ldr	r3, .L3+12
  61 0028 1C68     		ldr	r4, [r3]
  62 002a 621C     		adds	r2, r4, #1
  63 002c 1A60     		str	r2, [r3]
  64 002e FFF7FEFF 		bl	__aeabi_d2iz
  65              	.LVL5:
  66 0032 0F22     		movs	r2, #15
  67 0034 2100     		movs	r1, r4
  68 0036 FFF7FEFF 		bl	GLCD_Pixel
  69              	.LVL6:
  70              	.L2:
 177:Generated_Source\PSoC4/A_Interrupt.c ****            // xPos++;                             //Increment the xposition
 178:Generated_Source\PSoC4/A_Interrupt.c ****             }
 179:Generated_Source\PSoC4/A_Interrupt.c ****             Timer_1_ClearInterrupt(Timer_1_INTR_MASK_TC);
  71              		.loc 1 179 0
  72 003a 0120     		movs	r0, #1
  73 003c FFF7FEFF 		bl	Timer_1_ClearInterrupt
  74              	.LVL7:
 180:Generated_Source\PSoC4/A_Interrupt.c ****             //A_Interrupt_ClearPending(); //Needed to make other interrupts work
 181:Generated_Source\PSoC4/A_Interrupt.c **** 
 182:Generated_Source\PSoC4/A_Interrupt.c ****    
 183:Generated_Source\PSoC4/A_Interrupt.c **** 
 184:Generated_Source\PSoC4/A_Interrupt.c ****     /* `#END` */
 185:Generated_Source\PSoC4/A_Interrupt.c **** }
  75              		.loc 1 185 0
  76              		@ sp needed
  77 0040 10BD     		pop	{r4, pc}
  78              	.L4:
  79 0042 C046     		.align	2
  80              	.L3:
  81 0044 BA490C02 		.word	34359738
  82 0048 2B87A6BF 		.word	-1079605461
  83 004c 00005940 		.word	1079574528
  84 0050 00000000 		.word	xPos
  85              		.cfi_endproc
  86              	.LFE35:
  87              		.size	A_Interrupt_Interrupt, .-A_Interrupt_Interrupt
  88              		.section	.text.A_Interrupt_SetVector,"ax",%progbits
  89              		.align	2
  90              		.global	A_Interrupt_SetVector
  91              		.code	16
  92              		.thumb_func
  93              		.type	A_Interrupt_SetVector, %function
  94              	A_Interrupt_SetVector:
  95              	.LFB36:
 186:Generated_Source\PSoC4/A_Interrupt.c **** 
 187:Generated_Source\PSoC4/A_Interrupt.c **** 
 188:Generated_Source\PSoC4/A_Interrupt.c **** /*******************************************************************************
 189:Generated_Source\PSoC4/A_Interrupt.c **** * Function Name: A_Interrupt_SetVector
 190:Generated_Source\PSoC4/A_Interrupt.c **** ********************************************************************************
ARM GAS  C:\Users\quint\AppData\Local\Temp\ccqX8RMg.s 			page 6


 191:Generated_Source\PSoC4/A_Interrupt.c **** *
 192:Generated_Source\PSoC4/A_Interrupt.c **** * Summary:
 193:Generated_Source\PSoC4/A_Interrupt.c **** *   Change the ISR vector for the Interrupt. Note calling A_Interrupt_Start
 194:Generated_Source\PSoC4/A_Interrupt.c **** *   will override any effect this method would have had. To set the vector 
 195:Generated_Source\PSoC4/A_Interrupt.c **** *   before the component has been started use A_Interrupt_StartEx instead.
 196:Generated_Source\PSoC4/A_Interrupt.c **** * 
 197:Generated_Source\PSoC4/A_Interrupt.c **** *   When defining ISR functions, the CY_ISR and CY_ISR_PROTO macros should be 
 198:Generated_Source\PSoC4/A_Interrupt.c **** *   used to provide consistent definition across compilers:
 199:Generated_Source\PSoC4/A_Interrupt.c **** *
 200:Generated_Source\PSoC4/A_Interrupt.c **** *   Function definition example:
 201:Generated_Source\PSoC4/A_Interrupt.c **** *   CY_ISR(MyISR)
 202:Generated_Source\PSoC4/A_Interrupt.c **** *   {
 203:Generated_Source\PSoC4/A_Interrupt.c **** *   }
 204:Generated_Source\PSoC4/A_Interrupt.c **** *
 205:Generated_Source\PSoC4/A_Interrupt.c **** *   Function prototype example:
 206:Generated_Source\PSoC4/A_Interrupt.c **** *     CY_ISR_PROTO(MyISR);
 207:Generated_Source\PSoC4/A_Interrupt.c **** *
 208:Generated_Source\PSoC4/A_Interrupt.c **** * Parameters:
 209:Generated_Source\PSoC4/A_Interrupt.c **** *   address: Address of the ISR to set in the interrupt vector table.
 210:Generated_Source\PSoC4/A_Interrupt.c **** *
 211:Generated_Source\PSoC4/A_Interrupt.c **** * Return:
 212:Generated_Source\PSoC4/A_Interrupt.c **** *   None
 213:Generated_Source\PSoC4/A_Interrupt.c **** *
 214:Generated_Source\PSoC4/A_Interrupt.c **** *******************************************************************************/
 215:Generated_Source\PSoC4/A_Interrupt.c **** void A_Interrupt_SetVector(cyisraddress address)
 216:Generated_Source\PSoC4/A_Interrupt.c **** {
  96              		.loc 1 216 0
  97              		.cfi_startproc
  98              		@ args = 0, pretend = 0, frame = 0
  99              		@ frame_needed = 0, uses_anonymous_args = 0
 100              		@ link register save eliminated.
 101              	.LVL8:
 217:Generated_Source\PSoC4/A_Interrupt.c ****     CyRamVectors[CYINT_IRQ_BASE + A_Interrupt__INTC_NUMBER] = address;
 102              		.loc 1 217 0
 103 0000 8023     		movs	r3, #128
 104 0002 014A     		ldr	r2, .L6
 105 0004 D050     		str	r0, [r2, r3]
 218:Generated_Source\PSoC4/A_Interrupt.c **** }
 106              		.loc 1 218 0
 107              		@ sp needed
 108 0006 7047     		bx	lr
 109              	.L7:
 110              		.align	2
 111              	.L6:
 112 0008 00000000 		.word	CyRamVectors
 113              		.cfi_endproc
 114              	.LFE36:
 115              		.size	A_Interrupt_SetVector, .-A_Interrupt_SetVector
 116              		.section	.text.A_Interrupt_GetVector,"ax",%progbits
 117              		.align	2
 118              		.global	A_Interrupt_GetVector
 119              		.code	16
 120              		.thumb_func
 121              		.type	A_Interrupt_GetVector, %function
 122              	A_Interrupt_GetVector:
 123              	.LFB37:
 219:Generated_Source\PSoC4/A_Interrupt.c **** 
ARM GAS  C:\Users\quint\AppData\Local\Temp\ccqX8RMg.s 			page 7


 220:Generated_Source\PSoC4/A_Interrupt.c **** 
 221:Generated_Source\PSoC4/A_Interrupt.c **** /*******************************************************************************
 222:Generated_Source\PSoC4/A_Interrupt.c **** * Function Name: A_Interrupt_GetVector
 223:Generated_Source\PSoC4/A_Interrupt.c **** ********************************************************************************
 224:Generated_Source\PSoC4/A_Interrupt.c **** *
 225:Generated_Source\PSoC4/A_Interrupt.c **** * Summary:
 226:Generated_Source\PSoC4/A_Interrupt.c **** *   Gets the "address" of the current ISR vector for the Interrupt.
 227:Generated_Source\PSoC4/A_Interrupt.c **** *
 228:Generated_Source\PSoC4/A_Interrupt.c **** * Parameters:
 229:Generated_Source\PSoC4/A_Interrupt.c **** *   None
 230:Generated_Source\PSoC4/A_Interrupt.c **** *
 231:Generated_Source\PSoC4/A_Interrupt.c **** * Return:
 232:Generated_Source\PSoC4/A_Interrupt.c **** *   Address of the ISR in the interrupt vector table.
 233:Generated_Source\PSoC4/A_Interrupt.c **** *
 234:Generated_Source\PSoC4/A_Interrupt.c **** *******************************************************************************/
 235:Generated_Source\PSoC4/A_Interrupt.c **** cyisraddress A_Interrupt_GetVector(void)
 236:Generated_Source\PSoC4/A_Interrupt.c **** {
 124              		.loc 1 236 0
 125              		.cfi_startproc
 126              		@ args = 0, pretend = 0, frame = 0
 127              		@ frame_needed = 0, uses_anonymous_args = 0
 128              		@ link register save eliminated.
 237:Generated_Source\PSoC4/A_Interrupt.c ****     return CyRamVectors[CYINT_IRQ_BASE + A_Interrupt__INTC_NUMBER];
 129              		.loc 1 237 0
 130 0000 8023     		movs	r3, #128
 131 0002 014A     		ldr	r2, .L9
 132 0004 D058     		ldr	r0, [r2, r3]
 238:Generated_Source\PSoC4/A_Interrupt.c **** }
 133              		.loc 1 238 0
 134              		@ sp needed
 135 0006 7047     		bx	lr
 136              	.L10:
 137              		.align	2
 138              	.L9:
 139 0008 00000000 		.word	CyRamVectors
 140              		.cfi_endproc
 141              	.LFE37:
 142              		.size	A_Interrupt_GetVector, .-A_Interrupt_GetVector
 143              		.section	.text.A_Interrupt_SetPriority,"ax",%progbits
 144              		.align	2
 145              		.global	A_Interrupt_SetPriority
 146              		.code	16
 147              		.thumb_func
 148              		.type	A_Interrupt_SetPriority, %function
 149              	A_Interrupt_SetPriority:
 150              	.LFB38:
 239:Generated_Source\PSoC4/A_Interrupt.c **** 
 240:Generated_Source\PSoC4/A_Interrupt.c **** 
 241:Generated_Source\PSoC4/A_Interrupt.c **** /*******************************************************************************
 242:Generated_Source\PSoC4/A_Interrupt.c **** * Function Name: A_Interrupt_SetPriority
 243:Generated_Source\PSoC4/A_Interrupt.c **** ********************************************************************************
 244:Generated_Source\PSoC4/A_Interrupt.c **** *
 245:Generated_Source\PSoC4/A_Interrupt.c **** * Summary:
 246:Generated_Source\PSoC4/A_Interrupt.c **** *   Sets the Priority of the Interrupt. 
 247:Generated_Source\PSoC4/A_Interrupt.c **** *
 248:Generated_Source\PSoC4/A_Interrupt.c **** *   Note calling A_Interrupt_Start or A_Interrupt_StartEx will 
 249:Generated_Source\PSoC4/A_Interrupt.c **** *   override any effect this API would have had. This API should only be called
ARM GAS  C:\Users\quint\AppData\Local\Temp\ccqX8RMg.s 			page 8


 250:Generated_Source\PSoC4/A_Interrupt.c **** *   after A_Interrupt_Start or A_Interrupt_StartEx has been called. 
 251:Generated_Source\PSoC4/A_Interrupt.c **** *   To set the initial priority for the component, use the Design-Wide Resources
 252:Generated_Source\PSoC4/A_Interrupt.c **** *   Interrupt Editor.
 253:Generated_Source\PSoC4/A_Interrupt.c **** *
 254:Generated_Source\PSoC4/A_Interrupt.c **** *   Note This API has no effect on Non-maskable interrupt NMI).
 255:Generated_Source\PSoC4/A_Interrupt.c **** *
 256:Generated_Source\PSoC4/A_Interrupt.c **** * Parameters:
 257:Generated_Source\PSoC4/A_Interrupt.c **** *   priority: Priority of the interrupt, 0 being the highest priority
 258:Generated_Source\PSoC4/A_Interrupt.c **** *             PSoC 3 and PSoC 5LP: Priority is from 0 to 7.
 259:Generated_Source\PSoC4/A_Interrupt.c **** *             PSoC 4: Priority is from 0 to 3.
 260:Generated_Source\PSoC4/A_Interrupt.c **** *
 261:Generated_Source\PSoC4/A_Interrupt.c **** * Return:
 262:Generated_Source\PSoC4/A_Interrupt.c **** *   None
 263:Generated_Source\PSoC4/A_Interrupt.c **** *
 264:Generated_Source\PSoC4/A_Interrupt.c **** *******************************************************************************/
 265:Generated_Source\PSoC4/A_Interrupt.c **** void A_Interrupt_SetPriority(uint8 priority)
 266:Generated_Source\PSoC4/A_Interrupt.c **** {
 151              		.loc 1 266 0
 152              		.cfi_startproc
 153              		@ args = 0, pretend = 0, frame = 0
 154              		@ frame_needed = 0, uses_anonymous_args = 0
 155              	.LVL9:
 156 0000 10B5     		push	{r4, lr}
 157              		.cfi_def_cfa_offset 8
 158              		.cfi_offset 4, -8
 159              		.cfi_offset 14, -4
 160 0002 0400     		movs	r4, r0
 161              	.LVL10:
 267:Generated_Source\PSoC4/A_Interrupt.c **** 	uint8 interruptState;
 268:Generated_Source\PSoC4/A_Interrupt.c ****     uint32 priorityOffset = ((A_Interrupt__INTC_NUMBER % 4u) * 8u) + 6u;
 269:Generated_Source\PSoC4/A_Interrupt.c ****     
 270:Generated_Source\PSoC4/A_Interrupt.c **** 	interruptState = CyEnterCriticalSection();
 162              		.loc 1 270 0
 163 0004 FFF7FEFF 		bl	CyEnterCriticalSection
 164              	.LVL11:
 271:Generated_Source\PSoC4/A_Interrupt.c ****     *A_Interrupt_INTC_PRIOR = (*A_Interrupt_INTC_PRIOR & (uint32)(~A_Interrupt__INTC_PRIOR_MASK)) |
 165              		.loc 1 271 0
 166 0008 044A     		ldr	r2, .L12
 167 000a 1368     		ldr	r3, [r2]
 168 000c C021     		movs	r1, #192
 169 000e 8B43     		bics	r3, r1
 272:Generated_Source\PSoC4/A_Interrupt.c ****                                     ((uint32)priority << priorityOffset);
 170              		.loc 1 272 0
 171 0010 A401     		lsls	r4, r4, #6
 271:Generated_Source\PSoC4/A_Interrupt.c ****     *A_Interrupt_INTC_PRIOR = (*A_Interrupt_INTC_PRIOR & (uint32)(~A_Interrupt__INTC_PRIOR_MASK)) |
 172              		.loc 1 271 0
 173 0012 1C43     		orrs	r4, r3
 174 0014 1460     		str	r4, [r2]
 273:Generated_Source\PSoC4/A_Interrupt.c **** 	CyExitCriticalSection(interruptState);
 175              		.loc 1 273 0
 176 0016 FFF7FEFF 		bl	CyExitCriticalSection
 177              	.LVL12:
 274:Generated_Source\PSoC4/A_Interrupt.c **** }
 178              		.loc 1 274 0
 179              		@ sp needed
 180 001a 10BD     		pop	{r4, pc}
 181              	.L13:
ARM GAS  C:\Users\quint\AppData\Local\Temp\ccqX8RMg.s 			page 9


 182              		.align	2
 183              	.L12:
 184 001c 10E400E0 		.word	-536812528
 185              		.cfi_endproc
 186              	.LFE38:
 187              		.size	A_Interrupt_SetPriority, .-A_Interrupt_SetPriority
 188              		.section	.text.A_Interrupt_GetPriority,"ax",%progbits
 189              		.align	2
 190              		.global	A_Interrupt_GetPriority
 191              		.code	16
 192              		.thumb_func
 193              		.type	A_Interrupt_GetPriority, %function
 194              	A_Interrupt_GetPriority:
 195              	.LFB39:
 275:Generated_Source\PSoC4/A_Interrupt.c **** 
 276:Generated_Source\PSoC4/A_Interrupt.c **** 
 277:Generated_Source\PSoC4/A_Interrupt.c **** /*******************************************************************************
 278:Generated_Source\PSoC4/A_Interrupt.c **** * Function Name: A_Interrupt_GetPriority
 279:Generated_Source\PSoC4/A_Interrupt.c **** ********************************************************************************
 280:Generated_Source\PSoC4/A_Interrupt.c **** *
 281:Generated_Source\PSoC4/A_Interrupt.c **** * Summary:
 282:Generated_Source\PSoC4/A_Interrupt.c **** *   Gets the Priority of the Interrupt.
 283:Generated_Source\PSoC4/A_Interrupt.c **** *
 284:Generated_Source\PSoC4/A_Interrupt.c **** * Parameters:
 285:Generated_Source\PSoC4/A_Interrupt.c **** *   None
 286:Generated_Source\PSoC4/A_Interrupt.c **** *
 287:Generated_Source\PSoC4/A_Interrupt.c **** * Return:
 288:Generated_Source\PSoC4/A_Interrupt.c **** *   Priority of the interrupt, 0 being the highest priority
 289:Generated_Source\PSoC4/A_Interrupt.c **** *    PSoC 3 and PSoC 5LP: Priority is from 0 to 7.
 290:Generated_Source\PSoC4/A_Interrupt.c **** *    PSoC 4: Priority is from 0 to 3.
 291:Generated_Source\PSoC4/A_Interrupt.c **** *
 292:Generated_Source\PSoC4/A_Interrupt.c **** *******************************************************************************/
 293:Generated_Source\PSoC4/A_Interrupt.c **** uint8 A_Interrupt_GetPriority(void)
 294:Generated_Source\PSoC4/A_Interrupt.c **** {
 196              		.loc 1 294 0
 197              		.cfi_startproc
 198              		@ args = 0, pretend = 0, frame = 0
 199              		@ frame_needed = 0, uses_anonymous_args = 0
 200              		@ link register save eliminated.
 201              	.LVL13:
 295:Generated_Source\PSoC4/A_Interrupt.c ****     uint32 priority;
 296:Generated_Source\PSoC4/A_Interrupt.c **** 	uint32 priorityOffset = ((A_Interrupt__INTC_NUMBER % 4u) * 8u) + 6u;
 297:Generated_Source\PSoC4/A_Interrupt.c **** 
 298:Generated_Source\PSoC4/A_Interrupt.c ****     priority = (*A_Interrupt_INTC_PRIOR & A_Interrupt__INTC_PRIOR_MASK) >> priorityOffset;
 202              		.loc 1 298 0
 203 0000 024B     		ldr	r3, .L15
 204 0002 1868     		ldr	r0, [r3]
 205 0004 8009     		lsrs	r0, r0, #6
 206              	.LVL14:
 299:Generated_Source\PSoC4/A_Interrupt.c **** 
 300:Generated_Source\PSoC4/A_Interrupt.c ****     return (uint8)priority;
 207              		.loc 1 300 0
 208 0006 0323     		movs	r3, #3
 209 0008 1840     		ands	r0, r3
 210              	.LVL15:
 301:Generated_Source\PSoC4/A_Interrupt.c **** }
 211              		.loc 1 301 0
ARM GAS  C:\Users\quint\AppData\Local\Temp\ccqX8RMg.s 			page 10


 212              		@ sp needed
 213 000a 7047     		bx	lr
 214              	.L16:
 215              		.align	2
 216              	.L15:
 217 000c 10E400E0 		.word	-536812528
 218              		.cfi_endproc
 219              	.LFE39:
 220              		.size	A_Interrupt_GetPriority, .-A_Interrupt_GetPriority
 221              		.section	.text.A_Interrupt_Enable,"ax",%progbits
 222              		.align	2
 223              		.global	A_Interrupt_Enable
 224              		.code	16
 225              		.thumb_func
 226              		.type	A_Interrupt_Enable, %function
 227              	A_Interrupt_Enable:
 228              	.LFB40:
 302:Generated_Source\PSoC4/A_Interrupt.c **** 
 303:Generated_Source\PSoC4/A_Interrupt.c **** 
 304:Generated_Source\PSoC4/A_Interrupt.c **** /*******************************************************************************
 305:Generated_Source\PSoC4/A_Interrupt.c **** * Function Name: A_Interrupt_Enable
 306:Generated_Source\PSoC4/A_Interrupt.c **** ********************************************************************************
 307:Generated_Source\PSoC4/A_Interrupt.c **** *
 308:Generated_Source\PSoC4/A_Interrupt.c **** * Summary:
 309:Generated_Source\PSoC4/A_Interrupt.c **** *   Enables the interrupt to the interrupt controller. Do not call this function
 310:Generated_Source\PSoC4/A_Interrupt.c **** *   unless ISR_Start() has been called or the functionality of the ISR_Start() 
 311:Generated_Source\PSoC4/A_Interrupt.c **** *   function, which sets the vector and the priority, has been called.
 312:Generated_Source\PSoC4/A_Interrupt.c **** *
 313:Generated_Source\PSoC4/A_Interrupt.c **** * Parameters:
 314:Generated_Source\PSoC4/A_Interrupt.c **** *   None
 315:Generated_Source\PSoC4/A_Interrupt.c **** *
 316:Generated_Source\PSoC4/A_Interrupt.c **** * Return:
 317:Generated_Source\PSoC4/A_Interrupt.c **** *   None
 318:Generated_Source\PSoC4/A_Interrupt.c **** *
 319:Generated_Source\PSoC4/A_Interrupt.c **** *******************************************************************************/
 320:Generated_Source\PSoC4/A_Interrupt.c **** void A_Interrupt_Enable(void)
 321:Generated_Source\PSoC4/A_Interrupt.c **** {
 229              		.loc 1 321 0
 230              		.cfi_startproc
 231              		@ args = 0, pretend = 0, frame = 0
 232              		@ frame_needed = 0, uses_anonymous_args = 0
 233              		@ link register save eliminated.
 322:Generated_Source\PSoC4/A_Interrupt.c ****     /* Enable the general interrupt. */
 323:Generated_Source\PSoC4/A_Interrupt.c ****     *A_Interrupt_INTC_SET_EN = A_Interrupt__INTC_MASK;
 234              		.loc 1 323 0
 235 0000 8022     		movs	r2, #128
 236 0002 5202     		lsls	r2, r2, #9
 237 0004 014B     		ldr	r3, .L18
 238 0006 1A60     		str	r2, [r3]
 324:Generated_Source\PSoC4/A_Interrupt.c **** }
 239              		.loc 1 324 0
 240              		@ sp needed
 241 0008 7047     		bx	lr
 242              	.L19:
 243 000a C046     		.align	2
 244              	.L18:
 245 000c 00E100E0 		.word	-536813312
ARM GAS  C:\Users\quint\AppData\Local\Temp\ccqX8RMg.s 			page 11


 246              		.cfi_endproc
 247              	.LFE40:
 248              		.size	A_Interrupt_Enable, .-A_Interrupt_Enable
 249              		.section	.text.A_Interrupt_GetState,"ax",%progbits
 250              		.align	2
 251              		.global	A_Interrupt_GetState
 252              		.code	16
 253              		.thumb_func
 254              		.type	A_Interrupt_GetState, %function
 255              	A_Interrupt_GetState:
 256              	.LFB41:
 325:Generated_Source\PSoC4/A_Interrupt.c **** 
 326:Generated_Source\PSoC4/A_Interrupt.c **** 
 327:Generated_Source\PSoC4/A_Interrupt.c **** /*******************************************************************************
 328:Generated_Source\PSoC4/A_Interrupt.c **** * Function Name: A_Interrupt_GetState
 329:Generated_Source\PSoC4/A_Interrupt.c **** ********************************************************************************
 330:Generated_Source\PSoC4/A_Interrupt.c **** *
 331:Generated_Source\PSoC4/A_Interrupt.c **** * Summary:
 332:Generated_Source\PSoC4/A_Interrupt.c **** *   Gets the state (enabled, disabled) of the Interrupt.
 333:Generated_Source\PSoC4/A_Interrupt.c **** *
 334:Generated_Source\PSoC4/A_Interrupt.c **** * Parameters:
 335:Generated_Source\PSoC4/A_Interrupt.c **** *   None
 336:Generated_Source\PSoC4/A_Interrupt.c **** *
 337:Generated_Source\PSoC4/A_Interrupt.c **** * Return:
 338:Generated_Source\PSoC4/A_Interrupt.c **** *   1 if enabled, 0 if disabled.
 339:Generated_Source\PSoC4/A_Interrupt.c **** *
 340:Generated_Source\PSoC4/A_Interrupt.c **** *******************************************************************************/
 341:Generated_Source\PSoC4/A_Interrupt.c **** uint8 A_Interrupt_GetState(void)
 342:Generated_Source\PSoC4/A_Interrupt.c **** {
 257              		.loc 1 342 0
 258              		.cfi_startproc
 259              		@ args = 0, pretend = 0, frame = 0
 260              		@ frame_needed = 0, uses_anonymous_args = 0
 261              		@ link register save eliminated.
 343:Generated_Source\PSoC4/A_Interrupt.c ****     /* Get the state of the general interrupt. */
 344:Generated_Source\PSoC4/A_Interrupt.c ****     return ((*A_Interrupt_INTC_SET_EN & (uint32)A_Interrupt__INTC_MASK) != 0u) ? 1u:0u;
 262              		.loc 1 344 0
 263 0000 034B     		ldr	r3, .L23
 264 0002 1B68     		ldr	r3, [r3]
 265 0004 DB03     		lsls	r3, r3, #15
 266 0006 01D5     		bpl	.L22
 267 0008 0120     		movs	r0, #1
 268 000a 00E0     		b	.L21
 269              	.L22:
 270 000c 0020     		movs	r0, #0
 271              	.L21:
 345:Generated_Source\PSoC4/A_Interrupt.c **** }
 272              		.loc 1 345 0 discriminator 4
 273              		@ sp needed
 274 000e 7047     		bx	lr
 275              	.L24:
 276              		.align	2
 277              	.L23:
 278 0010 00E100E0 		.word	-536813312
 279              		.cfi_endproc
 280              	.LFE41:
 281              		.size	A_Interrupt_GetState, .-A_Interrupt_GetState
ARM GAS  C:\Users\quint\AppData\Local\Temp\ccqX8RMg.s 			page 12


 282              		.section	.text.A_Interrupt_Disable,"ax",%progbits
 283              		.align	2
 284              		.global	A_Interrupt_Disable
 285              		.code	16
 286              		.thumb_func
 287              		.type	A_Interrupt_Disable, %function
 288              	A_Interrupt_Disable:
 289              	.LFB42:
 346:Generated_Source\PSoC4/A_Interrupt.c **** 
 347:Generated_Source\PSoC4/A_Interrupt.c **** 
 348:Generated_Source\PSoC4/A_Interrupt.c **** /*******************************************************************************
 349:Generated_Source\PSoC4/A_Interrupt.c **** * Function Name: A_Interrupt_Disable
 350:Generated_Source\PSoC4/A_Interrupt.c **** ********************************************************************************
 351:Generated_Source\PSoC4/A_Interrupt.c **** *
 352:Generated_Source\PSoC4/A_Interrupt.c **** * Summary:
 353:Generated_Source\PSoC4/A_Interrupt.c **** *   Disables the Interrupt in the interrupt controller.
 354:Generated_Source\PSoC4/A_Interrupt.c **** *
 355:Generated_Source\PSoC4/A_Interrupt.c **** * Parameters:
 356:Generated_Source\PSoC4/A_Interrupt.c **** *   None
 357:Generated_Source\PSoC4/A_Interrupt.c **** *
 358:Generated_Source\PSoC4/A_Interrupt.c **** * Return:
 359:Generated_Source\PSoC4/A_Interrupt.c **** *   None
 360:Generated_Source\PSoC4/A_Interrupt.c **** *
 361:Generated_Source\PSoC4/A_Interrupt.c **** *******************************************************************************/
 362:Generated_Source\PSoC4/A_Interrupt.c **** void A_Interrupt_Disable(void)
 363:Generated_Source\PSoC4/A_Interrupt.c **** {
 290              		.loc 1 363 0
 291              		.cfi_startproc
 292              		@ args = 0, pretend = 0, frame = 0
 293              		@ frame_needed = 0, uses_anonymous_args = 0
 294              		@ link register save eliminated.
 364:Generated_Source\PSoC4/A_Interrupt.c ****     /* Disable the general interrupt. */
 365:Generated_Source\PSoC4/A_Interrupt.c ****     *A_Interrupt_INTC_CLR_EN = A_Interrupt__INTC_MASK;
 295              		.loc 1 365 0
 296 0000 8022     		movs	r2, #128
 297 0002 5202     		lsls	r2, r2, #9
 298 0004 014B     		ldr	r3, .L26
 299 0006 1A60     		str	r2, [r3]
 366:Generated_Source\PSoC4/A_Interrupt.c **** }
 300              		.loc 1 366 0
 301              		@ sp needed
 302 0008 7047     		bx	lr
 303              	.L27:
 304 000a C046     		.align	2
 305              	.L26:
 306 000c 80E100E0 		.word	-536813184
 307              		.cfi_endproc
 308              	.LFE42:
 309              		.size	A_Interrupt_Disable, .-A_Interrupt_Disable
 310              		.section	.text.A_Interrupt_Start,"ax",%progbits
 311              		.align	2
 312              		.global	A_Interrupt_Start
 313              		.code	16
 314              		.thumb_func
 315              		.type	A_Interrupt_Start, %function
 316              	A_Interrupt_Start:
 317              	.LFB32:
ARM GAS  C:\Users\quint\AppData\Local\Temp\ccqX8RMg.s 			page 13


  61:Generated_Source\PSoC4/A_Interrupt.c ****     /* For all we know the interrupt is active. */
 318              		.loc 1 61 0
 319              		.cfi_startproc
 320              		@ args = 0, pretend = 0, frame = 0
 321              		@ frame_needed = 0, uses_anonymous_args = 0
 322 0000 10B5     		push	{r4, lr}
 323              		.cfi_def_cfa_offset 8
 324              		.cfi_offset 4, -8
 325              		.cfi_offset 14, -4
  63:Generated_Source\PSoC4/A_Interrupt.c **** 
 326              		.loc 1 63 0
 327 0002 FFF7FEFF 		bl	A_Interrupt_Disable
 328              	.LVL16:
  66:Generated_Source\PSoC4/A_Interrupt.c **** 
 329              		.loc 1 66 0
 330 0006 0448     		ldr	r0, .L29
 331 0008 FFF7FEFF 		bl	A_Interrupt_SetVector
 332              	.LVL17:
  69:Generated_Source\PSoC4/A_Interrupt.c **** 
 333              		.loc 1 69 0
 334 000c 0320     		movs	r0, #3
 335 000e FFF7FEFF 		bl	A_Interrupt_SetPriority
 336              	.LVL18:
  72:Generated_Source\PSoC4/A_Interrupt.c **** }
 337              		.loc 1 72 0
 338 0012 FFF7FEFF 		bl	A_Interrupt_Enable
 339              	.LVL19:
  73:Generated_Source\PSoC4/A_Interrupt.c **** 
 340              		.loc 1 73 0
 341              		@ sp needed
 342 0016 10BD     		pop	{r4, pc}
 343              	.L30:
 344              		.align	2
 345              	.L29:
 346 0018 00000000 		.word	A_Interrupt_Interrupt
 347              		.cfi_endproc
 348              	.LFE32:
 349              		.size	A_Interrupt_Start, .-A_Interrupt_Start
 350              		.section	.text.A_Interrupt_StartEx,"ax",%progbits
 351              		.align	2
 352              		.global	A_Interrupt_StartEx
 353              		.code	16
 354              		.thumb_func
 355              		.type	A_Interrupt_StartEx, %function
 356              	A_Interrupt_StartEx:
 357              	.LFB33:
 104:Generated_Source\PSoC4/A_Interrupt.c ****     /* For all we know the interrupt is active. */
 358              		.loc 1 104 0
 359              		.cfi_startproc
 360              		@ args = 0, pretend = 0, frame = 0
 361              		@ frame_needed = 0, uses_anonymous_args = 0
 362              	.LVL20:
 363 0000 10B5     		push	{r4, lr}
 364              		.cfi_def_cfa_offset 8
 365              		.cfi_offset 4, -8
 366              		.cfi_offset 14, -4
 367 0002 0400     		movs	r4, r0
ARM GAS  C:\Users\quint\AppData\Local\Temp\ccqX8RMg.s 			page 14


 106:Generated_Source\PSoC4/A_Interrupt.c **** 
 368              		.loc 1 106 0
 369 0004 FFF7FEFF 		bl	A_Interrupt_Disable
 370              	.LVL21:
 109:Generated_Source\PSoC4/A_Interrupt.c **** 
 371              		.loc 1 109 0
 372 0008 2000     		movs	r0, r4
 373 000a FFF7FEFF 		bl	A_Interrupt_SetVector
 374              	.LVL22:
 112:Generated_Source\PSoC4/A_Interrupt.c **** 
 375              		.loc 1 112 0
 376 000e 0320     		movs	r0, #3
 377 0010 FFF7FEFF 		bl	A_Interrupt_SetPriority
 378              	.LVL23:
 115:Generated_Source\PSoC4/A_Interrupt.c **** }
 379              		.loc 1 115 0
 380 0014 FFF7FEFF 		bl	A_Interrupt_Enable
 381              	.LVL24:
 116:Generated_Source\PSoC4/A_Interrupt.c **** 
 382              		.loc 1 116 0
 383              		@ sp needed
 384              	.LVL25:
 385 0018 10BD     		pop	{r4, pc}
 386              		.cfi_endproc
 387              	.LFE33:
 388              		.size	A_Interrupt_StartEx, .-A_Interrupt_StartEx
 389 001a C046     		.section	.text.A_Interrupt_Stop,"ax",%progbits
 390              		.align	2
 391              		.global	A_Interrupt_Stop
 392              		.code	16
 393              		.thumb_func
 394              		.type	A_Interrupt_Stop, %function
 395              	A_Interrupt_Stop:
 396              	.LFB34:
 134:Generated_Source\PSoC4/A_Interrupt.c ****     /* Disable this interrupt. */
 397              		.loc 1 134 0
 398              		.cfi_startproc
 399              		@ args = 0, pretend = 0, frame = 0
 400              		@ frame_needed = 0, uses_anonymous_args = 0
 401 0000 10B5     		push	{r4, lr}
 402              		.cfi_def_cfa_offset 8
 403              		.cfi_offset 4, -8
 404              		.cfi_offset 14, -4
 136:Generated_Source\PSoC4/A_Interrupt.c **** 
 405              		.loc 1 136 0
 406 0002 FFF7FEFF 		bl	A_Interrupt_Disable
 407              	.LVL26:
 139:Generated_Source\PSoC4/A_Interrupt.c **** }
 408              		.loc 1 139 0
 409 0006 0248     		ldr	r0, .L33
 410 0008 FFF7FEFF 		bl	A_Interrupt_SetVector
 411              	.LVL27:
 140:Generated_Source\PSoC4/A_Interrupt.c **** 
 412              		.loc 1 140 0
 413              		@ sp needed
 414 000c 10BD     		pop	{r4, pc}
 415              	.L34:
ARM GAS  C:\Users\quint\AppData\Local\Temp\ccqX8RMg.s 			page 15


 416 000e C046     		.align	2
 417              	.L33:
 418 0010 00000000 		.word	IntDefaultHandler
 419              		.cfi_endproc
 420              	.LFE34:
 421              		.size	A_Interrupt_Stop, .-A_Interrupt_Stop
 422              		.section	.text.A_Interrupt_SetPending,"ax",%progbits
 423              		.align	2
 424              		.global	A_Interrupt_SetPending
 425              		.code	16
 426              		.thumb_func
 427              		.type	A_Interrupt_SetPending, %function
 428              	A_Interrupt_SetPending:
 429              	.LFB43:
 367:Generated_Source\PSoC4/A_Interrupt.c **** 
 368:Generated_Source\PSoC4/A_Interrupt.c **** 
 369:Generated_Source\PSoC4/A_Interrupt.c **** /*******************************************************************************
 370:Generated_Source\PSoC4/A_Interrupt.c **** * Function Name: A_Interrupt_SetPending
 371:Generated_Source\PSoC4/A_Interrupt.c **** ********************************************************************************
 372:Generated_Source\PSoC4/A_Interrupt.c **** *
 373:Generated_Source\PSoC4/A_Interrupt.c **** * Summary:
 374:Generated_Source\PSoC4/A_Interrupt.c **** *   Causes the Interrupt to enter the pending state, a software method of
 375:Generated_Source\PSoC4/A_Interrupt.c **** *   generating the interrupt.
 376:Generated_Source\PSoC4/A_Interrupt.c **** *
 377:Generated_Source\PSoC4/A_Interrupt.c **** * Parameters:
 378:Generated_Source\PSoC4/A_Interrupt.c **** *   None
 379:Generated_Source\PSoC4/A_Interrupt.c **** *
 380:Generated_Source\PSoC4/A_Interrupt.c **** * Return:
 381:Generated_Source\PSoC4/A_Interrupt.c **** *   None
 382:Generated_Source\PSoC4/A_Interrupt.c **** *
 383:Generated_Source\PSoC4/A_Interrupt.c **** * Side Effects:
 384:Generated_Source\PSoC4/A_Interrupt.c **** *   If interrupts are enabled and the interrupt is set up properly, the ISR is
 385:Generated_Source\PSoC4/A_Interrupt.c **** *   entered (depending on the priority of this interrupt and other pending 
 386:Generated_Source\PSoC4/A_Interrupt.c **** *   interrupts).
 387:Generated_Source\PSoC4/A_Interrupt.c **** *
 388:Generated_Source\PSoC4/A_Interrupt.c **** *******************************************************************************/
 389:Generated_Source\PSoC4/A_Interrupt.c **** void A_Interrupt_SetPending(void)
 390:Generated_Source\PSoC4/A_Interrupt.c **** {
 430              		.loc 1 390 0
 431              		.cfi_startproc
 432              		@ args = 0, pretend = 0, frame = 0
 433              		@ frame_needed = 0, uses_anonymous_args = 0
 434              		@ link register save eliminated.
 391:Generated_Source\PSoC4/A_Interrupt.c ****     *A_Interrupt_INTC_SET_PD = A_Interrupt__INTC_MASK;
 435              		.loc 1 391 0
 436 0000 8022     		movs	r2, #128
 437 0002 5202     		lsls	r2, r2, #9
 438 0004 014B     		ldr	r3, .L36
 439 0006 1A60     		str	r2, [r3]
 392:Generated_Source\PSoC4/A_Interrupt.c **** }
 440              		.loc 1 392 0
 441              		@ sp needed
 442 0008 7047     		bx	lr
 443              	.L37:
 444 000a C046     		.align	2
 445              	.L36:
 446 000c 00E200E0 		.word	-536813056
ARM GAS  C:\Users\quint\AppData\Local\Temp\ccqX8RMg.s 			page 16


 447              		.cfi_endproc
 448              	.LFE43:
 449              		.size	A_Interrupt_SetPending, .-A_Interrupt_SetPending
 450              		.section	.text.A_Interrupt_ClearPending,"ax",%progbits
 451              		.align	2
 452              		.global	A_Interrupt_ClearPending
 453              		.code	16
 454              		.thumb_func
 455              		.type	A_Interrupt_ClearPending, %function
 456              	A_Interrupt_ClearPending:
 457              	.LFB44:
 393:Generated_Source\PSoC4/A_Interrupt.c **** 
 394:Generated_Source\PSoC4/A_Interrupt.c **** 
 395:Generated_Source\PSoC4/A_Interrupt.c **** /*******************************************************************************
 396:Generated_Source\PSoC4/A_Interrupt.c **** * Function Name: A_Interrupt_ClearPending
 397:Generated_Source\PSoC4/A_Interrupt.c **** ********************************************************************************
 398:Generated_Source\PSoC4/A_Interrupt.c **** *
 399:Generated_Source\PSoC4/A_Interrupt.c **** * Summary:
 400:Generated_Source\PSoC4/A_Interrupt.c **** *   Clears a pending interrupt in the interrupt controller.
 401:Generated_Source\PSoC4/A_Interrupt.c **** *
 402:Generated_Source\PSoC4/A_Interrupt.c **** *   Note Some interrupt sources are clear-on-read and require the block 
 403:Generated_Source\PSoC4/A_Interrupt.c **** *   interrupt/status register to be read/cleared with the appropriate block API 
 404:Generated_Source\PSoC4/A_Interrupt.c **** *   (GPIO, UART, and so on). Otherwise the ISR will continue to remain in 
 405:Generated_Source\PSoC4/A_Interrupt.c **** *   pending state even though the interrupt itself is cleared using this API.
 406:Generated_Source\PSoC4/A_Interrupt.c **** *
 407:Generated_Source\PSoC4/A_Interrupt.c **** * Parameters:
 408:Generated_Source\PSoC4/A_Interrupt.c **** *   None
 409:Generated_Source\PSoC4/A_Interrupt.c **** *
 410:Generated_Source\PSoC4/A_Interrupt.c **** * Return:
 411:Generated_Source\PSoC4/A_Interrupt.c **** *   None
 412:Generated_Source\PSoC4/A_Interrupt.c **** *
 413:Generated_Source\PSoC4/A_Interrupt.c **** *******************************************************************************/
 414:Generated_Source\PSoC4/A_Interrupt.c **** void A_Interrupt_ClearPending(void)
 415:Generated_Source\PSoC4/A_Interrupt.c **** {
 458              		.loc 1 415 0
 459              		.cfi_startproc
 460              		@ args = 0, pretend = 0, frame = 0
 461              		@ frame_needed = 0, uses_anonymous_args = 0
 462              		@ link register save eliminated.
 416:Generated_Source\PSoC4/A_Interrupt.c ****     *A_Interrupt_INTC_CLR_PD = A_Interrupt__INTC_MASK;
 463              		.loc 1 416 0
 464 0000 8022     		movs	r2, #128
 465 0002 5202     		lsls	r2, r2, #9
 466 0004 014B     		ldr	r3, .L39
 467 0006 1A60     		str	r2, [r3]
 417:Generated_Source\PSoC4/A_Interrupt.c **** }
 468              		.loc 1 417 0
 469              		@ sp needed
 470 0008 7047     		bx	lr
 471              	.L40:
 472 000a C046     		.align	2
 473              	.L39:
 474 000c 80E200E0 		.word	-536812928
 475              		.cfi_endproc
 476              	.LFE44:
 477              		.size	A_Interrupt_ClearPending, .-A_Interrupt_ClearPending
 478              		.comm	GLCD_FONT8x16,1552,4
ARM GAS  C:\Users\quint\AppData\Local\Temp\ccqX8RMg.s 			page 17


 479              		.text
 480              	.Letext0:
 481              		.file 2 "Generated_Source\\PSoC4/cytypes.h"
 482              		.file 3 "Generated_Source\\PSoC4\\GLCD.h"
 483              		.file 4 "Generated_Source\\PSoC4\\ADCInput.h"
 484              		.file 5 "Generated_Source\\PSoC4\\Timer_1.h"
 485              		.file 6 "Generated_Source\\PSoC4/CyLib.h"