ARM GAS  C:\Users\quint\AppData\Local\Temp\ccAOFas5.s 			page 1


   1              		.syntax unified
   2              		.cpu cortex-m0
   3              		.fpu softvfp
   4              		.eabi_attribute 20, 1
   5              		.eabi_attribute 21, 1
   6              		.eabi_attribute 23, 3
   7              		.eabi_attribute 24, 1
   8              		.eabi_attribute 25, 1
   9              		.eabi_attribute 26, 1
  10              		.eabi_attribute 30, 1
  11              		.eabi_attribute 34, 0
  12              		.eabi_attribute 18, 4
  13              		.thumb
  14              		.syntax unified
  15              		.file	"B_Interrupt.c"
  16              		.text
  17              	.Ltext0:
  18              		.cfi_sections	.debug_frame
  19              		.section	.text.B_Interrupt_SetVector,"ax",%progbits
  20              		.align	2
  21              		.global	B_Interrupt_SetVector
  22              		.code	16
  23              		.thumb_func
  24              		.type	B_Interrupt_SetVector, %function
  25              	B_Interrupt_SetVector:
  26              	.LFB37:
  27              		.file 1 "Generated_Source\\PSoC4\\B_Interrupt.c"
   1:Generated_Source\PSoC4/B_Interrupt.c **** /*******************************************************************************
   2:Generated_Source\PSoC4/B_Interrupt.c **** * File Name: B_Interrupt.c  
   3:Generated_Source\PSoC4/B_Interrupt.c **** * Version 1.70
   4:Generated_Source\PSoC4/B_Interrupt.c **** *
   5:Generated_Source\PSoC4/B_Interrupt.c **** *  Description:
   6:Generated_Source\PSoC4/B_Interrupt.c **** *   API for controlling the state of an interrupt.
   7:Generated_Source\PSoC4/B_Interrupt.c **** *
   8:Generated_Source\PSoC4/B_Interrupt.c **** *
   9:Generated_Source\PSoC4/B_Interrupt.c **** *  Note:
  10:Generated_Source\PSoC4/B_Interrupt.c **** *
  11:Generated_Source\PSoC4/B_Interrupt.c **** ********************************************************************************
  12:Generated_Source\PSoC4/B_Interrupt.c **** * Copyright 2008-2015, Cypress Semiconductor Corporation.  All rights reserved.
  13:Generated_Source\PSoC4/B_Interrupt.c **** * You may use this file only in accordance with the license, terms, conditions, 
  14:Generated_Source\PSoC4/B_Interrupt.c **** * disclaimers, and limitations in the end user license agreement accompanying 
  15:Generated_Source\PSoC4/B_Interrupt.c **** * the software package with which this file was provided.
  16:Generated_Source\PSoC4/B_Interrupt.c **** *******************************************************************************/
  17:Generated_Source\PSoC4/B_Interrupt.c **** 
  18:Generated_Source\PSoC4/B_Interrupt.c **** 
  19:Generated_Source\PSoC4/B_Interrupt.c **** #include <cydevice_trm.h>
  20:Generated_Source\PSoC4/B_Interrupt.c **** #include <CyLib.h>
  21:Generated_Source\PSoC4/B_Interrupt.c **** #include <B_Interrupt.h>
  22:Generated_Source\PSoC4/B_Interrupt.c **** #include "cyapicallbacks.h"
  23:Generated_Source\PSoC4/B_Interrupt.c **** 
  24:Generated_Source\PSoC4/B_Interrupt.c **** #if !defined(B_Interrupt__REMOVED) /* Check for removal by optimization */
  25:Generated_Source\PSoC4/B_Interrupt.c **** 
  26:Generated_Source\PSoC4/B_Interrupt.c **** /*******************************************************************************
  27:Generated_Source\PSoC4/B_Interrupt.c **** *  Place your includes, defines and code here 
  28:Generated_Source\PSoC4/B_Interrupt.c **** ********************************************************************************/
  29:Generated_Source\PSoC4/B_Interrupt.c **** /* `#START B_Interrupt_intc` */
  30:Generated_Source\PSoC4/B_Interrupt.c ****     #include "project.h"
ARM GAS  C:\Users\quint\AppData\Local\Temp\ccAOFas5.s 			page 2


  31:Generated_Source\PSoC4/B_Interrupt.c **** #include <stdio.h>
  32:Generated_Source\PSoC4/B_Interrupt.c **** #define PUSHED 0
  33:Generated_Source\PSoC4/B_Interrupt.c **** extern int count; 
  34:Generated_Source\PSoC4/B_Interrupt.c **** extern char mystring[20];
  35:Generated_Source\PSoC4/B_Interrupt.c **** 
  36:Generated_Source\PSoC4/B_Interrupt.c **** 
  37:Generated_Source\PSoC4/B_Interrupt.c **** /* `#END` */
  38:Generated_Source\PSoC4/B_Interrupt.c **** 
  39:Generated_Source\PSoC4/B_Interrupt.c **** extern cyisraddress CyRamVectors[CYINT_IRQ_BASE + CY_NUM_INTERRUPTS];
  40:Generated_Source\PSoC4/B_Interrupt.c **** 
  41:Generated_Source\PSoC4/B_Interrupt.c **** /* Declared in startup, used to set unused interrupts to. */
  42:Generated_Source\PSoC4/B_Interrupt.c **** CY_ISR_PROTO(IntDefaultHandler);
  43:Generated_Source\PSoC4/B_Interrupt.c **** 
  44:Generated_Source\PSoC4/B_Interrupt.c **** 
  45:Generated_Source\PSoC4/B_Interrupt.c **** /*******************************************************************************
  46:Generated_Source\PSoC4/B_Interrupt.c **** * Function Name: B_Interrupt_Start
  47:Generated_Source\PSoC4/B_Interrupt.c **** ********************************************************************************
  48:Generated_Source\PSoC4/B_Interrupt.c **** *
  49:Generated_Source\PSoC4/B_Interrupt.c **** * Summary:
  50:Generated_Source\PSoC4/B_Interrupt.c **** *  Set up the interrupt and enable it. This function disables the interrupt, 
  51:Generated_Source\PSoC4/B_Interrupt.c **** *  sets the default interrupt vector, sets the priority from the value in the
  52:Generated_Source\PSoC4/B_Interrupt.c **** *  Design Wide Resources Interrupt Editor, then enables the interrupt to the 
  53:Generated_Source\PSoC4/B_Interrupt.c **** *  interrupt controller.
  54:Generated_Source\PSoC4/B_Interrupt.c **** *
  55:Generated_Source\PSoC4/B_Interrupt.c **** * Parameters:  
  56:Generated_Source\PSoC4/B_Interrupt.c **** *   None
  57:Generated_Source\PSoC4/B_Interrupt.c **** *
  58:Generated_Source\PSoC4/B_Interrupt.c **** * Return:
  59:Generated_Source\PSoC4/B_Interrupt.c **** *   None
  60:Generated_Source\PSoC4/B_Interrupt.c **** *
  61:Generated_Source\PSoC4/B_Interrupt.c **** *******************************************************************************/
  62:Generated_Source\PSoC4/B_Interrupt.c **** void B_Interrupt_Start(void)
  63:Generated_Source\PSoC4/B_Interrupt.c **** {
  64:Generated_Source\PSoC4/B_Interrupt.c ****     /* For all we know the interrupt is active. */
  65:Generated_Source\PSoC4/B_Interrupt.c ****     B_Interrupt_Disable();
  66:Generated_Source\PSoC4/B_Interrupt.c **** 
  67:Generated_Source\PSoC4/B_Interrupt.c ****     /* Set the ISR to point to the B_Interrupt Interrupt. */
  68:Generated_Source\PSoC4/B_Interrupt.c ****     B_Interrupt_SetVector(&B_Interrupt_Interrupt);
  69:Generated_Source\PSoC4/B_Interrupt.c **** 
  70:Generated_Source\PSoC4/B_Interrupt.c ****     /* Set the priority. */
  71:Generated_Source\PSoC4/B_Interrupt.c ****     B_Interrupt_SetPriority((uint8)B_Interrupt_INTC_PRIOR_NUMBER);
  72:Generated_Source\PSoC4/B_Interrupt.c **** 
  73:Generated_Source\PSoC4/B_Interrupt.c ****     /* Enable it. */
  74:Generated_Source\PSoC4/B_Interrupt.c ****     B_Interrupt_Enable();
  75:Generated_Source\PSoC4/B_Interrupt.c **** }
  76:Generated_Source\PSoC4/B_Interrupt.c **** 
  77:Generated_Source\PSoC4/B_Interrupt.c **** 
  78:Generated_Source\PSoC4/B_Interrupt.c **** /*******************************************************************************
  79:Generated_Source\PSoC4/B_Interrupt.c **** * Function Name: B_Interrupt_StartEx
  80:Generated_Source\PSoC4/B_Interrupt.c **** ********************************************************************************
  81:Generated_Source\PSoC4/B_Interrupt.c **** *
  82:Generated_Source\PSoC4/B_Interrupt.c **** * Summary:
  83:Generated_Source\PSoC4/B_Interrupt.c **** *  Sets up the interrupt and enables it. This function disables the interrupt,
  84:Generated_Source\PSoC4/B_Interrupt.c **** *  sets the interrupt vector based on the address passed in, sets the priority 
  85:Generated_Source\PSoC4/B_Interrupt.c **** *  from the value in the Design Wide Resources Interrupt Editor, then enables 
  86:Generated_Source\PSoC4/B_Interrupt.c **** *  the interrupt to the interrupt controller.
  87:Generated_Source\PSoC4/B_Interrupt.c **** *  
ARM GAS  C:\Users\quint\AppData\Local\Temp\ccAOFas5.s 			page 3


  88:Generated_Source\PSoC4/B_Interrupt.c **** *  When defining ISR functions, the CY_ISR and CY_ISR_PROTO macros should be 
  89:Generated_Source\PSoC4/B_Interrupt.c **** *  used to provide consistent definition across compilers:
  90:Generated_Source\PSoC4/B_Interrupt.c **** *  
  91:Generated_Source\PSoC4/B_Interrupt.c **** *  Function definition example:
  92:Generated_Source\PSoC4/B_Interrupt.c **** *   CY_ISR(MyISR)
  93:Generated_Source\PSoC4/B_Interrupt.c **** *   {
  94:Generated_Source\PSoC4/B_Interrupt.c **** *   }
  95:Generated_Source\PSoC4/B_Interrupt.c **** *   Function prototype example:
  96:Generated_Source\PSoC4/B_Interrupt.c **** *   CY_ISR_PROTO(MyISR);
  97:Generated_Source\PSoC4/B_Interrupt.c **** *
  98:Generated_Source\PSoC4/B_Interrupt.c **** * Parameters:  
  99:Generated_Source\PSoC4/B_Interrupt.c **** *   address: Address of the ISR to set in the interrupt vector table.
 100:Generated_Source\PSoC4/B_Interrupt.c **** *
 101:Generated_Source\PSoC4/B_Interrupt.c **** * Return:
 102:Generated_Source\PSoC4/B_Interrupt.c **** *   None
 103:Generated_Source\PSoC4/B_Interrupt.c **** *
 104:Generated_Source\PSoC4/B_Interrupt.c **** *******************************************************************************/
 105:Generated_Source\PSoC4/B_Interrupt.c **** void B_Interrupt_StartEx(cyisraddress address)
 106:Generated_Source\PSoC4/B_Interrupt.c **** {
 107:Generated_Source\PSoC4/B_Interrupt.c ****     /* For all we know the interrupt is active. */
 108:Generated_Source\PSoC4/B_Interrupt.c ****     B_Interrupt_Disable();
 109:Generated_Source\PSoC4/B_Interrupt.c **** 
 110:Generated_Source\PSoC4/B_Interrupt.c ****     /* Set the ISR to point to the B_Interrupt Interrupt. */
 111:Generated_Source\PSoC4/B_Interrupt.c ****     B_Interrupt_SetVector(address);
 112:Generated_Source\PSoC4/B_Interrupt.c **** 
 113:Generated_Source\PSoC4/B_Interrupt.c ****     /* Set the priority. */
 114:Generated_Source\PSoC4/B_Interrupt.c ****     B_Interrupt_SetPriority((uint8)B_Interrupt_INTC_PRIOR_NUMBER);
 115:Generated_Source\PSoC4/B_Interrupt.c **** 
 116:Generated_Source\PSoC4/B_Interrupt.c ****     /* Enable it. */
 117:Generated_Source\PSoC4/B_Interrupt.c ****     B_Interrupt_Enable();
 118:Generated_Source\PSoC4/B_Interrupt.c **** }
 119:Generated_Source\PSoC4/B_Interrupt.c **** 
 120:Generated_Source\PSoC4/B_Interrupt.c **** 
 121:Generated_Source\PSoC4/B_Interrupt.c **** /*******************************************************************************
 122:Generated_Source\PSoC4/B_Interrupt.c **** * Function Name: B_Interrupt_Stop
 123:Generated_Source\PSoC4/B_Interrupt.c **** ********************************************************************************
 124:Generated_Source\PSoC4/B_Interrupt.c **** *
 125:Generated_Source\PSoC4/B_Interrupt.c **** * Summary:
 126:Generated_Source\PSoC4/B_Interrupt.c **** *   Disables and removes the interrupt.
 127:Generated_Source\PSoC4/B_Interrupt.c **** *
 128:Generated_Source\PSoC4/B_Interrupt.c **** * Parameters:  
 129:Generated_Source\PSoC4/B_Interrupt.c **** *   None
 130:Generated_Source\PSoC4/B_Interrupt.c **** *
 131:Generated_Source\PSoC4/B_Interrupt.c **** * Return:
 132:Generated_Source\PSoC4/B_Interrupt.c **** *   None
 133:Generated_Source\PSoC4/B_Interrupt.c **** *
 134:Generated_Source\PSoC4/B_Interrupt.c **** *******************************************************************************/
 135:Generated_Source\PSoC4/B_Interrupt.c **** void B_Interrupt_Stop(void)
 136:Generated_Source\PSoC4/B_Interrupt.c **** {
 137:Generated_Source\PSoC4/B_Interrupt.c ****     /* Disable this interrupt. */
 138:Generated_Source\PSoC4/B_Interrupt.c ****     B_Interrupt_Disable();
 139:Generated_Source\PSoC4/B_Interrupt.c **** 
 140:Generated_Source\PSoC4/B_Interrupt.c ****     /* Set the ISR to point to the passive one. */
 141:Generated_Source\PSoC4/B_Interrupt.c ****     B_Interrupt_SetVector(&IntDefaultHandler);
 142:Generated_Source\PSoC4/B_Interrupt.c **** }
 143:Generated_Source\PSoC4/B_Interrupt.c **** 
 144:Generated_Source\PSoC4/B_Interrupt.c **** 
ARM GAS  C:\Users\quint\AppData\Local\Temp\ccAOFas5.s 			page 4


 145:Generated_Source\PSoC4/B_Interrupt.c **** /*******************************************************************************
 146:Generated_Source\PSoC4/B_Interrupt.c **** * Function Name: B_Interrupt_Interrupt
 147:Generated_Source\PSoC4/B_Interrupt.c **** ********************************************************************************
 148:Generated_Source\PSoC4/B_Interrupt.c **** *
 149:Generated_Source\PSoC4/B_Interrupt.c **** * Summary:
 150:Generated_Source\PSoC4/B_Interrupt.c **** *   The default Interrupt Service Routine for B_Interrupt.
 151:Generated_Source\PSoC4/B_Interrupt.c **** *
 152:Generated_Source\PSoC4/B_Interrupt.c **** *   Add custom code between the START and END comments to keep the next version
 153:Generated_Source\PSoC4/B_Interrupt.c **** *   of this file from over-writing your code.
 154:Generated_Source\PSoC4/B_Interrupt.c **** *
 155:Generated_Source\PSoC4/B_Interrupt.c **** *   Note You may use either the default ISR by using this API, or you may define
 156:Generated_Source\PSoC4/B_Interrupt.c **** *   your own separate ISR through ISR_StartEx().
 157:Generated_Source\PSoC4/B_Interrupt.c **** *
 158:Generated_Source\PSoC4/B_Interrupt.c **** * Parameters:  
 159:Generated_Source\PSoC4/B_Interrupt.c **** *   None
 160:Generated_Source\PSoC4/B_Interrupt.c **** *
 161:Generated_Source\PSoC4/B_Interrupt.c **** * Return:
 162:Generated_Source\PSoC4/B_Interrupt.c **** *   None
 163:Generated_Source\PSoC4/B_Interrupt.c **** *
 164:Generated_Source\PSoC4/B_Interrupt.c **** *******************************************************************************/
 165:Generated_Source\PSoC4/B_Interrupt.c **** CY_ISR(B_Interrupt_Interrupt)
 166:Generated_Source\PSoC4/B_Interrupt.c **** {
 167:Generated_Source\PSoC4/B_Interrupt.c ****     #ifdef B_Interrupt_INTERRUPT_INTERRUPT_CALLBACK
 168:Generated_Source\PSoC4/B_Interrupt.c ****         B_Interrupt_Interrupt_InterruptCallback();
 169:Generated_Source\PSoC4/B_Interrupt.c ****     #endif /* B_Interrupt_INTERRUPT_INTERRUPT_CALLBACK */ 
 170:Generated_Source\PSoC4/B_Interrupt.c **** 
 171:Generated_Source\PSoC4/B_Interrupt.c ****     /*  Place your Interrupt code here. */
 172:Generated_Source\PSoC4/B_Interrupt.c ****     /* `#START B_Interrupt_Interrupt` */
 173:Generated_Source\PSoC4/B_Interrupt.c ****   
 174:Generated_Source\PSoC4/B_Interrupt.c ****   //Don't do anything when the button is not pushed
 175:Generated_Source\PSoC4/B_Interrupt.c ****     
 176:Generated_Source\PSoC4/B_Interrupt.c ****             Timer_1_WriteCounter(0);
 177:Generated_Source\PSoC4/B_Interrupt.c ****                    PWM_1_ClearInterrupt(PWM_1_INTR_MASK_TC);
 178:Generated_Source\PSoC4/B_Interrupt.c ****             B_Interrupt_ClearPending(); //Needed to make other interupts work
 179:Generated_Source\PSoC4/B_Interrupt.c ****     
 180:Generated_Source\PSoC4/B_Interrupt.c ****  
 181:Generated_Source\PSoC4/B_Interrupt.c ****     /* `#END` */
 182:Generated_Source\PSoC4/B_Interrupt.c **** }
 183:Generated_Source\PSoC4/B_Interrupt.c **** 
 184:Generated_Source\PSoC4/B_Interrupt.c **** 
 185:Generated_Source\PSoC4/B_Interrupt.c **** /*******************************************************************************
 186:Generated_Source\PSoC4/B_Interrupt.c **** * Function Name: B_Interrupt_SetVector
 187:Generated_Source\PSoC4/B_Interrupt.c **** ********************************************************************************
 188:Generated_Source\PSoC4/B_Interrupt.c **** *
 189:Generated_Source\PSoC4/B_Interrupt.c **** * Summary:
 190:Generated_Source\PSoC4/B_Interrupt.c **** *   Change the ISR vector for the Interrupt. Note calling B_Interrupt_Start
 191:Generated_Source\PSoC4/B_Interrupt.c **** *   will override any effect this method would have had. To set the vector 
 192:Generated_Source\PSoC4/B_Interrupt.c **** *   before the component has been started use B_Interrupt_StartEx instead.
 193:Generated_Source\PSoC4/B_Interrupt.c **** * 
 194:Generated_Source\PSoC4/B_Interrupt.c **** *   When defining ISR functions, the CY_ISR and CY_ISR_PROTO macros should be 
 195:Generated_Source\PSoC4/B_Interrupt.c **** *   used to provide consistent definition across compilers:
 196:Generated_Source\PSoC4/B_Interrupt.c **** *
 197:Generated_Source\PSoC4/B_Interrupt.c **** *   Function definition example:
 198:Generated_Source\PSoC4/B_Interrupt.c **** *   CY_ISR(MyISR)
 199:Generated_Source\PSoC4/B_Interrupt.c **** *   {
 200:Generated_Source\PSoC4/B_Interrupt.c **** *   }
 201:Generated_Source\PSoC4/B_Interrupt.c **** *
ARM GAS  C:\Users\quint\AppData\Local\Temp\ccAOFas5.s 			page 5


 202:Generated_Source\PSoC4/B_Interrupt.c **** *   Function prototype example:
 203:Generated_Source\PSoC4/B_Interrupt.c **** *     CY_ISR_PROTO(MyISR);
 204:Generated_Source\PSoC4/B_Interrupt.c **** *
 205:Generated_Source\PSoC4/B_Interrupt.c **** * Parameters:
 206:Generated_Source\PSoC4/B_Interrupt.c **** *   address: Address of the ISR to set in the interrupt vector table.
 207:Generated_Source\PSoC4/B_Interrupt.c **** *
 208:Generated_Source\PSoC4/B_Interrupt.c **** * Return:
 209:Generated_Source\PSoC4/B_Interrupt.c **** *   None
 210:Generated_Source\PSoC4/B_Interrupt.c **** *
 211:Generated_Source\PSoC4/B_Interrupt.c **** *******************************************************************************/
 212:Generated_Source\PSoC4/B_Interrupt.c **** void B_Interrupt_SetVector(cyisraddress address)
 213:Generated_Source\PSoC4/B_Interrupt.c **** {
  28              		.loc 1 213 0
  29              		.cfi_startproc
  30              		@ args = 0, pretend = 0, frame = 0
  31              		@ frame_needed = 0, uses_anonymous_args = 0
  32              		@ link register save eliminated.
  33              	.LVL0:
 214:Generated_Source\PSoC4/B_Interrupt.c ****     CyRamVectors[CYINT_IRQ_BASE + B_Interrupt__INTC_NUMBER] = address;
  34              		.loc 1 214 0
  35 0000 8023     		movs	r3, #128
  36 0002 014A     		ldr	r2, .L2
  37 0004 D050     		str	r0, [r2, r3]
 215:Generated_Source\PSoC4/B_Interrupt.c **** }
  38              		.loc 1 215 0
  39              		@ sp needed
  40 0006 7047     		bx	lr
  41              	.L3:
  42              		.align	2
  43              	.L2:
  44 0008 00000000 		.word	CyRamVectors
  45              		.cfi_endproc
  46              	.LFE37:
  47              		.size	B_Interrupt_SetVector, .-B_Interrupt_SetVector
  48              		.section	.text.B_Interrupt_GetVector,"ax",%progbits
  49              		.align	2
  50              		.global	B_Interrupt_GetVector
  51              		.code	16
  52              		.thumb_func
  53              		.type	B_Interrupt_GetVector, %function
  54              	B_Interrupt_GetVector:
  55              	.LFB38:
 216:Generated_Source\PSoC4/B_Interrupt.c **** 
 217:Generated_Source\PSoC4/B_Interrupt.c **** 
 218:Generated_Source\PSoC4/B_Interrupt.c **** /*******************************************************************************
 219:Generated_Source\PSoC4/B_Interrupt.c **** * Function Name: B_Interrupt_GetVector
 220:Generated_Source\PSoC4/B_Interrupt.c **** ********************************************************************************
 221:Generated_Source\PSoC4/B_Interrupt.c **** *
 222:Generated_Source\PSoC4/B_Interrupt.c **** * Summary:
 223:Generated_Source\PSoC4/B_Interrupt.c **** *   Gets the "address" of the current ISR vector for the Interrupt.
 224:Generated_Source\PSoC4/B_Interrupt.c **** *
 225:Generated_Source\PSoC4/B_Interrupt.c **** * Parameters:
 226:Generated_Source\PSoC4/B_Interrupt.c **** *   None
 227:Generated_Source\PSoC4/B_Interrupt.c **** *
 228:Generated_Source\PSoC4/B_Interrupt.c **** * Return:
 229:Generated_Source\PSoC4/B_Interrupt.c **** *   Address of the ISR in the interrupt vector table.
 230:Generated_Source\PSoC4/B_Interrupt.c **** *
ARM GAS  C:\Users\quint\AppData\Local\Temp\ccAOFas5.s 			page 6


 231:Generated_Source\PSoC4/B_Interrupt.c **** *******************************************************************************/
 232:Generated_Source\PSoC4/B_Interrupt.c **** cyisraddress B_Interrupt_GetVector(void)
 233:Generated_Source\PSoC4/B_Interrupt.c **** {
  56              		.loc 1 233 0
  57              		.cfi_startproc
  58              		@ args = 0, pretend = 0, frame = 0
  59              		@ frame_needed = 0, uses_anonymous_args = 0
  60              		@ link register save eliminated.
 234:Generated_Source\PSoC4/B_Interrupt.c ****     return CyRamVectors[CYINT_IRQ_BASE + B_Interrupt__INTC_NUMBER];
  61              		.loc 1 234 0
  62 0000 8023     		movs	r3, #128
  63 0002 014A     		ldr	r2, .L5
  64 0004 D058     		ldr	r0, [r2, r3]
 235:Generated_Source\PSoC4/B_Interrupt.c **** }
  65              		.loc 1 235 0
  66              		@ sp needed
  67 0006 7047     		bx	lr
  68              	.L6:
  69              		.align	2
  70              	.L5:
  71 0008 00000000 		.word	CyRamVectors
  72              		.cfi_endproc
  73              	.LFE38:
  74              		.size	B_Interrupt_GetVector, .-B_Interrupt_GetVector
  75              		.section	.text.B_Interrupt_SetPriority,"ax",%progbits
  76              		.align	2
  77              		.global	B_Interrupt_SetPriority
  78              		.code	16
  79              		.thumb_func
  80              		.type	B_Interrupt_SetPriority, %function
  81              	B_Interrupt_SetPriority:
  82              	.LFB39:
 236:Generated_Source\PSoC4/B_Interrupt.c **** 
 237:Generated_Source\PSoC4/B_Interrupt.c **** 
 238:Generated_Source\PSoC4/B_Interrupt.c **** /*******************************************************************************
 239:Generated_Source\PSoC4/B_Interrupt.c **** * Function Name: B_Interrupt_SetPriority
 240:Generated_Source\PSoC4/B_Interrupt.c **** ********************************************************************************
 241:Generated_Source\PSoC4/B_Interrupt.c **** *
 242:Generated_Source\PSoC4/B_Interrupt.c **** * Summary:
 243:Generated_Source\PSoC4/B_Interrupt.c **** *   Sets the Priority of the Interrupt. 
 244:Generated_Source\PSoC4/B_Interrupt.c **** *
 245:Generated_Source\PSoC4/B_Interrupt.c **** *   Note calling B_Interrupt_Start or B_Interrupt_StartEx will 
 246:Generated_Source\PSoC4/B_Interrupt.c **** *   override any effect this API would have had. This API should only be called
 247:Generated_Source\PSoC4/B_Interrupt.c **** *   after B_Interrupt_Start or B_Interrupt_StartEx has been called. 
 248:Generated_Source\PSoC4/B_Interrupt.c **** *   To set the initial priority for the component, use the Design-Wide Resources
 249:Generated_Source\PSoC4/B_Interrupt.c **** *   Interrupt Editor.
 250:Generated_Source\PSoC4/B_Interrupt.c **** *
 251:Generated_Source\PSoC4/B_Interrupt.c **** *   Note This API has no effect on Non-maskable interrupt NMI).
 252:Generated_Source\PSoC4/B_Interrupt.c **** *
 253:Generated_Source\PSoC4/B_Interrupt.c **** * Parameters:
 254:Generated_Source\PSoC4/B_Interrupt.c **** *   priority: Priority of the interrupt, 0 being the highest priority
 255:Generated_Source\PSoC4/B_Interrupt.c **** *             PSoC 3 and PSoC 5LP: Priority is from 0 to 7.
 256:Generated_Source\PSoC4/B_Interrupt.c **** *             PSoC 4: Priority is from 0 to 3.
 257:Generated_Source\PSoC4/B_Interrupt.c **** *
 258:Generated_Source\PSoC4/B_Interrupt.c **** * Return:
 259:Generated_Source\PSoC4/B_Interrupt.c **** *   None
 260:Generated_Source\PSoC4/B_Interrupt.c **** *
ARM GAS  C:\Users\quint\AppData\Local\Temp\ccAOFas5.s 			page 7


 261:Generated_Source\PSoC4/B_Interrupt.c **** *******************************************************************************/
 262:Generated_Source\PSoC4/B_Interrupt.c **** void B_Interrupt_SetPriority(uint8 priority)
 263:Generated_Source\PSoC4/B_Interrupt.c **** {
  83              		.loc 1 263 0
  84              		.cfi_startproc
  85              		@ args = 0, pretend = 0, frame = 0
  86              		@ frame_needed = 0, uses_anonymous_args = 0
  87              	.LVL1:
  88 0000 10B5     		push	{r4, lr}
  89              		.cfi_def_cfa_offset 8
  90              		.cfi_offset 4, -8
  91              		.cfi_offset 14, -4
  92 0002 0400     		movs	r4, r0
  93              	.LVL2:
 264:Generated_Source\PSoC4/B_Interrupt.c **** 	uint8 interruptState;
 265:Generated_Source\PSoC4/B_Interrupt.c ****     uint32 priorityOffset = ((B_Interrupt__INTC_NUMBER % 4u) * 8u) + 6u;
 266:Generated_Source\PSoC4/B_Interrupt.c ****     
 267:Generated_Source\PSoC4/B_Interrupt.c **** 	interruptState = CyEnterCriticalSection();
  94              		.loc 1 267 0
  95 0004 FFF7FEFF 		bl	CyEnterCriticalSection
  96              	.LVL3:
 268:Generated_Source\PSoC4/B_Interrupt.c ****     *B_Interrupt_INTC_PRIOR = (*B_Interrupt_INTC_PRIOR & (uint32)(~B_Interrupt__INTC_PRIOR_MASK)) |
  97              		.loc 1 268 0
  98 0008 044A     		ldr	r2, .L8
  99 000a 1368     		ldr	r3, [r2]
 100 000c C021     		movs	r1, #192
 101 000e 8B43     		bics	r3, r1
 269:Generated_Source\PSoC4/B_Interrupt.c ****                                     ((uint32)priority << priorityOffset);
 102              		.loc 1 269 0
 103 0010 A401     		lsls	r4, r4, #6
 268:Generated_Source\PSoC4/B_Interrupt.c ****     *B_Interrupt_INTC_PRIOR = (*B_Interrupt_INTC_PRIOR & (uint32)(~B_Interrupt__INTC_PRIOR_MASK)) |
 104              		.loc 1 268 0
 105 0012 1C43     		orrs	r4, r3
 106 0014 1460     		str	r4, [r2]
 270:Generated_Source\PSoC4/B_Interrupt.c **** 	CyExitCriticalSection(interruptState);
 107              		.loc 1 270 0
 108 0016 FFF7FEFF 		bl	CyExitCriticalSection
 109              	.LVL4:
 271:Generated_Source\PSoC4/B_Interrupt.c **** }
 110              		.loc 1 271 0
 111              		@ sp needed
 112 001a 10BD     		pop	{r4, pc}
 113              	.L9:
 114              		.align	2
 115              	.L8:
 116 001c 10E400E0 		.word	-536812528
 117              		.cfi_endproc
 118              	.LFE39:
 119              		.size	B_Interrupt_SetPriority, .-B_Interrupt_SetPriority
 120              		.section	.text.B_Interrupt_GetPriority,"ax",%progbits
 121              		.align	2
 122              		.global	B_Interrupt_GetPriority
 123              		.code	16
 124              		.thumb_func
 125              		.type	B_Interrupt_GetPriority, %function
 126              	B_Interrupt_GetPriority:
 127              	.LFB40:
ARM GAS  C:\Users\quint\AppData\Local\Temp\ccAOFas5.s 			page 8


 272:Generated_Source\PSoC4/B_Interrupt.c **** 
 273:Generated_Source\PSoC4/B_Interrupt.c **** 
 274:Generated_Source\PSoC4/B_Interrupt.c **** /*******************************************************************************
 275:Generated_Source\PSoC4/B_Interrupt.c **** * Function Name: B_Interrupt_GetPriority
 276:Generated_Source\PSoC4/B_Interrupt.c **** ********************************************************************************
 277:Generated_Source\PSoC4/B_Interrupt.c **** *
 278:Generated_Source\PSoC4/B_Interrupt.c **** * Summary:
 279:Generated_Source\PSoC4/B_Interrupt.c **** *   Gets the Priority of the Interrupt.
 280:Generated_Source\PSoC4/B_Interrupt.c **** *
 281:Generated_Source\PSoC4/B_Interrupt.c **** * Parameters:
 282:Generated_Source\PSoC4/B_Interrupt.c **** *   None
 283:Generated_Source\PSoC4/B_Interrupt.c **** *
 284:Generated_Source\PSoC4/B_Interrupt.c **** * Return:
 285:Generated_Source\PSoC4/B_Interrupt.c **** *   Priority of the interrupt, 0 being the highest priority
 286:Generated_Source\PSoC4/B_Interrupt.c **** *    PSoC 3 and PSoC 5LP: Priority is from 0 to 7.
 287:Generated_Source\PSoC4/B_Interrupt.c **** *    PSoC 4: Priority is from 0 to 3.
 288:Generated_Source\PSoC4/B_Interrupt.c **** *
 289:Generated_Source\PSoC4/B_Interrupt.c **** *******************************************************************************/
 290:Generated_Source\PSoC4/B_Interrupt.c **** uint8 B_Interrupt_GetPriority(void)
 291:Generated_Source\PSoC4/B_Interrupt.c **** {
 128              		.loc 1 291 0
 129              		.cfi_startproc
 130              		@ args = 0, pretend = 0, frame = 0
 131              		@ frame_needed = 0, uses_anonymous_args = 0
 132              		@ link register save eliminated.
 133              	.LVL5:
 292:Generated_Source\PSoC4/B_Interrupt.c ****     uint32 priority;
 293:Generated_Source\PSoC4/B_Interrupt.c **** 	uint32 priorityOffset = ((B_Interrupt__INTC_NUMBER % 4u) * 8u) + 6u;
 294:Generated_Source\PSoC4/B_Interrupt.c **** 
 295:Generated_Source\PSoC4/B_Interrupt.c ****     priority = (*B_Interrupt_INTC_PRIOR & B_Interrupt__INTC_PRIOR_MASK) >> priorityOffset;
 134              		.loc 1 295 0
 135 0000 024B     		ldr	r3, .L11
 136 0002 1868     		ldr	r0, [r3]
 137 0004 8009     		lsrs	r0, r0, #6
 138              	.LVL6:
 296:Generated_Source\PSoC4/B_Interrupt.c **** 
 297:Generated_Source\PSoC4/B_Interrupt.c ****     return (uint8)priority;
 139              		.loc 1 297 0
 140 0006 0323     		movs	r3, #3
 141 0008 1840     		ands	r0, r3
 142              	.LVL7:
 298:Generated_Source\PSoC4/B_Interrupt.c **** }
 143              		.loc 1 298 0
 144              		@ sp needed
 145 000a 7047     		bx	lr
 146              	.L12:
 147              		.align	2
 148              	.L11:
 149 000c 10E400E0 		.word	-536812528
 150              		.cfi_endproc
 151              	.LFE40:
 152              		.size	B_Interrupt_GetPriority, .-B_Interrupt_GetPriority
 153              		.section	.text.B_Interrupt_Enable,"ax",%progbits
 154              		.align	2
 155              		.global	B_Interrupt_Enable
 156              		.code	16
 157              		.thumb_func
ARM GAS  C:\Users\quint\AppData\Local\Temp\ccAOFas5.s 			page 9


 158              		.type	B_Interrupt_Enable, %function
 159              	B_Interrupt_Enable:
 160              	.LFB41:
 299:Generated_Source\PSoC4/B_Interrupt.c **** 
 300:Generated_Source\PSoC4/B_Interrupt.c **** 
 301:Generated_Source\PSoC4/B_Interrupt.c **** /*******************************************************************************
 302:Generated_Source\PSoC4/B_Interrupt.c **** * Function Name: B_Interrupt_Enable
 303:Generated_Source\PSoC4/B_Interrupt.c **** ********************************************************************************
 304:Generated_Source\PSoC4/B_Interrupt.c **** *
 305:Generated_Source\PSoC4/B_Interrupt.c **** * Summary:
 306:Generated_Source\PSoC4/B_Interrupt.c **** *   Enables the interrupt to the interrupt controller. Do not call this function
 307:Generated_Source\PSoC4/B_Interrupt.c **** *   unless ISR_Start() has been called or the functionality of the ISR_Start() 
 308:Generated_Source\PSoC4/B_Interrupt.c **** *   function, which sets the vector and the priority, has been called.
 309:Generated_Source\PSoC4/B_Interrupt.c **** *
 310:Generated_Source\PSoC4/B_Interrupt.c **** * Parameters:
 311:Generated_Source\PSoC4/B_Interrupt.c **** *   None
 312:Generated_Source\PSoC4/B_Interrupt.c **** *
 313:Generated_Source\PSoC4/B_Interrupt.c **** * Return:
 314:Generated_Source\PSoC4/B_Interrupt.c **** *   None
 315:Generated_Source\PSoC4/B_Interrupt.c **** *
 316:Generated_Source\PSoC4/B_Interrupt.c **** *******************************************************************************/
 317:Generated_Source\PSoC4/B_Interrupt.c **** void B_Interrupt_Enable(void)
 318:Generated_Source\PSoC4/B_Interrupt.c **** {
 161              		.loc 1 318 0
 162              		.cfi_startproc
 163              		@ args = 0, pretend = 0, frame = 0
 164              		@ frame_needed = 0, uses_anonymous_args = 0
 165              		@ link register save eliminated.
 319:Generated_Source\PSoC4/B_Interrupt.c ****     /* Enable the general interrupt. */
 320:Generated_Source\PSoC4/B_Interrupt.c ****     *B_Interrupt_INTC_SET_EN = B_Interrupt__INTC_MASK;
 166              		.loc 1 320 0
 167 0000 8022     		movs	r2, #128
 168 0002 5202     		lsls	r2, r2, #9
 169 0004 014B     		ldr	r3, .L14
 170 0006 1A60     		str	r2, [r3]
 321:Generated_Source\PSoC4/B_Interrupt.c **** }
 171              		.loc 1 321 0
 172              		@ sp needed
 173 0008 7047     		bx	lr
 174              	.L15:
 175 000a C046     		.align	2
 176              	.L14:
 177 000c 00E100E0 		.word	-536813312
 178              		.cfi_endproc
 179              	.LFE41:
 180              		.size	B_Interrupt_Enable, .-B_Interrupt_Enable
 181              		.section	.text.B_Interrupt_GetState,"ax",%progbits
 182              		.align	2
 183              		.global	B_Interrupt_GetState
 184              		.code	16
 185              		.thumb_func
 186              		.type	B_Interrupt_GetState, %function
 187              	B_Interrupt_GetState:
 188              	.LFB42:
 322:Generated_Source\PSoC4/B_Interrupt.c **** 
 323:Generated_Source\PSoC4/B_Interrupt.c **** 
 324:Generated_Source\PSoC4/B_Interrupt.c **** /*******************************************************************************
ARM GAS  C:\Users\quint\AppData\Local\Temp\ccAOFas5.s 			page 10


 325:Generated_Source\PSoC4/B_Interrupt.c **** * Function Name: B_Interrupt_GetState
 326:Generated_Source\PSoC4/B_Interrupt.c **** ********************************************************************************
 327:Generated_Source\PSoC4/B_Interrupt.c **** *
 328:Generated_Source\PSoC4/B_Interrupt.c **** * Summary:
 329:Generated_Source\PSoC4/B_Interrupt.c **** *   Gets the state (enabled, disabled) of the Interrupt.
 330:Generated_Source\PSoC4/B_Interrupt.c **** *
 331:Generated_Source\PSoC4/B_Interrupt.c **** * Parameters:
 332:Generated_Source\PSoC4/B_Interrupt.c **** *   None
 333:Generated_Source\PSoC4/B_Interrupt.c **** *
 334:Generated_Source\PSoC4/B_Interrupt.c **** * Return:
 335:Generated_Source\PSoC4/B_Interrupt.c **** *   1 if enabled, 0 if disabled.
 336:Generated_Source\PSoC4/B_Interrupt.c **** *
 337:Generated_Source\PSoC4/B_Interrupt.c **** *******************************************************************************/
 338:Generated_Source\PSoC4/B_Interrupt.c **** uint8 B_Interrupt_GetState(void)
 339:Generated_Source\PSoC4/B_Interrupt.c **** {
 189              		.loc 1 339 0
 190              		.cfi_startproc
 191              		@ args = 0, pretend = 0, frame = 0
 192              		@ frame_needed = 0, uses_anonymous_args = 0
 193              		@ link register save eliminated.
 340:Generated_Source\PSoC4/B_Interrupt.c ****     /* Get the state of the general interrupt. */
 341:Generated_Source\PSoC4/B_Interrupt.c ****     return ((*B_Interrupt_INTC_SET_EN & (uint32)B_Interrupt__INTC_MASK) != 0u) ? 1u:0u;
 194              		.loc 1 341 0
 195 0000 034B     		ldr	r3, .L19
 196 0002 1B68     		ldr	r3, [r3]
 197 0004 DB03     		lsls	r3, r3, #15
 198 0006 01D5     		bpl	.L18
 199 0008 0120     		movs	r0, #1
 200 000a 00E0     		b	.L17
 201              	.L18:
 202 000c 0020     		movs	r0, #0
 203              	.L17:
 342:Generated_Source\PSoC4/B_Interrupt.c **** }
 204              		.loc 1 342 0 discriminator 4
 205              		@ sp needed
 206 000e 7047     		bx	lr
 207              	.L20:
 208              		.align	2
 209              	.L19:
 210 0010 00E100E0 		.word	-536813312
 211              		.cfi_endproc
 212              	.LFE42:
 213              		.size	B_Interrupt_GetState, .-B_Interrupt_GetState
 214              		.section	.text.B_Interrupt_Disable,"ax",%progbits
 215              		.align	2
 216              		.global	B_Interrupt_Disable
 217              		.code	16
 218              		.thumb_func
 219              		.type	B_Interrupt_Disable, %function
 220              	B_Interrupt_Disable:
 221              	.LFB43:
 343:Generated_Source\PSoC4/B_Interrupt.c **** 
 344:Generated_Source\PSoC4/B_Interrupt.c **** 
 345:Generated_Source\PSoC4/B_Interrupt.c **** /*******************************************************************************
 346:Generated_Source\PSoC4/B_Interrupt.c **** * Function Name: B_Interrupt_Disable
 347:Generated_Source\PSoC4/B_Interrupt.c **** ********************************************************************************
 348:Generated_Source\PSoC4/B_Interrupt.c **** *
ARM GAS  C:\Users\quint\AppData\Local\Temp\ccAOFas5.s 			page 11


 349:Generated_Source\PSoC4/B_Interrupt.c **** * Summary:
 350:Generated_Source\PSoC4/B_Interrupt.c **** *   Disables the Interrupt in the interrupt controller.
 351:Generated_Source\PSoC4/B_Interrupt.c **** *
 352:Generated_Source\PSoC4/B_Interrupt.c **** * Parameters:
 353:Generated_Source\PSoC4/B_Interrupt.c **** *   None
 354:Generated_Source\PSoC4/B_Interrupt.c **** *
 355:Generated_Source\PSoC4/B_Interrupt.c **** * Return:
 356:Generated_Source\PSoC4/B_Interrupt.c **** *   None
 357:Generated_Source\PSoC4/B_Interrupt.c **** *
 358:Generated_Source\PSoC4/B_Interrupt.c **** *******************************************************************************/
 359:Generated_Source\PSoC4/B_Interrupt.c **** void B_Interrupt_Disable(void)
 360:Generated_Source\PSoC4/B_Interrupt.c **** {
 222              		.loc 1 360 0
 223              		.cfi_startproc
 224              		@ args = 0, pretend = 0, frame = 0
 225              		@ frame_needed = 0, uses_anonymous_args = 0
 226              		@ link register save eliminated.
 361:Generated_Source\PSoC4/B_Interrupt.c ****     /* Disable the general interrupt. */
 362:Generated_Source\PSoC4/B_Interrupt.c ****     *B_Interrupt_INTC_CLR_EN = B_Interrupt__INTC_MASK;
 227              		.loc 1 362 0
 228 0000 8022     		movs	r2, #128
 229 0002 5202     		lsls	r2, r2, #9
 230 0004 014B     		ldr	r3, .L22
 231 0006 1A60     		str	r2, [r3]
 363:Generated_Source\PSoC4/B_Interrupt.c **** }
 232              		.loc 1 363 0
 233              		@ sp needed
 234 0008 7047     		bx	lr
 235              	.L23:
 236 000a C046     		.align	2
 237              	.L22:
 238 000c 80E100E0 		.word	-536813184
 239              		.cfi_endproc
 240              	.LFE43:
 241              		.size	B_Interrupt_Disable, .-B_Interrupt_Disable
 242              		.section	.text.B_Interrupt_Start,"ax",%progbits
 243              		.align	2
 244              		.global	B_Interrupt_Start
 245              		.code	16
 246              		.thumb_func
 247              		.type	B_Interrupt_Start, %function
 248              	B_Interrupt_Start:
 249              	.LFB33:
  63:Generated_Source\PSoC4/B_Interrupt.c ****     /* For all we know the interrupt is active. */
 250              		.loc 1 63 0
 251              		.cfi_startproc
 252              		@ args = 0, pretend = 0, frame = 0
 253              		@ frame_needed = 0, uses_anonymous_args = 0
 254 0000 10B5     		push	{r4, lr}
 255              		.cfi_def_cfa_offset 8
 256              		.cfi_offset 4, -8
 257              		.cfi_offset 14, -4
  65:Generated_Source\PSoC4/B_Interrupt.c **** 
 258              		.loc 1 65 0
 259 0002 FFF7FEFF 		bl	B_Interrupt_Disable
 260              	.LVL8:
  68:Generated_Source\PSoC4/B_Interrupt.c **** 
ARM GAS  C:\Users\quint\AppData\Local\Temp\ccAOFas5.s 			page 12


 261              		.loc 1 68 0
 262 0006 0448     		ldr	r0, .L25
 263 0008 FFF7FEFF 		bl	B_Interrupt_SetVector
 264              	.LVL9:
  71:Generated_Source\PSoC4/B_Interrupt.c **** 
 265              		.loc 1 71 0
 266 000c 0320     		movs	r0, #3
 267 000e FFF7FEFF 		bl	B_Interrupt_SetPriority
 268              	.LVL10:
  74:Generated_Source\PSoC4/B_Interrupt.c **** }
 269              		.loc 1 74 0
 270 0012 FFF7FEFF 		bl	B_Interrupt_Enable
 271              	.LVL11:
  75:Generated_Source\PSoC4/B_Interrupt.c **** 
 272              		.loc 1 75 0
 273              		@ sp needed
 274 0016 10BD     		pop	{r4, pc}
 275              	.L26:
 276              		.align	2
 277              	.L25:
 278 0018 00000000 		.word	B_Interrupt_Interrupt
 279              		.cfi_endproc
 280              	.LFE33:
 281              		.size	B_Interrupt_Start, .-B_Interrupt_Start
 282              		.section	.text.B_Interrupt_StartEx,"ax",%progbits
 283              		.align	2
 284              		.global	B_Interrupt_StartEx
 285              		.code	16
 286              		.thumb_func
 287              		.type	B_Interrupt_StartEx, %function
 288              	B_Interrupt_StartEx:
 289              	.LFB34:
 106:Generated_Source\PSoC4/B_Interrupt.c ****     /* For all we know the interrupt is active. */
 290              		.loc 1 106 0
 291              		.cfi_startproc
 292              		@ args = 0, pretend = 0, frame = 0
 293              		@ frame_needed = 0, uses_anonymous_args = 0
 294              	.LVL12:
 295 0000 10B5     		push	{r4, lr}
 296              		.cfi_def_cfa_offset 8
 297              		.cfi_offset 4, -8
 298              		.cfi_offset 14, -4
 299 0002 0400     		movs	r4, r0
 108:Generated_Source\PSoC4/B_Interrupt.c **** 
 300              		.loc 1 108 0
 301 0004 FFF7FEFF 		bl	B_Interrupt_Disable
 302              	.LVL13:
 111:Generated_Source\PSoC4/B_Interrupt.c **** 
 303              		.loc 1 111 0
 304 0008 2000     		movs	r0, r4
 305 000a FFF7FEFF 		bl	B_Interrupt_SetVector
 306              	.LVL14:
 114:Generated_Source\PSoC4/B_Interrupt.c **** 
 307              		.loc 1 114 0
 308 000e 0320     		movs	r0, #3
 309 0010 FFF7FEFF 		bl	B_Interrupt_SetPriority
 310              	.LVL15:
ARM GAS  C:\Users\quint\AppData\Local\Temp\ccAOFas5.s 			page 13


 117:Generated_Source\PSoC4/B_Interrupt.c **** }
 311              		.loc 1 117 0
 312 0014 FFF7FEFF 		bl	B_Interrupt_Enable
 313              	.LVL16:
 118:Generated_Source\PSoC4/B_Interrupt.c **** 
 314              		.loc 1 118 0
 315              		@ sp needed
 316              	.LVL17:
 317 0018 10BD     		pop	{r4, pc}
 318              		.cfi_endproc
 319              	.LFE34:
 320              		.size	B_Interrupt_StartEx, .-B_Interrupt_StartEx
 321 001a C046     		.section	.text.B_Interrupt_Stop,"ax",%progbits
 322              		.align	2
 323              		.global	B_Interrupt_Stop
 324              		.code	16
 325              		.thumb_func
 326              		.type	B_Interrupt_Stop, %function
 327              	B_Interrupt_Stop:
 328              	.LFB35:
 136:Generated_Source\PSoC4/B_Interrupt.c ****     /* Disable this interrupt. */
 329              		.loc 1 136 0
 330              		.cfi_startproc
 331              		@ args = 0, pretend = 0, frame = 0
 332              		@ frame_needed = 0, uses_anonymous_args = 0
 333 0000 10B5     		push	{r4, lr}
 334              		.cfi_def_cfa_offset 8
 335              		.cfi_offset 4, -8
 336              		.cfi_offset 14, -4
 138:Generated_Source\PSoC4/B_Interrupt.c **** 
 337              		.loc 1 138 0
 338 0002 FFF7FEFF 		bl	B_Interrupt_Disable
 339              	.LVL18:
 141:Generated_Source\PSoC4/B_Interrupt.c **** }
 340              		.loc 1 141 0
 341 0006 0248     		ldr	r0, .L29
 342 0008 FFF7FEFF 		bl	B_Interrupt_SetVector
 343              	.LVL19:
 142:Generated_Source\PSoC4/B_Interrupt.c **** 
 344              		.loc 1 142 0
 345              		@ sp needed
 346 000c 10BD     		pop	{r4, pc}
 347              	.L30:
 348 000e C046     		.align	2
 349              	.L29:
 350 0010 00000000 		.word	IntDefaultHandler
 351              		.cfi_endproc
 352              	.LFE35:
 353              		.size	B_Interrupt_Stop, .-B_Interrupt_Stop
 354              		.section	.text.B_Interrupt_SetPending,"ax",%progbits
 355              		.align	2
 356              		.global	B_Interrupt_SetPending
 357              		.code	16
 358              		.thumb_func
 359              		.type	B_Interrupt_SetPending, %function
 360              	B_Interrupt_SetPending:
 361              	.LFB44:
ARM GAS  C:\Users\quint\AppData\Local\Temp\ccAOFas5.s 			page 14


 364:Generated_Source\PSoC4/B_Interrupt.c **** 
 365:Generated_Source\PSoC4/B_Interrupt.c **** 
 366:Generated_Source\PSoC4/B_Interrupt.c **** /*******************************************************************************
 367:Generated_Source\PSoC4/B_Interrupt.c **** * Function Name: B_Interrupt_SetPending
 368:Generated_Source\PSoC4/B_Interrupt.c **** ********************************************************************************
 369:Generated_Source\PSoC4/B_Interrupt.c **** *
 370:Generated_Source\PSoC4/B_Interrupt.c **** * Summary:
 371:Generated_Source\PSoC4/B_Interrupt.c **** *   Causes the Interrupt to enter the pending state, a software method of
 372:Generated_Source\PSoC4/B_Interrupt.c **** *   generating the interrupt.
 373:Generated_Source\PSoC4/B_Interrupt.c **** *
 374:Generated_Source\PSoC4/B_Interrupt.c **** * Parameters:
 375:Generated_Source\PSoC4/B_Interrupt.c **** *   None
 376:Generated_Source\PSoC4/B_Interrupt.c **** *
 377:Generated_Source\PSoC4/B_Interrupt.c **** * Return:
 378:Generated_Source\PSoC4/B_Interrupt.c **** *   None
 379:Generated_Source\PSoC4/B_Interrupt.c **** *
 380:Generated_Source\PSoC4/B_Interrupt.c **** * Side Effects:
 381:Generated_Source\PSoC4/B_Interrupt.c **** *   If interrupts are enabled and the interrupt is set up properly, the ISR is
 382:Generated_Source\PSoC4/B_Interrupt.c **** *   entered (depending on the priority of this interrupt and other pending 
 383:Generated_Source\PSoC4/B_Interrupt.c **** *   interrupts).
 384:Generated_Source\PSoC4/B_Interrupt.c **** *
 385:Generated_Source\PSoC4/B_Interrupt.c **** *******************************************************************************/
 386:Generated_Source\PSoC4/B_Interrupt.c **** void B_Interrupt_SetPending(void)
 387:Generated_Source\PSoC4/B_Interrupt.c **** {
 362              		.loc 1 387 0
 363              		.cfi_startproc
 364              		@ args = 0, pretend = 0, frame = 0
 365              		@ frame_needed = 0, uses_anonymous_args = 0
 366              		@ link register save eliminated.
 388:Generated_Source\PSoC4/B_Interrupt.c ****     *B_Interrupt_INTC_SET_PD = B_Interrupt__INTC_MASK;
 367              		.loc 1 388 0
 368 0000 8022     		movs	r2, #128
 369 0002 5202     		lsls	r2, r2, #9
 370 0004 014B     		ldr	r3, .L32
 371 0006 1A60     		str	r2, [r3]
 389:Generated_Source\PSoC4/B_Interrupt.c **** }
 372              		.loc 1 389 0
 373              		@ sp needed
 374 0008 7047     		bx	lr
 375              	.L33:
 376 000a C046     		.align	2
 377              	.L32:
 378 000c 00E200E0 		.word	-536813056
 379              		.cfi_endproc
 380              	.LFE44:
 381              		.size	B_Interrupt_SetPending, .-B_Interrupt_SetPending
 382              		.section	.text.B_Interrupt_ClearPending,"ax",%progbits
 383              		.align	2
 384              		.global	B_Interrupt_ClearPending
 385              		.code	16
 386              		.thumb_func
 387              		.type	B_Interrupt_ClearPending, %function
 388              	B_Interrupt_ClearPending:
 389              	.LFB45:
 390:Generated_Source\PSoC4/B_Interrupt.c **** 
 391:Generated_Source\PSoC4/B_Interrupt.c **** 
 392:Generated_Source\PSoC4/B_Interrupt.c **** /*******************************************************************************
ARM GAS  C:\Users\quint\AppData\Local\Temp\ccAOFas5.s 			page 15


 393:Generated_Source\PSoC4/B_Interrupt.c **** * Function Name: B_Interrupt_ClearPending
 394:Generated_Source\PSoC4/B_Interrupt.c **** ********************************************************************************
 395:Generated_Source\PSoC4/B_Interrupt.c **** *
 396:Generated_Source\PSoC4/B_Interrupt.c **** * Summary:
 397:Generated_Source\PSoC4/B_Interrupt.c **** *   Clears a pending interrupt in the interrupt controller.
 398:Generated_Source\PSoC4/B_Interrupt.c **** *
 399:Generated_Source\PSoC4/B_Interrupt.c **** *   Note Some interrupt sources are clear-on-read and require the block 
 400:Generated_Source\PSoC4/B_Interrupt.c **** *   interrupt/status register to be read/cleared with the appropriate block API 
 401:Generated_Source\PSoC4/B_Interrupt.c **** *   (GPIO, UART, and so on). Otherwise the ISR will continue to remain in 
 402:Generated_Source\PSoC4/B_Interrupt.c **** *   pending state even though the interrupt itself is cleared using this API.
 403:Generated_Source\PSoC4/B_Interrupt.c **** *
 404:Generated_Source\PSoC4/B_Interrupt.c **** * Parameters:
 405:Generated_Source\PSoC4/B_Interrupt.c **** *   None
 406:Generated_Source\PSoC4/B_Interrupt.c **** *
 407:Generated_Source\PSoC4/B_Interrupt.c **** * Return:
 408:Generated_Source\PSoC4/B_Interrupt.c **** *   None
 409:Generated_Source\PSoC4/B_Interrupt.c **** *
 410:Generated_Source\PSoC4/B_Interrupt.c **** *******************************************************************************/
 411:Generated_Source\PSoC4/B_Interrupt.c **** void B_Interrupt_ClearPending(void)
 412:Generated_Source\PSoC4/B_Interrupt.c **** {
 390              		.loc 1 412 0
 391              		.cfi_startproc
 392              		@ args = 0, pretend = 0, frame = 0
 393              		@ frame_needed = 0, uses_anonymous_args = 0
 394              		@ link register save eliminated.
 413:Generated_Source\PSoC4/B_Interrupt.c ****     *B_Interrupt_INTC_CLR_PD = B_Interrupt__INTC_MASK;
 395              		.loc 1 413 0
 396 0000 8022     		movs	r2, #128
 397 0002 5202     		lsls	r2, r2, #9
 398 0004 014B     		ldr	r3, .L35
 399 0006 1A60     		str	r2, [r3]
 414:Generated_Source\PSoC4/B_Interrupt.c **** }
 400              		.loc 1 414 0
 401              		@ sp needed
 402 0008 7047     		bx	lr
 403              	.L36:
 404 000a C046     		.align	2
 405              	.L35:
 406 000c 80E200E0 		.word	-536812928
 407              		.cfi_endproc
 408              	.LFE45:
 409              		.size	B_Interrupt_ClearPending, .-B_Interrupt_ClearPending
 410              		.section	.text.B_Interrupt_Interrupt,"ax",%progbits
 411              		.align	2
 412              		.global	B_Interrupt_Interrupt
 413              		.code	16
 414              		.thumb_func
 415              		.type	B_Interrupt_Interrupt, %function
 416              	B_Interrupt_Interrupt:
 417              	.LFB36:
 166:Generated_Source\PSoC4/B_Interrupt.c ****     #ifdef B_Interrupt_INTERRUPT_INTERRUPT_CALLBACK
 418              		.loc 1 166 0
 419              		.cfi_startproc
 420              		@ args = 0, pretend = 0, frame = 0
 421              		@ frame_needed = 0, uses_anonymous_args = 0
 422 0000 10B5     		push	{r4, lr}
 423              		.cfi_def_cfa_offset 8
ARM GAS  C:\Users\quint\AppData\Local\Temp\ccAOFas5.s 			page 16


 424              		.cfi_offset 4, -8
 425              		.cfi_offset 14, -4
 176:Generated_Source\PSoC4/B_Interrupt.c ****                    PWM_1_ClearInterrupt(PWM_1_INTR_MASK_TC);
 426              		.loc 1 176 0
 427 0002 0020     		movs	r0, #0
 428 0004 FFF7FEFF 		bl	Timer_1_WriteCounter
 429              	.LVL20:
 177:Generated_Source\PSoC4/B_Interrupt.c ****             B_Interrupt_ClearPending(); //Needed to make other interupts work
 430              		.loc 1 177 0
 431 0008 0120     		movs	r0, #1
 432 000a FFF7FEFF 		bl	PWM_1_ClearInterrupt
 433              	.LVL21:
 178:Generated_Source\PSoC4/B_Interrupt.c ****     
 434              		.loc 1 178 0
 435 000e FFF7FEFF 		bl	B_Interrupt_ClearPending
 436              	.LVL22:
 182:Generated_Source\PSoC4/B_Interrupt.c **** 
 437              		.loc 1 182 0
 438              		@ sp needed
 439 0012 10BD     		pop	{r4, pc}
 440              		.cfi_endproc
 441              	.LFE36:
 442              		.size	B_Interrupt_Interrupt, .-B_Interrupt_Interrupt
 443              		.comm	GLCD_FONT8x16,1552,4
 444              		.text
 445              	.Letext0:
 446              		.file 2 "Generated_Source\\PSoC4/cytypes.h"
 447              		.file 3 "Generated_Source\\PSoC4\\GLCD.h"
 448              		.file 4 "Generated_Source\\PSoC4/CyLib.h"
 449              		.file 5 "Generated_Source\\PSoC4\\Timer_1.h"
 450              		.file 6 "Generated_Source\\PSoC4\\PWM_1.h"