ARM GAS  C:\Users\quint\AppData\Local\Temp\ccBe9eLh.s 			page 1


   1              		.syntax unified
   2              		.cpu cortex-m0
   3              		.fpu softvfp
   4              		.eabi_attribute 20, 1
   5              		.eabi_attribute 21, 1
   6              		.eabi_attribute 23, 3
   7              		.eabi_attribute 24, 1
   8              		.eabi_attribute 25, 1
   9              		.eabi_attribute 26, 1
  10              		.eabi_attribute 30, 1
  11              		.eabi_attribute 34, 0
  12              		.eabi_attribute 18, 4
  13              		.thumb
  14              		.syntax unified
  15              		.file	"DirectionInt.c"
  16              		.text
  17              	.Ltext0:
  18              		.cfi_sections	.debug_frame
  19              		.section	.text.DirectionInt_SetVector,"ax",%progbits
  20              		.align	2
  21              		.global	DirectionInt_SetVector
  22              		.code	16
  23              		.thumb_func
  24              		.type	DirectionInt_SetVector, %function
  25              	DirectionInt_SetVector:
  26              	.LFB36:
  27              		.file 1 "Generated_Source\\PSoC4\\DirectionInt.c"
   1:Generated_Source\PSoC4/DirectionInt.c **** /*******************************************************************************
   2:Generated_Source\PSoC4/DirectionInt.c **** * File Name: DirectionInt.c  
   3:Generated_Source\PSoC4/DirectionInt.c **** * Version 1.70
   4:Generated_Source\PSoC4/DirectionInt.c **** *
   5:Generated_Source\PSoC4/DirectionInt.c **** *  Description:
   6:Generated_Source\PSoC4/DirectionInt.c **** *   API for controlling the state of an interrupt.
   7:Generated_Source\PSoC4/DirectionInt.c **** *
   8:Generated_Source\PSoC4/DirectionInt.c **** *
   9:Generated_Source\PSoC4/DirectionInt.c **** *  Note:
  10:Generated_Source\PSoC4/DirectionInt.c **** *
  11:Generated_Source\PSoC4/DirectionInt.c **** ********************************************************************************
  12:Generated_Source\PSoC4/DirectionInt.c **** * Copyright 2008-2015, Cypress Semiconductor Corporation.  All rights reserved.
  13:Generated_Source\PSoC4/DirectionInt.c **** * You may use this file only in accordance with the license, terms, conditions, 
  14:Generated_Source\PSoC4/DirectionInt.c **** * disclaimers, and limitations in the end user license agreement accompanying 
  15:Generated_Source\PSoC4/DirectionInt.c **** * the software package with which this file was provided.
  16:Generated_Source\PSoC4/DirectionInt.c **** *******************************************************************************/
  17:Generated_Source\PSoC4/DirectionInt.c **** 
  18:Generated_Source\PSoC4/DirectionInt.c **** 
  19:Generated_Source\PSoC4/DirectionInt.c **** #include <cydevice_trm.h>
  20:Generated_Source\PSoC4/DirectionInt.c **** #include <CyLib.h>
  21:Generated_Source\PSoC4/DirectionInt.c **** #include <DirectionInt.h>
  22:Generated_Source\PSoC4/DirectionInt.c **** #include "cyapicallbacks.h"
  23:Generated_Source\PSoC4/DirectionInt.c **** 
  24:Generated_Source\PSoC4/DirectionInt.c **** #if !defined(DirectionInt__REMOVED) /* Check for removal by optimization */
  25:Generated_Source\PSoC4/DirectionInt.c **** 
  26:Generated_Source\PSoC4/DirectionInt.c **** /*******************************************************************************
  27:Generated_Source\PSoC4/DirectionInt.c **** *  Place your includes, defines and code here 
  28:Generated_Source\PSoC4/DirectionInt.c **** ********************************************************************************/
  29:Generated_Source\PSoC4/DirectionInt.c **** /* `#START DirectionInt_intc` */
  30:Generated_Source\PSoC4/DirectionInt.c ****     #include "project.h"
ARM GAS  C:\Users\quint\AppData\Local\Temp\ccBe9eLh.s 			page 2


  31:Generated_Source\PSoC4/DirectionInt.c ****     extern void dcMotorControll();
  32:Generated_Source\PSoC4/DirectionInt.c **** /* `#END` */
  33:Generated_Source\PSoC4/DirectionInt.c **** 
  34:Generated_Source\PSoC4/DirectionInt.c **** extern cyisraddress CyRamVectors[CYINT_IRQ_BASE + CY_NUM_INTERRUPTS];
  35:Generated_Source\PSoC4/DirectionInt.c **** 
  36:Generated_Source\PSoC4/DirectionInt.c **** /* Declared in startup, used to set unused interrupts to. */
  37:Generated_Source\PSoC4/DirectionInt.c **** CY_ISR_PROTO(IntDefaultHandler);
  38:Generated_Source\PSoC4/DirectionInt.c **** 
  39:Generated_Source\PSoC4/DirectionInt.c **** 
  40:Generated_Source\PSoC4/DirectionInt.c **** /*******************************************************************************
  41:Generated_Source\PSoC4/DirectionInt.c **** * Function Name: DirectionInt_Start
  42:Generated_Source\PSoC4/DirectionInt.c **** ********************************************************************************
  43:Generated_Source\PSoC4/DirectionInt.c **** *
  44:Generated_Source\PSoC4/DirectionInt.c **** * Summary:
  45:Generated_Source\PSoC4/DirectionInt.c **** *  Set up the interrupt and enable it. This function disables the interrupt, 
  46:Generated_Source\PSoC4/DirectionInt.c **** *  sets the default interrupt vector, sets the priority from the value in the
  47:Generated_Source\PSoC4/DirectionInt.c **** *  Design Wide Resources Interrupt Editor, then enables the interrupt to the 
  48:Generated_Source\PSoC4/DirectionInt.c **** *  interrupt controller.
  49:Generated_Source\PSoC4/DirectionInt.c **** *
  50:Generated_Source\PSoC4/DirectionInt.c **** * Parameters:  
  51:Generated_Source\PSoC4/DirectionInt.c **** *   None
  52:Generated_Source\PSoC4/DirectionInt.c **** *
  53:Generated_Source\PSoC4/DirectionInt.c **** * Return:
  54:Generated_Source\PSoC4/DirectionInt.c **** *   None
  55:Generated_Source\PSoC4/DirectionInt.c **** *
  56:Generated_Source\PSoC4/DirectionInt.c **** *******************************************************************************/
  57:Generated_Source\PSoC4/DirectionInt.c **** void DirectionInt_Start(void)
  58:Generated_Source\PSoC4/DirectionInt.c **** {
  59:Generated_Source\PSoC4/DirectionInt.c ****     /* For all we know the interrupt is active. */
  60:Generated_Source\PSoC4/DirectionInt.c ****     DirectionInt_Disable();
  61:Generated_Source\PSoC4/DirectionInt.c **** 
  62:Generated_Source\PSoC4/DirectionInt.c ****     /* Set the ISR to point to the DirectionInt Interrupt. */
  63:Generated_Source\PSoC4/DirectionInt.c ****     DirectionInt_SetVector(&DirectionInt_Interrupt);
  64:Generated_Source\PSoC4/DirectionInt.c **** 
  65:Generated_Source\PSoC4/DirectionInt.c ****     /* Set the priority. */
  66:Generated_Source\PSoC4/DirectionInt.c ****     DirectionInt_SetPriority((uint8)DirectionInt_INTC_PRIOR_NUMBER);
  67:Generated_Source\PSoC4/DirectionInt.c **** 
  68:Generated_Source\PSoC4/DirectionInt.c ****     /* Enable it. */
  69:Generated_Source\PSoC4/DirectionInt.c ****     DirectionInt_Enable();
  70:Generated_Source\PSoC4/DirectionInt.c **** }
  71:Generated_Source\PSoC4/DirectionInt.c **** 
  72:Generated_Source\PSoC4/DirectionInt.c **** 
  73:Generated_Source\PSoC4/DirectionInt.c **** /*******************************************************************************
  74:Generated_Source\PSoC4/DirectionInt.c **** * Function Name: DirectionInt_StartEx
  75:Generated_Source\PSoC4/DirectionInt.c **** ********************************************************************************
  76:Generated_Source\PSoC4/DirectionInt.c **** *
  77:Generated_Source\PSoC4/DirectionInt.c **** * Summary:
  78:Generated_Source\PSoC4/DirectionInt.c **** *  Sets up the interrupt and enables it. This function disables the interrupt,
  79:Generated_Source\PSoC4/DirectionInt.c **** *  sets the interrupt vector based on the address passed in, sets the priority 
  80:Generated_Source\PSoC4/DirectionInt.c **** *  from the value in the Design Wide Resources Interrupt Editor, then enables 
  81:Generated_Source\PSoC4/DirectionInt.c **** *  the interrupt to the interrupt controller.
  82:Generated_Source\PSoC4/DirectionInt.c **** *  
  83:Generated_Source\PSoC4/DirectionInt.c **** *  When defining ISR functions, the CY_ISR and CY_ISR_PROTO macros should be 
  84:Generated_Source\PSoC4/DirectionInt.c **** *  used to provide consistent definition across compilers:
  85:Generated_Source\PSoC4/DirectionInt.c **** *  
  86:Generated_Source\PSoC4/DirectionInt.c **** *  Function definition example:
  87:Generated_Source\PSoC4/DirectionInt.c **** *   CY_ISR(MyISR)
ARM GAS  C:\Users\quint\AppData\Local\Temp\ccBe9eLh.s 			page 3


  88:Generated_Source\PSoC4/DirectionInt.c **** *   {
  89:Generated_Source\PSoC4/DirectionInt.c **** *   }
  90:Generated_Source\PSoC4/DirectionInt.c **** *   Function prototype example:
  91:Generated_Source\PSoC4/DirectionInt.c **** *   CY_ISR_PROTO(MyISR);
  92:Generated_Source\PSoC4/DirectionInt.c **** *
  93:Generated_Source\PSoC4/DirectionInt.c **** * Parameters:  
  94:Generated_Source\PSoC4/DirectionInt.c **** *   address: Address of the ISR to set in the interrupt vector table.
  95:Generated_Source\PSoC4/DirectionInt.c **** *
  96:Generated_Source\PSoC4/DirectionInt.c **** * Return:
  97:Generated_Source\PSoC4/DirectionInt.c **** *   None
  98:Generated_Source\PSoC4/DirectionInt.c **** *
  99:Generated_Source\PSoC4/DirectionInt.c **** *******************************************************************************/
 100:Generated_Source\PSoC4/DirectionInt.c **** void DirectionInt_StartEx(cyisraddress address)
 101:Generated_Source\PSoC4/DirectionInt.c **** {
 102:Generated_Source\PSoC4/DirectionInt.c ****     /* For all we know the interrupt is active. */
 103:Generated_Source\PSoC4/DirectionInt.c ****     DirectionInt_Disable();
 104:Generated_Source\PSoC4/DirectionInt.c **** 
 105:Generated_Source\PSoC4/DirectionInt.c ****     /* Set the ISR to point to the DirectionInt Interrupt. */
 106:Generated_Source\PSoC4/DirectionInt.c ****     DirectionInt_SetVector(address);
 107:Generated_Source\PSoC4/DirectionInt.c **** 
 108:Generated_Source\PSoC4/DirectionInt.c ****     /* Set the priority. */
 109:Generated_Source\PSoC4/DirectionInt.c ****     DirectionInt_SetPriority((uint8)DirectionInt_INTC_PRIOR_NUMBER);
 110:Generated_Source\PSoC4/DirectionInt.c **** 
 111:Generated_Source\PSoC4/DirectionInt.c ****     /* Enable it. */
 112:Generated_Source\PSoC4/DirectionInt.c ****     DirectionInt_Enable();
 113:Generated_Source\PSoC4/DirectionInt.c **** }
 114:Generated_Source\PSoC4/DirectionInt.c **** 
 115:Generated_Source\PSoC4/DirectionInt.c **** 
 116:Generated_Source\PSoC4/DirectionInt.c **** /*******************************************************************************
 117:Generated_Source\PSoC4/DirectionInt.c **** * Function Name: DirectionInt_Stop
 118:Generated_Source\PSoC4/DirectionInt.c **** ********************************************************************************
 119:Generated_Source\PSoC4/DirectionInt.c **** *
 120:Generated_Source\PSoC4/DirectionInt.c **** * Summary:
 121:Generated_Source\PSoC4/DirectionInt.c **** *   Disables and removes the interrupt.
 122:Generated_Source\PSoC4/DirectionInt.c **** *
 123:Generated_Source\PSoC4/DirectionInt.c **** * Parameters:  
 124:Generated_Source\PSoC4/DirectionInt.c **** *   None
 125:Generated_Source\PSoC4/DirectionInt.c **** *
 126:Generated_Source\PSoC4/DirectionInt.c **** * Return:
 127:Generated_Source\PSoC4/DirectionInt.c **** *   None
 128:Generated_Source\PSoC4/DirectionInt.c **** *
 129:Generated_Source\PSoC4/DirectionInt.c **** *******************************************************************************/
 130:Generated_Source\PSoC4/DirectionInt.c **** void DirectionInt_Stop(void)
 131:Generated_Source\PSoC4/DirectionInt.c **** {
 132:Generated_Source\PSoC4/DirectionInt.c ****     /* Disable this interrupt. */
 133:Generated_Source\PSoC4/DirectionInt.c ****     DirectionInt_Disable();
 134:Generated_Source\PSoC4/DirectionInt.c **** 
 135:Generated_Source\PSoC4/DirectionInt.c ****     /* Set the ISR to point to the passive one. */
 136:Generated_Source\PSoC4/DirectionInt.c ****     DirectionInt_SetVector(&IntDefaultHandler);
 137:Generated_Source\PSoC4/DirectionInt.c **** }
 138:Generated_Source\PSoC4/DirectionInt.c **** 
 139:Generated_Source\PSoC4/DirectionInt.c **** 
 140:Generated_Source\PSoC4/DirectionInt.c **** /*******************************************************************************
 141:Generated_Source\PSoC4/DirectionInt.c **** * Function Name: DirectionInt_Interrupt
 142:Generated_Source\PSoC4/DirectionInt.c **** ********************************************************************************
 143:Generated_Source\PSoC4/DirectionInt.c **** *
 144:Generated_Source\PSoC4/DirectionInt.c **** * Summary:
ARM GAS  C:\Users\quint\AppData\Local\Temp\ccBe9eLh.s 			page 4


 145:Generated_Source\PSoC4/DirectionInt.c **** *   The default Interrupt Service Routine for DirectionInt.
 146:Generated_Source\PSoC4/DirectionInt.c **** *
 147:Generated_Source\PSoC4/DirectionInt.c **** *   Add custom code between the START and END comments to keep the next version
 148:Generated_Source\PSoC4/DirectionInt.c **** *   of this file from over-writing your code.
 149:Generated_Source\PSoC4/DirectionInt.c **** *
 150:Generated_Source\PSoC4/DirectionInt.c **** *   Note You may use either the default ISR by using this API, or you may define
 151:Generated_Source\PSoC4/DirectionInt.c **** *   your own separate ISR through ISR_StartEx().
 152:Generated_Source\PSoC4/DirectionInt.c **** *
 153:Generated_Source\PSoC4/DirectionInt.c **** * Parameters:  
 154:Generated_Source\PSoC4/DirectionInt.c **** *   None
 155:Generated_Source\PSoC4/DirectionInt.c **** *
 156:Generated_Source\PSoC4/DirectionInt.c **** * Return:
 157:Generated_Source\PSoC4/DirectionInt.c **** *   None
 158:Generated_Source\PSoC4/DirectionInt.c **** *
 159:Generated_Source\PSoC4/DirectionInt.c **** *******************************************************************************/
 160:Generated_Source\PSoC4/DirectionInt.c **** CY_ISR(DirectionInt_Interrupt)
 161:Generated_Source\PSoC4/DirectionInt.c **** {
 162:Generated_Source\PSoC4/DirectionInt.c ****     #ifdef DirectionInt_INTERRUPT_INTERRUPT_CALLBACK
 163:Generated_Source\PSoC4/DirectionInt.c ****         DirectionInt_Interrupt_InterruptCallback();
 164:Generated_Source\PSoC4/DirectionInt.c ****     #endif /* DirectionInt_INTERRUPT_INTERRUPT_CALLBACK */ 
 165:Generated_Source\PSoC4/DirectionInt.c **** 
 166:Generated_Source\PSoC4/DirectionInt.c ****     /*  Place your Interrupt code here. */
 167:Generated_Source\PSoC4/DirectionInt.c ****     /* `#START DirectionInt_Interrupt` */
 168:Generated_Source\PSoC4/DirectionInt.c ****     
 169:Generated_Source\PSoC4/DirectionInt.c ****      dcMotorControll();
 170:Generated_Source\PSoC4/DirectionInt.c ****     CyDelay(10); 
 171:Generated_Source\PSoC4/DirectionInt.c ****     DirectionInt_ClearPending(); 
 172:Generated_Source\PSoC4/DirectionInt.c ****     /* `#END` */
 173:Generated_Source\PSoC4/DirectionInt.c **** }
 174:Generated_Source\PSoC4/DirectionInt.c **** 
 175:Generated_Source\PSoC4/DirectionInt.c **** 
 176:Generated_Source\PSoC4/DirectionInt.c **** /*******************************************************************************
 177:Generated_Source\PSoC4/DirectionInt.c **** * Function Name: DirectionInt_SetVector
 178:Generated_Source\PSoC4/DirectionInt.c **** ********************************************************************************
 179:Generated_Source\PSoC4/DirectionInt.c **** *
 180:Generated_Source\PSoC4/DirectionInt.c **** * Summary:
 181:Generated_Source\PSoC4/DirectionInt.c **** *   Change the ISR vector for the Interrupt. Note calling DirectionInt_Start
 182:Generated_Source\PSoC4/DirectionInt.c **** *   will override any effect this method would have had. To set the vector 
 183:Generated_Source\PSoC4/DirectionInt.c **** *   before the component has been started use DirectionInt_StartEx instead.
 184:Generated_Source\PSoC4/DirectionInt.c **** * 
 185:Generated_Source\PSoC4/DirectionInt.c **** *   When defining ISR functions, the CY_ISR and CY_ISR_PROTO macros should be 
 186:Generated_Source\PSoC4/DirectionInt.c **** *   used to provide consistent definition across compilers:
 187:Generated_Source\PSoC4/DirectionInt.c **** *
 188:Generated_Source\PSoC4/DirectionInt.c **** *   Function definition example:
 189:Generated_Source\PSoC4/DirectionInt.c **** *   CY_ISR(MyISR)
 190:Generated_Source\PSoC4/DirectionInt.c **** *   {
 191:Generated_Source\PSoC4/DirectionInt.c **** *   }
 192:Generated_Source\PSoC4/DirectionInt.c **** *
 193:Generated_Source\PSoC4/DirectionInt.c **** *   Function prototype example:
 194:Generated_Source\PSoC4/DirectionInt.c **** *     CY_ISR_PROTO(MyISR);
 195:Generated_Source\PSoC4/DirectionInt.c **** *
 196:Generated_Source\PSoC4/DirectionInt.c **** * Parameters:
 197:Generated_Source\PSoC4/DirectionInt.c **** *   address: Address of the ISR to set in the interrupt vector table.
 198:Generated_Source\PSoC4/DirectionInt.c **** *
 199:Generated_Source\PSoC4/DirectionInt.c **** * Return:
 200:Generated_Source\PSoC4/DirectionInt.c **** *   None
 201:Generated_Source\PSoC4/DirectionInt.c **** *
ARM GAS  C:\Users\quint\AppData\Local\Temp\ccBe9eLh.s 			page 5


 202:Generated_Source\PSoC4/DirectionInt.c **** *******************************************************************************/
 203:Generated_Source\PSoC4/DirectionInt.c **** void DirectionInt_SetVector(cyisraddress address)
 204:Generated_Source\PSoC4/DirectionInt.c **** {
  28              		.loc 1 204 0
  29              		.cfi_startproc
  30              		@ args = 0, pretend = 0, frame = 0
  31              		@ frame_needed = 0, uses_anonymous_args = 0
  32              		@ link register save eliminated.
  33              	.LVL0:
 205:Generated_Source\PSoC4/DirectionInt.c ****     CyRamVectors[CYINT_IRQ_BASE + DirectionInt__INTC_NUMBER] = address;
  34              		.loc 1 205 0
  35 0000 014B     		ldr	r3, .L2
  36 0002 1864     		str	r0, [r3, #64]
 206:Generated_Source\PSoC4/DirectionInt.c **** }
  37              		.loc 1 206 0
  38              		@ sp needed
  39 0004 7047     		bx	lr
  40              	.L3:
  41 0006 C046     		.align	2
  42              	.L2:
  43 0008 00000000 		.word	CyRamVectors
  44              		.cfi_endproc
  45              	.LFE36:
  46              		.size	DirectionInt_SetVector, .-DirectionInt_SetVector
  47              		.section	.text.DirectionInt_GetVector,"ax",%progbits
  48              		.align	2
  49              		.global	DirectionInt_GetVector
  50              		.code	16
  51              		.thumb_func
  52              		.type	DirectionInt_GetVector, %function
  53              	DirectionInt_GetVector:
  54              	.LFB37:
 207:Generated_Source\PSoC4/DirectionInt.c **** 
 208:Generated_Source\PSoC4/DirectionInt.c **** 
 209:Generated_Source\PSoC4/DirectionInt.c **** /*******************************************************************************
 210:Generated_Source\PSoC4/DirectionInt.c **** * Function Name: DirectionInt_GetVector
 211:Generated_Source\PSoC4/DirectionInt.c **** ********************************************************************************
 212:Generated_Source\PSoC4/DirectionInt.c **** *
 213:Generated_Source\PSoC4/DirectionInt.c **** * Summary:
 214:Generated_Source\PSoC4/DirectionInt.c **** *   Gets the "address" of the current ISR vector for the Interrupt.
 215:Generated_Source\PSoC4/DirectionInt.c **** *
 216:Generated_Source\PSoC4/DirectionInt.c **** * Parameters:
 217:Generated_Source\PSoC4/DirectionInt.c **** *   None
 218:Generated_Source\PSoC4/DirectionInt.c **** *
 219:Generated_Source\PSoC4/DirectionInt.c **** * Return:
 220:Generated_Source\PSoC4/DirectionInt.c **** *   Address of the ISR in the interrupt vector table.
 221:Generated_Source\PSoC4/DirectionInt.c **** *
 222:Generated_Source\PSoC4/DirectionInt.c **** *******************************************************************************/
 223:Generated_Source\PSoC4/DirectionInt.c **** cyisraddress DirectionInt_GetVector(void)
 224:Generated_Source\PSoC4/DirectionInt.c **** {
  55              		.loc 1 224 0
  56              		.cfi_startproc
  57              		@ args = 0, pretend = 0, frame = 0
  58              		@ frame_needed = 0, uses_anonymous_args = 0
  59              		@ link register save eliminated.
 225:Generated_Source\PSoC4/DirectionInt.c ****     return CyRamVectors[CYINT_IRQ_BASE + DirectionInt__INTC_NUMBER];
  60              		.loc 1 225 0
ARM GAS  C:\Users\quint\AppData\Local\Temp\ccBe9eLh.s 			page 6


  61 0000 014B     		ldr	r3, .L5
  62 0002 186C     		ldr	r0, [r3, #64]
 226:Generated_Source\PSoC4/DirectionInt.c **** }
  63              		.loc 1 226 0
  64              		@ sp needed
  65 0004 7047     		bx	lr
  66              	.L6:
  67 0006 C046     		.align	2
  68              	.L5:
  69 0008 00000000 		.word	CyRamVectors
  70              		.cfi_endproc
  71              	.LFE37:
  72              		.size	DirectionInt_GetVector, .-DirectionInt_GetVector
  73              		.section	.text.DirectionInt_SetPriority,"ax",%progbits
  74              		.align	2
  75              		.global	DirectionInt_SetPriority
  76              		.code	16
  77              		.thumb_func
  78              		.type	DirectionInt_SetPriority, %function
  79              	DirectionInt_SetPriority:
  80              	.LFB38:
 227:Generated_Source\PSoC4/DirectionInt.c **** 
 228:Generated_Source\PSoC4/DirectionInt.c **** 
 229:Generated_Source\PSoC4/DirectionInt.c **** /*******************************************************************************
 230:Generated_Source\PSoC4/DirectionInt.c **** * Function Name: DirectionInt_SetPriority
 231:Generated_Source\PSoC4/DirectionInt.c **** ********************************************************************************
 232:Generated_Source\PSoC4/DirectionInt.c **** *
 233:Generated_Source\PSoC4/DirectionInt.c **** * Summary:
 234:Generated_Source\PSoC4/DirectionInt.c **** *   Sets the Priority of the Interrupt. 
 235:Generated_Source\PSoC4/DirectionInt.c **** *
 236:Generated_Source\PSoC4/DirectionInt.c **** *   Note calling DirectionInt_Start or DirectionInt_StartEx will 
 237:Generated_Source\PSoC4/DirectionInt.c **** *   override any effect this API would have had. This API should only be called
 238:Generated_Source\PSoC4/DirectionInt.c **** *   after DirectionInt_Start or DirectionInt_StartEx has been called. 
 239:Generated_Source\PSoC4/DirectionInt.c **** *   To set the initial priority for the component, use the Design-Wide Resources
 240:Generated_Source\PSoC4/DirectionInt.c **** *   Interrupt Editor.
 241:Generated_Source\PSoC4/DirectionInt.c **** *
 242:Generated_Source\PSoC4/DirectionInt.c **** *   Note This API has no effect on Non-maskable interrupt NMI).
 243:Generated_Source\PSoC4/DirectionInt.c **** *
 244:Generated_Source\PSoC4/DirectionInt.c **** * Parameters:
 245:Generated_Source\PSoC4/DirectionInt.c **** *   priority: Priority of the interrupt, 0 being the highest priority
 246:Generated_Source\PSoC4/DirectionInt.c **** *             PSoC 3 and PSoC 5LP: Priority is from 0 to 7.
 247:Generated_Source\PSoC4/DirectionInt.c **** *             PSoC 4: Priority is from 0 to 3.
 248:Generated_Source\PSoC4/DirectionInt.c **** *
 249:Generated_Source\PSoC4/DirectionInt.c **** * Return:
 250:Generated_Source\PSoC4/DirectionInt.c **** *   None
 251:Generated_Source\PSoC4/DirectionInt.c **** *
 252:Generated_Source\PSoC4/DirectionInt.c **** *******************************************************************************/
 253:Generated_Source\PSoC4/DirectionInt.c **** void DirectionInt_SetPriority(uint8 priority)
 254:Generated_Source\PSoC4/DirectionInt.c **** {
  81              		.loc 1 254 0
  82              		.cfi_startproc
  83              		@ args = 0, pretend = 0, frame = 0
  84              		@ frame_needed = 0, uses_anonymous_args = 0
  85              	.LVL1:
  86 0000 10B5     		push	{r4, lr}
  87              		.cfi_def_cfa_offset 8
  88              		.cfi_offset 4, -8
ARM GAS  C:\Users\quint\AppData\Local\Temp\ccBe9eLh.s 			page 7


  89              		.cfi_offset 14, -4
  90 0002 0400     		movs	r4, r0
  91              	.LVL2:
 255:Generated_Source\PSoC4/DirectionInt.c **** 	uint8 interruptState;
 256:Generated_Source\PSoC4/DirectionInt.c ****     uint32 priorityOffset = ((DirectionInt__INTC_NUMBER % 4u) * 8u) + 6u;
 257:Generated_Source\PSoC4/DirectionInt.c ****     
 258:Generated_Source\PSoC4/DirectionInt.c **** 	interruptState = CyEnterCriticalSection();
  92              		.loc 1 258 0
  93 0004 FFF7FEFF 		bl	CyEnterCriticalSection
  94              	.LVL3:
 259:Generated_Source\PSoC4/DirectionInt.c ****     *DirectionInt_INTC_PRIOR = (*DirectionInt_INTC_PRIOR & (uint32)(~DirectionInt__INTC_PRIOR_MASK)
  95              		.loc 1 259 0
  96 0008 044A     		ldr	r2, .L8
  97 000a 1368     		ldr	r3, [r2]
  98 000c C021     		movs	r1, #192
  99 000e 8B43     		bics	r3, r1
 260:Generated_Source\PSoC4/DirectionInt.c ****                                     ((uint32)priority << priorityOffset);
 100              		.loc 1 260 0
 101 0010 A401     		lsls	r4, r4, #6
 259:Generated_Source\PSoC4/DirectionInt.c ****     *DirectionInt_INTC_PRIOR = (*DirectionInt_INTC_PRIOR & (uint32)(~DirectionInt__INTC_PRIOR_MASK)
 102              		.loc 1 259 0
 103 0012 1C43     		orrs	r4, r3
 104 0014 1460     		str	r4, [r2]
 261:Generated_Source\PSoC4/DirectionInt.c **** 	CyExitCriticalSection(interruptState);
 105              		.loc 1 261 0
 106 0016 FFF7FEFF 		bl	CyExitCriticalSection
 107              	.LVL4:
 262:Generated_Source\PSoC4/DirectionInt.c **** }
 108              		.loc 1 262 0
 109              		@ sp needed
 110 001a 10BD     		pop	{r4, pc}
 111              	.L9:
 112              		.align	2
 113              	.L8:
 114 001c 00E400E0 		.word	-536812544
 115              		.cfi_endproc
 116              	.LFE38:
 117              		.size	DirectionInt_SetPriority, .-DirectionInt_SetPriority
 118              		.section	.text.DirectionInt_GetPriority,"ax",%progbits
 119              		.align	2
 120              		.global	DirectionInt_GetPriority
 121              		.code	16
 122              		.thumb_func
 123              		.type	DirectionInt_GetPriority, %function
 124              	DirectionInt_GetPriority:
 125              	.LFB39:
 263:Generated_Source\PSoC4/DirectionInt.c **** 
 264:Generated_Source\PSoC4/DirectionInt.c **** 
 265:Generated_Source\PSoC4/DirectionInt.c **** /*******************************************************************************
 266:Generated_Source\PSoC4/DirectionInt.c **** * Function Name: DirectionInt_GetPriority
 267:Generated_Source\PSoC4/DirectionInt.c **** ********************************************************************************
 268:Generated_Source\PSoC4/DirectionInt.c **** *
 269:Generated_Source\PSoC4/DirectionInt.c **** * Summary:
 270:Generated_Source\PSoC4/DirectionInt.c **** *   Gets the Priority of the Interrupt.
 271:Generated_Source\PSoC4/DirectionInt.c **** *
 272:Generated_Source\PSoC4/DirectionInt.c **** * Parameters:
 273:Generated_Source\PSoC4/DirectionInt.c **** *   None
ARM GAS  C:\Users\quint\AppData\Local\Temp\ccBe9eLh.s 			page 8


 274:Generated_Source\PSoC4/DirectionInt.c **** *
 275:Generated_Source\PSoC4/DirectionInt.c **** * Return:
 276:Generated_Source\PSoC4/DirectionInt.c **** *   Priority of the interrupt, 0 being the highest priority
 277:Generated_Source\PSoC4/DirectionInt.c **** *    PSoC 3 and PSoC 5LP: Priority is from 0 to 7.
 278:Generated_Source\PSoC4/DirectionInt.c **** *    PSoC 4: Priority is from 0 to 3.
 279:Generated_Source\PSoC4/DirectionInt.c **** *
 280:Generated_Source\PSoC4/DirectionInt.c **** *******************************************************************************/
 281:Generated_Source\PSoC4/DirectionInt.c **** uint8 DirectionInt_GetPriority(void)
 282:Generated_Source\PSoC4/DirectionInt.c **** {
 126              		.loc 1 282 0
 127              		.cfi_startproc
 128              		@ args = 0, pretend = 0, frame = 0
 129              		@ frame_needed = 0, uses_anonymous_args = 0
 130              		@ link register save eliminated.
 131              	.LVL5:
 283:Generated_Source\PSoC4/DirectionInt.c ****     uint32 priority;
 284:Generated_Source\PSoC4/DirectionInt.c **** 	uint32 priorityOffset = ((DirectionInt__INTC_NUMBER % 4u) * 8u) + 6u;
 285:Generated_Source\PSoC4/DirectionInt.c **** 
 286:Generated_Source\PSoC4/DirectionInt.c ****     priority = (*DirectionInt_INTC_PRIOR & DirectionInt__INTC_PRIOR_MASK) >> priorityOffset;
 132              		.loc 1 286 0
 133 0000 024B     		ldr	r3, .L11
 134 0002 1868     		ldr	r0, [r3]
 135 0004 8009     		lsrs	r0, r0, #6
 136              	.LVL6:
 287:Generated_Source\PSoC4/DirectionInt.c **** 
 288:Generated_Source\PSoC4/DirectionInt.c ****     return (uint8)priority;
 137              		.loc 1 288 0
 138 0006 0323     		movs	r3, #3
 139 0008 1840     		ands	r0, r3
 140              	.LVL7:
 289:Generated_Source\PSoC4/DirectionInt.c **** }
 141              		.loc 1 289 0
 142              		@ sp needed
 143 000a 7047     		bx	lr
 144              	.L12:
 145              		.align	2
 146              	.L11:
 147 000c 00E400E0 		.word	-536812544
 148              		.cfi_endproc
 149              	.LFE39:
 150              		.size	DirectionInt_GetPriority, .-DirectionInt_GetPriority
 151              		.section	.text.DirectionInt_Enable,"ax",%progbits
 152              		.align	2
 153              		.global	DirectionInt_Enable
 154              		.code	16
 155              		.thumb_func
 156              		.type	DirectionInt_Enable, %function
 157              	DirectionInt_Enable:
 158              	.LFB40:
 290:Generated_Source\PSoC4/DirectionInt.c **** 
 291:Generated_Source\PSoC4/DirectionInt.c **** 
 292:Generated_Source\PSoC4/DirectionInt.c **** /*******************************************************************************
 293:Generated_Source\PSoC4/DirectionInt.c **** * Function Name: DirectionInt_Enable
 294:Generated_Source\PSoC4/DirectionInt.c **** ********************************************************************************
 295:Generated_Source\PSoC4/DirectionInt.c **** *
 296:Generated_Source\PSoC4/DirectionInt.c **** * Summary:
 297:Generated_Source\PSoC4/DirectionInt.c **** *   Enables the interrupt to the interrupt controller. Do not call this function
ARM GAS  C:\Users\quint\AppData\Local\Temp\ccBe9eLh.s 			page 9


 298:Generated_Source\PSoC4/DirectionInt.c **** *   unless ISR_Start() has been called or the functionality of the ISR_Start() 
 299:Generated_Source\PSoC4/DirectionInt.c **** *   function, which sets the vector and the priority, has been called.
 300:Generated_Source\PSoC4/DirectionInt.c **** *
 301:Generated_Source\PSoC4/DirectionInt.c **** * Parameters:
 302:Generated_Source\PSoC4/DirectionInt.c **** *   None
 303:Generated_Source\PSoC4/DirectionInt.c **** *
 304:Generated_Source\PSoC4/DirectionInt.c **** * Return:
 305:Generated_Source\PSoC4/DirectionInt.c **** *   None
 306:Generated_Source\PSoC4/DirectionInt.c **** *
 307:Generated_Source\PSoC4/DirectionInt.c **** *******************************************************************************/
 308:Generated_Source\PSoC4/DirectionInt.c **** void DirectionInt_Enable(void)
 309:Generated_Source\PSoC4/DirectionInt.c **** {
 159              		.loc 1 309 0
 160              		.cfi_startproc
 161              		@ args = 0, pretend = 0, frame = 0
 162              		@ frame_needed = 0, uses_anonymous_args = 0
 163              		@ link register save eliminated.
 310:Generated_Source\PSoC4/DirectionInt.c ****     /* Enable the general interrupt. */
 311:Generated_Source\PSoC4/DirectionInt.c ****     *DirectionInt_INTC_SET_EN = DirectionInt__INTC_MASK;
 164              		.loc 1 311 0
 165 0000 0122     		movs	r2, #1
 166 0002 014B     		ldr	r3, .L14
 167 0004 1A60     		str	r2, [r3]
 312:Generated_Source\PSoC4/DirectionInt.c **** }
 168              		.loc 1 312 0
 169              		@ sp needed
 170 0006 7047     		bx	lr
 171              	.L15:
 172              		.align	2
 173              	.L14:
 174 0008 00E100E0 		.word	-536813312
 175              		.cfi_endproc
 176              	.LFE40:
 177              		.size	DirectionInt_Enable, .-DirectionInt_Enable
 178              		.section	.text.DirectionInt_GetState,"ax",%progbits
 179              		.align	2
 180              		.global	DirectionInt_GetState
 181              		.code	16
 182              		.thumb_func
 183              		.type	DirectionInt_GetState, %function
 184              	DirectionInt_GetState:
 185              	.LFB41:
 313:Generated_Source\PSoC4/DirectionInt.c **** 
 314:Generated_Source\PSoC4/DirectionInt.c **** 
 315:Generated_Source\PSoC4/DirectionInt.c **** /*******************************************************************************
 316:Generated_Source\PSoC4/DirectionInt.c **** * Function Name: DirectionInt_GetState
 317:Generated_Source\PSoC4/DirectionInt.c **** ********************************************************************************
 318:Generated_Source\PSoC4/DirectionInt.c **** *
 319:Generated_Source\PSoC4/DirectionInt.c **** * Summary:
 320:Generated_Source\PSoC4/DirectionInt.c **** *   Gets the state (enabled, disabled) of the Interrupt.
 321:Generated_Source\PSoC4/DirectionInt.c **** *
 322:Generated_Source\PSoC4/DirectionInt.c **** * Parameters:
 323:Generated_Source\PSoC4/DirectionInt.c **** *   None
 324:Generated_Source\PSoC4/DirectionInt.c **** *
 325:Generated_Source\PSoC4/DirectionInt.c **** * Return:
 326:Generated_Source\PSoC4/DirectionInt.c **** *   1 if enabled, 0 if disabled.
 327:Generated_Source\PSoC4/DirectionInt.c **** *
ARM GAS  C:\Users\quint\AppData\Local\Temp\ccBe9eLh.s 			page 10


 328:Generated_Source\PSoC4/DirectionInt.c **** *******************************************************************************/
 329:Generated_Source\PSoC4/DirectionInt.c **** uint8 DirectionInt_GetState(void)
 330:Generated_Source\PSoC4/DirectionInt.c **** {
 186              		.loc 1 330 0
 187              		.cfi_startproc
 188              		@ args = 0, pretend = 0, frame = 0
 189              		@ frame_needed = 0, uses_anonymous_args = 0
 190              		@ link register save eliminated.
 331:Generated_Source\PSoC4/DirectionInt.c ****     /* Get the state of the general interrupt. */
 332:Generated_Source\PSoC4/DirectionInt.c ****     return ((*DirectionInt_INTC_SET_EN & (uint32)DirectionInt__INTC_MASK) != 0u) ? 1u:0u;
 191              		.loc 1 332 0
 192 0000 024B     		ldr	r3, .L17
 193 0002 1B68     		ldr	r3, [r3]
 194 0004 0120     		movs	r0, #1
 195 0006 1840     		ands	r0, r3
 333:Generated_Source\PSoC4/DirectionInt.c **** }
 196              		.loc 1 333 0
 197              		@ sp needed
 198 0008 7047     		bx	lr
 199              	.L18:
 200 000a C046     		.align	2
 201              	.L17:
 202 000c 00E100E0 		.word	-536813312
 203              		.cfi_endproc
 204              	.LFE41:
 205              		.size	DirectionInt_GetState, .-DirectionInt_GetState
 206              		.section	.text.DirectionInt_Disable,"ax",%progbits
 207              		.align	2
 208              		.global	DirectionInt_Disable
 209              		.code	16
 210              		.thumb_func
 211              		.type	DirectionInt_Disable, %function
 212              	DirectionInt_Disable:
 213              	.LFB42:
 334:Generated_Source\PSoC4/DirectionInt.c **** 
 335:Generated_Source\PSoC4/DirectionInt.c **** 
 336:Generated_Source\PSoC4/DirectionInt.c **** /*******************************************************************************
 337:Generated_Source\PSoC4/DirectionInt.c **** * Function Name: DirectionInt_Disable
 338:Generated_Source\PSoC4/DirectionInt.c **** ********************************************************************************
 339:Generated_Source\PSoC4/DirectionInt.c **** *
 340:Generated_Source\PSoC4/DirectionInt.c **** * Summary:
 341:Generated_Source\PSoC4/DirectionInt.c **** *   Disables the Interrupt in the interrupt controller.
 342:Generated_Source\PSoC4/DirectionInt.c **** *
 343:Generated_Source\PSoC4/DirectionInt.c **** * Parameters:
 344:Generated_Source\PSoC4/DirectionInt.c **** *   None
 345:Generated_Source\PSoC4/DirectionInt.c **** *
 346:Generated_Source\PSoC4/DirectionInt.c **** * Return:
 347:Generated_Source\PSoC4/DirectionInt.c **** *   None
 348:Generated_Source\PSoC4/DirectionInt.c **** *
 349:Generated_Source\PSoC4/DirectionInt.c **** *******************************************************************************/
 350:Generated_Source\PSoC4/DirectionInt.c **** void DirectionInt_Disable(void)
 351:Generated_Source\PSoC4/DirectionInt.c **** {
 214              		.loc 1 351 0
 215              		.cfi_startproc
 216              		@ args = 0, pretend = 0, frame = 0
 217              		@ frame_needed = 0, uses_anonymous_args = 0
 218              		@ link register save eliminated.
ARM GAS  C:\Users\quint\AppData\Local\Temp\ccBe9eLh.s 			page 11


 352:Generated_Source\PSoC4/DirectionInt.c ****     /* Disable the general interrupt. */
 353:Generated_Source\PSoC4/DirectionInt.c ****     *DirectionInt_INTC_CLR_EN = DirectionInt__INTC_MASK;
 219              		.loc 1 353 0
 220 0000 0122     		movs	r2, #1
 221 0002 014B     		ldr	r3, .L20
 222 0004 1A60     		str	r2, [r3]
 354:Generated_Source\PSoC4/DirectionInt.c **** }
 223              		.loc 1 354 0
 224              		@ sp needed
 225 0006 7047     		bx	lr
 226              	.L21:
 227              		.align	2
 228              	.L20:
 229 0008 80E100E0 		.word	-536813184
 230              		.cfi_endproc
 231              	.LFE42:
 232              		.size	DirectionInt_Disable, .-DirectionInt_Disable
 233              		.section	.text.DirectionInt_Start,"ax",%progbits
 234              		.align	2
 235              		.global	DirectionInt_Start
 236              		.code	16
 237              		.thumb_func
 238              		.type	DirectionInt_Start, %function
 239              	DirectionInt_Start:
 240              	.LFB32:
  58:Generated_Source\PSoC4/DirectionInt.c ****     /* For all we know the interrupt is active. */
 241              		.loc 1 58 0
 242              		.cfi_startproc
 243              		@ args = 0, pretend = 0, frame = 0
 244              		@ frame_needed = 0, uses_anonymous_args = 0
 245 0000 10B5     		push	{r4, lr}
 246              		.cfi_def_cfa_offset 8
 247              		.cfi_offset 4, -8
 248              		.cfi_offset 14, -4
  60:Generated_Source\PSoC4/DirectionInt.c **** 
 249              		.loc 1 60 0
 250 0002 FFF7FEFF 		bl	DirectionInt_Disable
 251              	.LVL8:
  63:Generated_Source\PSoC4/DirectionInt.c **** 
 252              		.loc 1 63 0
 253 0006 0448     		ldr	r0, .L23
 254 0008 FFF7FEFF 		bl	DirectionInt_SetVector
 255              	.LVL9:
  66:Generated_Source\PSoC4/DirectionInt.c **** 
 256              		.loc 1 66 0
 257 000c 0320     		movs	r0, #3
 258 000e FFF7FEFF 		bl	DirectionInt_SetPriority
 259              	.LVL10:
  69:Generated_Source\PSoC4/DirectionInt.c **** }
 260              		.loc 1 69 0
 261 0012 FFF7FEFF 		bl	DirectionInt_Enable
 262              	.LVL11:
  70:Generated_Source\PSoC4/DirectionInt.c **** 
 263              		.loc 1 70 0
 264              		@ sp needed
 265 0016 10BD     		pop	{r4, pc}
 266              	.L24:
ARM GAS  C:\Users\quint\AppData\Local\Temp\ccBe9eLh.s 			page 12


 267              		.align	2
 268              	.L23:
 269 0018 00000000 		.word	DirectionInt_Interrupt
 270              		.cfi_endproc
 271              	.LFE32:
 272              		.size	DirectionInt_Start, .-DirectionInt_Start
 273              		.section	.text.DirectionInt_StartEx,"ax",%progbits
 274              		.align	2
 275              		.global	DirectionInt_StartEx
 276              		.code	16
 277              		.thumb_func
 278              		.type	DirectionInt_StartEx, %function
 279              	DirectionInt_StartEx:
 280              	.LFB33:
 101:Generated_Source\PSoC4/DirectionInt.c ****     /* For all we know the interrupt is active. */
 281              		.loc 1 101 0
 282              		.cfi_startproc
 283              		@ args = 0, pretend = 0, frame = 0
 284              		@ frame_needed = 0, uses_anonymous_args = 0
 285              	.LVL12:
 286 0000 10B5     		push	{r4, lr}
 287              		.cfi_def_cfa_offset 8
 288              		.cfi_offset 4, -8
 289              		.cfi_offset 14, -4
 290 0002 0400     		movs	r4, r0
 103:Generated_Source\PSoC4/DirectionInt.c **** 
 291              		.loc 1 103 0
 292 0004 FFF7FEFF 		bl	DirectionInt_Disable
 293              	.LVL13:
 106:Generated_Source\PSoC4/DirectionInt.c **** 
 294              		.loc 1 106 0
 295 0008 2000     		movs	r0, r4
 296 000a FFF7FEFF 		bl	DirectionInt_SetVector
 297              	.LVL14:
 109:Generated_Source\PSoC4/DirectionInt.c **** 
 298              		.loc 1 109 0
 299 000e 0320     		movs	r0, #3
 300 0010 FFF7FEFF 		bl	DirectionInt_SetPriority
 301              	.LVL15:
 112:Generated_Source\PSoC4/DirectionInt.c **** }
 302              		.loc 1 112 0
 303 0014 FFF7FEFF 		bl	DirectionInt_Enable
 304              	.LVL16:
 113:Generated_Source\PSoC4/DirectionInt.c **** 
 305              		.loc 1 113 0
 306              		@ sp needed
 307              	.LVL17:
 308 0018 10BD     		pop	{r4, pc}
 309              		.cfi_endproc
 310              	.LFE33:
 311              		.size	DirectionInt_StartEx, .-DirectionInt_StartEx
 312 001a C046     		.section	.text.DirectionInt_Stop,"ax",%progbits
 313              		.align	2
 314              		.global	DirectionInt_Stop
 315              		.code	16
 316              		.thumb_func
 317              		.type	DirectionInt_Stop, %function
ARM GAS  C:\Users\quint\AppData\Local\Temp\ccBe9eLh.s 			page 13


 318              	DirectionInt_Stop:
 319              	.LFB34:
 131:Generated_Source\PSoC4/DirectionInt.c ****     /* Disable this interrupt. */
 320              		.loc 1 131 0
 321              		.cfi_startproc
 322              		@ args = 0, pretend = 0, frame = 0
 323              		@ frame_needed = 0, uses_anonymous_args = 0
 324 0000 10B5     		push	{r4, lr}
 325              		.cfi_def_cfa_offset 8
 326              		.cfi_offset 4, -8
 327              		.cfi_offset 14, -4
 133:Generated_Source\PSoC4/DirectionInt.c **** 
 328              		.loc 1 133 0
 329 0002 FFF7FEFF 		bl	DirectionInt_Disable
 330              	.LVL18:
 136:Generated_Source\PSoC4/DirectionInt.c **** }
 331              		.loc 1 136 0
 332 0006 0248     		ldr	r0, .L27
 333 0008 FFF7FEFF 		bl	DirectionInt_SetVector
 334              	.LVL19:
 137:Generated_Source\PSoC4/DirectionInt.c **** 
 335              		.loc 1 137 0
 336              		@ sp needed
 337 000c 10BD     		pop	{r4, pc}
 338              	.L28:
 339 000e C046     		.align	2
 340              	.L27:
 341 0010 00000000 		.word	IntDefaultHandler
 342              		.cfi_endproc
 343              	.LFE34:
 344              		.size	DirectionInt_Stop, .-DirectionInt_Stop
 345              		.section	.text.DirectionInt_SetPending,"ax",%progbits
 346              		.align	2
 347              		.global	DirectionInt_SetPending
 348              		.code	16
 349              		.thumb_func
 350              		.type	DirectionInt_SetPending, %function
 351              	DirectionInt_SetPending:
 352              	.LFB43:
 355:Generated_Source\PSoC4/DirectionInt.c **** 
 356:Generated_Source\PSoC4/DirectionInt.c **** 
 357:Generated_Source\PSoC4/DirectionInt.c **** /*******************************************************************************
 358:Generated_Source\PSoC4/DirectionInt.c **** * Function Name: DirectionInt_SetPending
 359:Generated_Source\PSoC4/DirectionInt.c **** ********************************************************************************
 360:Generated_Source\PSoC4/DirectionInt.c **** *
 361:Generated_Source\PSoC4/DirectionInt.c **** * Summary:
 362:Generated_Source\PSoC4/DirectionInt.c **** *   Causes the Interrupt to enter the pending state, a software method of
 363:Generated_Source\PSoC4/DirectionInt.c **** *   generating the interrupt.
 364:Generated_Source\PSoC4/DirectionInt.c **** *
 365:Generated_Source\PSoC4/DirectionInt.c **** * Parameters:
 366:Generated_Source\PSoC4/DirectionInt.c **** *   None
 367:Generated_Source\PSoC4/DirectionInt.c **** *
 368:Generated_Source\PSoC4/DirectionInt.c **** * Return:
 369:Generated_Source\PSoC4/DirectionInt.c **** *   None
 370:Generated_Source\PSoC4/DirectionInt.c **** *
 371:Generated_Source\PSoC4/DirectionInt.c **** * Side Effects:
 372:Generated_Source\PSoC4/DirectionInt.c **** *   If interrupts are enabled and the interrupt is set up properly, the ISR is
ARM GAS  C:\Users\quint\AppData\Local\Temp\ccBe9eLh.s 			page 14


 373:Generated_Source\PSoC4/DirectionInt.c **** *   entered (depending on the priority of this interrupt and other pending 
 374:Generated_Source\PSoC4/DirectionInt.c **** *   interrupts).
 375:Generated_Source\PSoC4/DirectionInt.c **** *
 376:Generated_Source\PSoC4/DirectionInt.c **** *******************************************************************************/
 377:Generated_Source\PSoC4/DirectionInt.c **** void DirectionInt_SetPending(void)
 378:Generated_Source\PSoC4/DirectionInt.c **** {
 353              		.loc 1 378 0
 354              		.cfi_startproc
 355              		@ args = 0, pretend = 0, frame = 0
 356              		@ frame_needed = 0, uses_anonymous_args = 0
 357              		@ link register save eliminated.
 379:Generated_Source\PSoC4/DirectionInt.c ****     *DirectionInt_INTC_SET_PD = DirectionInt__INTC_MASK;
 358              		.loc 1 379 0
 359 0000 0122     		movs	r2, #1
 360 0002 014B     		ldr	r3, .L30
 361 0004 1A60     		str	r2, [r3]
 380:Generated_Source\PSoC4/DirectionInt.c **** }
 362              		.loc 1 380 0
 363              		@ sp needed
 364 0006 7047     		bx	lr
 365              	.L31:
 366              		.align	2
 367              	.L30:
 368 0008 00E200E0 		.word	-536813056
 369              		.cfi_endproc
 370              	.LFE43:
 371              		.size	DirectionInt_SetPending, .-DirectionInt_SetPending
 372              		.section	.text.DirectionInt_ClearPending,"ax",%progbits
 373              		.align	2
 374              		.global	DirectionInt_ClearPending
 375              		.code	16
 376              		.thumb_func
 377              		.type	DirectionInt_ClearPending, %function
 378              	DirectionInt_ClearPending:
 379              	.LFB44:
 381:Generated_Source\PSoC4/DirectionInt.c **** 
 382:Generated_Source\PSoC4/DirectionInt.c **** 
 383:Generated_Source\PSoC4/DirectionInt.c **** /*******************************************************************************
 384:Generated_Source\PSoC4/DirectionInt.c **** * Function Name: DirectionInt_ClearPending
 385:Generated_Source\PSoC4/DirectionInt.c **** ********************************************************************************
 386:Generated_Source\PSoC4/DirectionInt.c **** *
 387:Generated_Source\PSoC4/DirectionInt.c **** * Summary:
 388:Generated_Source\PSoC4/DirectionInt.c **** *   Clears a pending interrupt in the interrupt controller.
 389:Generated_Source\PSoC4/DirectionInt.c **** *
 390:Generated_Source\PSoC4/DirectionInt.c **** *   Note Some interrupt sources are clear-on-read and require the block 
 391:Generated_Source\PSoC4/DirectionInt.c **** *   interrupt/status register to be read/cleared with the appropriate block API 
 392:Generated_Source\PSoC4/DirectionInt.c **** *   (GPIO, UART, and so on). Otherwise the ISR will continue to remain in 
 393:Generated_Source\PSoC4/DirectionInt.c **** *   pending state even though the interrupt itself is cleared using this API.
 394:Generated_Source\PSoC4/DirectionInt.c **** *
 395:Generated_Source\PSoC4/DirectionInt.c **** * Parameters:
 396:Generated_Source\PSoC4/DirectionInt.c **** *   None
 397:Generated_Source\PSoC4/DirectionInt.c **** *
 398:Generated_Source\PSoC4/DirectionInt.c **** * Return:
 399:Generated_Source\PSoC4/DirectionInt.c **** *   None
 400:Generated_Source\PSoC4/DirectionInt.c **** *
 401:Generated_Source\PSoC4/DirectionInt.c **** *******************************************************************************/
 402:Generated_Source\PSoC4/DirectionInt.c **** void DirectionInt_ClearPending(void)
ARM GAS  C:\Users\quint\AppData\Local\Temp\ccBe9eLh.s 			page 15


 403:Generated_Source\PSoC4/DirectionInt.c **** {
 380              		.loc 1 403 0
 381              		.cfi_startproc
 382              		@ args = 0, pretend = 0, frame = 0
 383              		@ frame_needed = 0, uses_anonymous_args = 0
 384              		@ link register save eliminated.
 404:Generated_Source\PSoC4/DirectionInt.c ****     *DirectionInt_INTC_CLR_PD = DirectionInt__INTC_MASK;
 385              		.loc 1 404 0
 386 0000 0122     		movs	r2, #1
 387 0002 014B     		ldr	r3, .L33
 388 0004 1A60     		str	r2, [r3]
 405:Generated_Source\PSoC4/DirectionInt.c **** }
 389              		.loc 1 405 0
 390              		@ sp needed
 391 0006 7047     		bx	lr
 392              	.L34:
 393              		.align	2
 394              	.L33:
 395 0008 80E200E0 		.word	-536812928
 396              		.cfi_endproc
 397              	.LFE44:
 398              		.size	DirectionInt_ClearPending, .-DirectionInt_ClearPending
 399              		.section	.text.DirectionInt_Interrupt,"ax",%progbits
 400              		.align	2
 401              		.global	DirectionInt_Interrupt
 402              		.code	16
 403              		.thumb_func
 404              		.type	DirectionInt_Interrupt, %function
 405              	DirectionInt_Interrupt:
 406              	.LFB35:
 161:Generated_Source\PSoC4/DirectionInt.c ****     #ifdef DirectionInt_INTERRUPT_INTERRUPT_CALLBACK
 407              		.loc 1 161 0
 408              		.cfi_startproc
 409              		@ args = 0, pretend = 0, frame = 0
 410              		@ frame_needed = 0, uses_anonymous_args = 0
 411 0000 10B5     		push	{r4, lr}
 412              		.cfi_def_cfa_offset 8
 413              		.cfi_offset 4, -8
 414              		.cfi_offset 14, -4
 169:Generated_Source\PSoC4/DirectionInt.c ****     CyDelay(10); 
 415              		.loc 1 169 0
 416 0002 FFF7FEFF 		bl	dcMotorControll
 417              	.LVL20:
 170:Generated_Source\PSoC4/DirectionInt.c ****     DirectionInt_ClearPending(); 
 418              		.loc 1 170 0
 419 0006 0A20     		movs	r0, #10
 420 0008 FFF7FEFF 		bl	CyDelay
 421              	.LVL21:
 171:Generated_Source\PSoC4/DirectionInt.c ****     /* `#END` */
 422              		.loc 1 171 0
 423 000c FFF7FEFF 		bl	DirectionInt_ClearPending
 424              	.LVL22:
 173:Generated_Source\PSoC4/DirectionInt.c **** 
 425              		.loc 1 173 0
 426              		@ sp needed
 427 0010 10BD     		pop	{r4, pc}
 428              		.cfi_endproc
ARM GAS  C:\Users\quint\AppData\Local\Temp\ccBe9eLh.s 			page 16


 429              	.LFE35:
 430              		.size	DirectionInt_Interrupt, .-DirectionInt_Interrupt
 431 0012 C046     		.text
 432              	.Letext0:
 433              		.file 2 "Generated_Source\\PSoC4/cytypes.h"
 434              		.file 3 "Generated_Source\\PSoC4/CyLib.h"