ARM GAS  C:\Users\quint\AppData\Local\Temp\ccfCH3Zg.s 			page 1


   1              		.syntax unified
   2              		.cpu cortex-m0
   3              		.fpu softvfp
   4              		.eabi_attribute 20, 1
   5              		.eabi_attribute 21, 1
   6              		.eabi_attribute 23, 3
   7              		.eabi_attribute 24, 1
   8              		.eabi_attribute 25, 1
   9              		.eabi_attribute 26, 1
  10              		.eabi_attribute 30, 1
  11              		.eabi_attribute 34, 0
  12              		.eabi_attribute 18, 4
  13              		.thumb
  14              		.syntax unified
  15              		.file	"main.c"
  16              		.text
  17              	.Ltext0:
  18              		.cfi_sections	.debug_frame
  19              		.section	.text.dcMotorControll,"ax",%progbits
  20              		.align	2
  21              		.global	dcMotorControll
  22              		.code	16
  23              		.thumb_func
  24              		.type	dcMotorControll, %function
  25              	dcMotorControll:
  26              	.LFB33:
  27              		.file 1 "main.c"
   1:main.c        **** /* ========================================
   2:main.c        ****  Quinton Cline
   3:main.c        **** Motor Controll
   4:main.c        ****  * ========================================
   5:main.c        **** */
   6:main.c        **** #include "project.h"
   7:main.c        **** #include <stdio.h>
   8:main.c        **** 
   9:main.c        **** 
  10:main.c        **** 
  11:main.c        **** ///////////////////////
  12:main.c        **** //// DC Motor  ///////
  13:main.c        **** //////////////////////
  14:main.c        **** //DC Motor Constants
  15:main.c        **** #define motorReverse 0b00000100
  16:main.c        **** #define motorForward 0b00001000
  17:main.c        **** 
  18:main.c        **** 
  19:main.c        **** //DC motor Variables  
  20:main.c        **** int ADC=0;
  21:main.c        **** int BDC=1; 
  22:main.c        **** int direction=0; //Stors the current diretion
  23:main.c        **** int reverseDirection=0; //
  24:main.c        **** 
  25:main.c        **** void dcMotorControll()
  26:main.c        **** {
  28              		.loc 1 26 0
  29              		.cfi_startproc
  30              		@ args = 0, pretend = 0, frame = 0
  31              		@ frame_needed = 0, uses_anonymous_args = 0
ARM GAS  C:\Users\quint\AppData\Local\Temp\ccfCH3Zg.s 			page 2


  32 0000 10B5     		push	{r4, lr}
  33              		.cfi_def_cfa_offset 8
  34              		.cfi_offset 4, -8
  35              		.cfi_offset 14, -4
  27:main.c        ****   //Changes the direction forward ->reverse
  28:main.c        ****     if (reverseDirection == 0){
  36              		.loc 1 28 0
  37 0002 114B     		ldr	r3, .L5
  38 0004 1B68     		ldr	r3, [r3]
  39 0006 002B     		cmp	r3, #0
  40 0008 08D1     		bne	.L2
  29:main.c        ****         direction = motorReverse;
  41              		.loc 1 29 0
  42 000a 0F4C     		ldr	r4, .L5
  43 000c 0433     		adds	r3, r3, #4
  44 000e 6360     		str	r3, [r4, #4]
  30:main.c        ****         //Writes the bytes to the 
  31:main.c        ****         SPIM_WriteTxData(motorReverse);
  45              		.loc 1 31 0
  46 0010 0420     		movs	r0, #4
  47 0012 FFF7FEFF 		bl	SPIM_WriteTxData
  48              	.LVL0:
  32:main.c        ****         //Change 
  33:main.c        ****         reverseDirection = 1;
  49              		.loc 1 33 0
  50 0016 0123     		movs	r3, #1
  51 0018 2360     		str	r3, [r4]
  52 001a 07E0     		b	.L4
  53              	.L2:
  34:main.c        ****     }
  35:main.c        ****     //Changes reverse->forward
  36:main.c        ****     else{
  37:main.c        ****         direction = motorForward;
  54              		.loc 1 37 0
  55 001c 0A4C     		ldr	r4, .L5
  56 001e 0823     		movs	r3, #8
  57 0020 6360     		str	r3, [r4, #4]
  38:main.c        ****         SPIM_WriteTxData(motorForward);
  58              		.loc 1 38 0
  59 0022 0820     		movs	r0, #8
  60 0024 FFF7FEFF 		bl	SPIM_WriteTxData
  61              	.LVL1:
  39:main.c        ****         reverseDirection = 0;
  62              		.loc 1 39 0
  63 0028 0023     		movs	r3, #0
  64 002a 2360     		str	r3, [r4]
  65              	.L4:
  40:main.c        ****     } 
  41:main.c        ****     //Loop tell transmit is done
  42:main.c        ****     while(!(SPIM_ReadTxStatus() & SPIM_STS_BYTE_COMPLETE)){}
  66              		.loc 1 42 0 discriminator 1
  67 002c FFF7FEFF 		bl	SPIM_ReadTxStatus
  68              	.LVL2:
  69 0030 0307     		lsls	r3, r0, #28
  70 0032 FBD5     		bpl	.L4
  43:main.c        ****     
  44:main.c        ****     Latch_Write(0); //rising edge to the transfer latch
ARM GAS  C:\Users\quint\AppData\Local\Temp\ccfCH3Zg.s 			page 3


  71              		.loc 1 44 0
  72 0034 0020     		movs	r0, #0
  73 0036 FFF7FEFF 		bl	Latch_Write
  74              	.LVL3:
  45:main.c        ****     Latch_Write(1);
  75              		.loc 1 45 0
  76 003a 0120     		movs	r0, #1
  77 003c FFF7FEFF 		bl	Latch_Write
  78              	.LVL4:
  46:main.c        ****     Enable_Write(0); //write low to enable
  79              		.loc 1 46 0
  80 0040 0020     		movs	r0, #0
  81 0042 FFF7FEFF 		bl	Enable_Write
  82              	.LVL5:
  47:main.c        **** 
  48:main.c        **** }
  83              		.loc 1 48 0
  84              		@ sp needed
  85 0046 10BD     		pop	{r4, pc}
  86              	.L6:
  87              		.align	2
  88              	.L5:
  89 0048 00000000 		.word	.LANCHOR0
  90              		.cfi_endproc
  91              	.LFE33:
  92              		.size	dcMotorControll, .-dcMotorControll
  93              		.section	.text.stepperMotorControl,"ax",%progbits
  94              		.align	2
  95              		.global	stepperMotorControl
  96              		.code	16
  97              		.thumb_func
  98              		.type	stepperMotorControl, %function
  99              	stepperMotorControl:
 100              	.LFB34:
  49:main.c        **** 
  50:main.c        **** //////////////////////
  51:main.c        **** //// STEPPER     ////
  52:main.c        **** ////////////////////
  53:main.c        **** //Stepper Motor Constants
  54:main.c        **** //Blue(M3B), Pink(M4A), Yellow(M3A), Orange(M4B), repeat
  55:main.c        **** 
  56:main.c        **** #define Blue    0b10000000
  57:main.c        **** #define Pink    0b00000001
  58:main.c        **** #define Yellow  0b00100000
  59:main.c        **** #define Orange  0b01000000
  60:main.c        **** const int steps[4] = {Blue,Pink,Yellow,Orange};
  61:main.c        **** int step=0; 
  62:main.c        **** 
  63:main.c        **** void stepperMotorControl(){
 101              		.loc 1 63 0
 102              		.cfi_startproc
 103              		@ args = 0, pretend = 0, frame = 0
 104              		@ frame_needed = 0, uses_anonymous_args = 0
 105 0000 10B5     		push	{r4, lr}
 106              		.cfi_def_cfa_offset 8
 107              		.cfi_offset 4, -8
 108              		.cfi_offset 14, -4
ARM GAS  C:\Users\quint\AppData\Local\Temp\ccfCH3Zg.s 			page 4


  64:main.c        ****     
  65:main.c        ****     Enable_Write(1); //Set enable to high
 109              		.loc 1 65 0
 110 0002 0120     		movs	r0, #1
 111 0004 FFF7FEFF 		bl	Enable_Write
 112              	.LVL6:
  66:main.c        ****     
  67:main.c        ****     //Send step to SPI to be written to the motor
  68:main.c        ****     SPIM_WriteTxData(steps[step] | direction);
 113              		.loc 1 68 0
 114 0008 0B4A     		ldr	r2, .L9
 115 000a 9368     		ldr	r3, [r2, #8]
 116 000c 9B00     		lsls	r3, r3, #2
 117 000e 0B49     		ldr	r1, .L9+4
 118 0010 5B58     		ldr	r3, [r3, r1]
 119 0012 5068     		ldr	r0, [r2, #4]
 120 0014 1843     		orrs	r0, r3
 121 0016 C0B2     		uxtb	r0, r0
 122 0018 FFF7FEFF 		bl	SPIM_WriteTxData
 123              	.LVL7:
 124              	.L8:
  69:main.c        ****     
  70:main.c        ****     //Remain in while loop until the data is done being transmitted
  71:main.c        ****     while(!(SPIM_ReadTxStatus() & SPIM_STS_BYTE_COMPLETE)){}
 125              		.loc 1 71 0 discriminator 1
 126 001c FFF7FEFF 		bl	SPIM_ReadTxStatus
 127              	.LVL8:
 128 0020 0307     		lsls	r3, r0, #28
 129 0022 FBD5     		bpl	.L8
  72:main.c        ****     
  73:main.c        ****     Latch_Write(0); //rising edge to the transfer latch
 130              		.loc 1 73 0
 131 0024 0020     		movs	r0, #0
 132 0026 FFF7FEFF 		bl	Latch_Write
 133              	.LVL9:
  74:main.c        ****     Latch_Write(1);
 134              		.loc 1 74 0
 135 002a 0120     		movs	r0, #1
 136 002c FFF7FEFF 		bl	Latch_Write
 137              	.LVL10:
  75:main.c        ****     Enable_Write(0); //write low to enable
 138              		.loc 1 75 0
 139 0030 0020     		movs	r0, #0
 140 0032 FFF7FEFF 		bl	Enable_Write
 141              	.LVL11:
  76:main.c        ****    
  77:main.c        **** }
 142              		.loc 1 77 0
 143              		@ sp needed
 144 0036 10BD     		pop	{r4, pc}
 145              	.L10:
 146              		.align	2
 147              	.L9:
 148 0038 00000000 		.word	.LANCHOR0
 149 003c 00000000 		.word	.LANCHOR1
 150              		.cfi_endproc
 151              	.LFE34:
ARM GAS  C:\Users\quint\AppData\Local\Temp\ccfCH3Zg.s 			page 5


 152              		.size	stepperMotorControl, .-stepperMotorControl
 153              		.global	__aeabi_idiv
 154              		.section	.text.main,"ax",%progbits
 155              		.align	2
 156              		.global	main
 157              		.code	16
 158              		.thumb_func
 159              		.type	main, %function
 160              	main:
 161              	.LFB35:
  78:main.c        **** 
  79:main.c        **** 
  80:main.c        ****     
  81:main.c        **** int main(void)
  82:main.c        **** {
 162              		.loc 1 82 0
 163              		.cfi_startproc
 164              		@ args = 0, pretend = 0, frame = 0
 165              		@ frame_needed = 0, uses_anonymous_args = 0
 166 0000 10B5     		push	{r4, lr}
 167              		.cfi_def_cfa_offset 8
 168              		.cfi_offset 4, -8
 169              		.cfi_offset 14, -4
 170              	.LVL12:
  83:main.c        ****     int joyX=0; 
  84:main.c        ****     int freqRaw=50; 
  85:main.c        ****     int freqPeriod=50;
  86:main.c        ****     const int freqMin=50;
  87:main.c        ****     const int freqMax=300; 
  88:main.c        ****     char mystring[4];
  89:main.c        ****     int capPos=0; 
  90:main.c        ****   
  91:main.c        **** CyGlobalIntEnable; /* Enable global interrupts. */
 171              		.loc 1 91 0
 172              		.syntax divided
 173              	@ 91 "main.c" 1
 174 0002 62B6     		CPSIE   i
 175              	@ 0 "" 2
  92:main.c        ****     
  93:main.c        ****     CapSense_Start(); 
 176              		.loc 1 93 0
 177              		.thumb
 178              		.syntax unified
 179 0004 FFF7FEFF 		bl	CapSense_Start
 180              	.LVL13:
  94:main.c        ****    
  95:main.c        ****     //CS_InitializeAllBaselines();
  96:main.c        ****      LED_PWM_Start();
 181              		.loc 1 96 0
 182 0008 FFF7FEFF 		bl	LED_PWM_Start
 183              	.LVL14:
  97:main.c        ****     DC_PWM_Start(); 
 184              		.loc 1 97 0
 185 000c FFF7FEFF 		bl	DC_PWM_Start
 186              	.LVL15:
  98:main.c        ****     SERVO_PWM_Start();
 187              		.loc 1 98 0
ARM GAS  C:\Users\quint\AppData\Local\Temp\ccfCH3Zg.s 			page 6


 188 0010 FFF7FEFF 		bl	SERVO_PWM_Start
 189              	.LVL16:
  99:main.c        ****   
 100:main.c        ****     SPIM_Start(); 
 190              		.loc 1 100 0
 191 0014 FFF7FEFF 		bl	SPIM_Start
 192              	.LVL17:
 101:main.c        ****     DirectionInt_Start();
 193              		.loc 1 101 0
 194 0018 FFF7FEFF 		bl	DirectionInt_Start
 195              	.LVL18:
 102:main.c        ****     Stepper_Timer_Start(); 
 196              		.loc 1 102 0
 197 001c FFF7FEFF 		bl	Stepper_Timer_Start
 198              	.LVL19:
 103:main.c        ****     StepperInterrupt_Start();
 199              		.loc 1 103 0
 200 0020 FFF7FEFF 		bl	StepperInterrupt_Start
 201              	.LVL20:
 104:main.c        ****     StepperInterrupt_ClearPending(); 
 202              		.loc 1 104 0
 203 0024 FFF7FEFF 		bl	StepperInterrupt_ClearPending
 204              	.LVL21:
 105:main.c        ****     CapSense_InitializeAllBaselines();
 205              		.loc 1 105 0
 206 0028 FFF7FEFF 		bl	CapSense_InitializeAllBaselines
 207              	.LVL22:
 106:main.c        **** 
 107:main.c        ****     SERVO_PWM_WriteCompare(700); // Start the servo on the left
 208              		.loc 1 107 0
 209 002c AF20     		movs	r0, #175
 210 002e 8000     		lsls	r0, r0, #2
 211 0030 FFF7FEFF 		bl	SERVO_PWM_WriteCompare
 212              	.LVL23:
 213              	.L12:
 108:main.c        ****         while(1)
 109:main.c        ****         {
 110:main.c        ****              if(CapSense_NOT_BUSY==CapSense_IsBusy())
 214              		.loc 1 110 0
 215 0034 FFF7FEFF 		bl	CapSense_IsBusy
 216              	.LVL24:
 217 0038 0028     		cmp	r0, #0
 218 003a FBD1     		bne	.L12
 111:main.c        ****             {
 112:main.c        ****                 CapSense_ScanAllWidgets();
 219              		.loc 1 112 0
 220 003c FFF7FEFF 		bl	CapSense_ScanAllWidgets
 221              	.LVL25:
 113:main.c        ****                  /* Process data */
 114:main.c        ****                 CapSense_ProcessAllWidgets();
 222              		.loc 1 114 0
 223 0040 FFF7FEFF 		bl	CapSense_ProcessAllWidgets
 224              	.LVL26:
 115:main.c        ****                  /* Checks if the linear slidere was touched and that the slider should be changed 
 116:main.c        ****                 if(CapSense_GetCentroidPos(CapSense_LINEARSLIDER0_WDGT_ID) != CapSense_SLIDER_NO_TO
 225              		.loc 1 116 0
 226 0044 0020     		movs	r0, #0
ARM GAS  C:\Users\quint\AppData\Local\Temp\ccfCH3Zg.s 			page 7


 227 0046 FFF7FEFF 		bl	CapSense_GetCentroidPos
 228              	.LVL27:
 229 004a 114B     		ldr	r3, .L15
 230 004c 9842     		cmp	r0, r3
 231 004e 1CD0     		beq	.L13
 232              	.LBB2:
 117:main.c        ****                 {
 118:main.c        ****                     /* Changes the compare value based on the slider position */
 119:main.c        ****                     capPos=CapSense_GetCentroidPos(CapSense_LINEARSLIDER0_WDGT_ID); 
 233              		.loc 1 119 0
 234 0050 0020     		movs	r0, #0
 235 0052 FFF7FEFF 		bl	CapSense_GetCentroidPos
 236              	.LVL28:
 237 0056 0400     		movs	r4, r0
 238              	.LVL29:
 120:main.c        ****                     LED_PWM_WriteCompare(capPos );
 239              		.loc 1 120 0
 240 0058 FFF7FEFF 		bl	LED_PWM_WriteCompare
 241              	.LVL30:
 121:main.c        ****                     DC_PWM_WriteCompare(capPos);
 242              		.loc 1 121 0
 243 005c 2000     		movs	r0, r4
 244 005e FFF7FEFF 		bl	DC_PWM_WriteCompare
 245              	.LVL31:
 122:main.c        ****                    int servoPos = ((1600*(capPos))/(100)) + 700;
 246              		.loc 1 122 0
 247 0062 C820     		movs	r0, #200
 248 0064 C000     		lsls	r0, r0, #3
 249 0066 6043     		muls	r0, r4
 250 0068 6421     		movs	r1, #100
 251 006a FFF7FEFF 		bl	__aeabi_idiv
 252              	.LVL32:
 253 006e AF23     		movs	r3, #175
 254 0070 9B00     		lsls	r3, r3, #2
 255 0072 9C46     		mov	ip, r3
 256 0074 6044     		add	r0, r0, ip
 257              	.LVL33:
 123:main.c        ****                     SERVO_PWM_WriteCompare(servoPos );
 258              		.loc 1 123 0
 259 0076 FFF7FEFF 		bl	SERVO_PWM_WriteCompare
 260              	.LVL34:
 124:main.c        ****                    int stepperScaled=12000-(capPos*100); 
 261              		.loc 1 124 0
 262 007a 6420     		movs	r0, #100
 263 007c 4042     		rsbs	r0, r0, #0
 264 007e 6043     		muls	r0, r4
 265 0080 044B     		ldr	r3, .L15+4
 266 0082 9C46     		mov	ip, r3
 267 0084 6044     		add	r0, r0, ip
 268              	.LVL35:
 125:main.c        ****                     Stepper_Timer_WritePeriod(stepperScaled); 
 269              		.loc 1 125 0
 270 0086 FFF7FEFF 		bl	Stepper_Timer_WritePeriod
 271              	.LVL36:
 272              	.L13:
 273              	.LBE2:
 126:main.c        ****                 }
ARM GAS  C:\Users\quint\AppData\Local\Temp\ccfCH3Zg.s 			page 8


 127:main.c        ****                 else
 128:main.c        ****                 {
 129:main.c        ****                  capPos=0;    
 130:main.c        ****                 }
 131:main.c        ****                 CapSense_ScanAllWidgets();
 274              		.loc 1 131 0
 275 008a FFF7FEFF 		bl	CapSense_ScanAllWidgets
 276              	.LVL37:
 277 008e D1E7     		b	.L12
 278              	.L16:
 279              		.align	2
 280              	.L15:
 281 0090 FFFF0000 		.word	65535
 282 0094 E02E0000 		.word	12000
 283              		.cfi_endproc
 284              	.LFE35:
 285              		.size	main, .-main
 286              		.global	step
 287              		.global	steps
 288              		.global	reverseDirection
 289              		.global	direction
 290              		.global	BDC
 291              		.global	ADC
 292              		.section	.rodata
 293              		.align	2
 294              		.set	.LANCHOR1,. + 0
 295              		.type	steps, %object
 296              		.size	steps, 16
 297              	steps:
 298 0000 80000000 		.word	128
 299 0004 01000000 		.word	1
 300 0008 20000000 		.word	32
 301 000c 40000000 		.word	64
 302              		.data
 303              		.align	2
 304              		.type	BDC, %object
 305              		.size	BDC, 4
 306              	BDC:
 307 0000 01000000 		.word	1
 308              		.bss
 309              		.align	2
 310              		.set	.LANCHOR0,. + 0
 311              		.type	reverseDirection, %object
 312              		.size	reverseDirection, 4
 313              	reverseDirection:
 314 0000 00000000 		.space	4
 315              		.type	direction, %object
 316              		.size	direction, 4
 317              	direction:
 318 0004 00000000 		.space	4
 319              		.type	step, %object
 320              		.size	step, 4
 321              	step:
 322 0008 00000000 		.space	4
 323              		.type	ADC, %object
 324              		.size	ADC, 4
 325              	ADC:
ARM GAS  C:\Users\quint\AppData\Local\Temp\ccfCH3Zg.s 			page 9


 326 000c 00000000 		.space	4
 327              		.text
 328              	.Letext0:
 329              		.file 2 "Generated_Source\\PSoC4/SPIM.h"
 330              		.file 3 "Generated_Source\\PSoC4/Latch.h"
 331              		.file 4 "Generated_Source\\PSoC4/Enable.h"
 332              		.file 5 "Generated_Source\\PSoC4/CapSense_Structure.h"
 333              		.file 6 "Generated_Source\\PSoC4/LED_PWM.h"
 334              		.file 7 "Generated_Source\\PSoC4/DC_PWM.h"
 335              		.file 8 "Generated_Source\\PSoC4/SERVO_PWM.h"
 336              		.file 9 "Generated_Source\\PSoC4/Stepper_Timer.h"
 337              		.file 10 "Generated_Source\\PSoC4/CapSense_Control.h"
 338              		.file 11 "Generated_Source\\PSoC4/DirectionInt.h"
 339              		.file 12 "Generated_Source\\PSoC4/StepperInterrupt.h"
 340              		.file 13 "Generated_Source\\PSoC4/CapSense_Filter.h"
 341              		.file 14 "Generated_Source\\PSoC4/CapSense_Sensing.h"
 342              		.file 15 "Generated_Source\\PSoC4/cytypes.h"