ARM GAS  C:\Users\quint\AppData\Local\Temp\ccSJuUmf.s 			page 1


   1              		.syntax unified
   2              		.cpu cortex-m0
   3              		.fpu softvfp
   4              		.eabi_attribute 20, 1
   5              		.eabi_attribute 21, 1
   6              		.eabi_attribute 23, 3
   7              		.eabi_attribute 24, 1
   8              		.eabi_attribute 25, 1
   9              		.eabi_attribute 26, 1
  10              		.eabi_attribute 30, 1
  11              		.eabi_attribute 34, 0
  12              		.eabi_attribute 18, 4
  13              		.thumb
  14              		.syntax unified
  15              		.file	"StepperInterrupt.c"
  16              		.text
  17              	.Ltext0:
  18              		.cfi_sections	.debug_frame
  19              		.section	.text.StepperInterrupt_Interrupt,"ax",%progbits
  20              		.align	2
  21              		.global	StepperInterrupt_Interrupt
  22              		.code	16
  23              		.thumb_func
  24              		.type	StepperInterrupt_Interrupt, %function
  25              	StepperInterrupt_Interrupt:
  26              	.LFB35:
  27              		.file 1 "Generated_Source\\PSoC4\\StepperInterrupt.c"
   1:Generated_Source\PSoC4/StepperInterrupt.c **** /*******************************************************************************
   2:Generated_Source\PSoC4/StepperInterrupt.c **** * File Name: StepperInterrupt.c  
   3:Generated_Source\PSoC4/StepperInterrupt.c **** * Version 1.70
   4:Generated_Source\PSoC4/StepperInterrupt.c **** *
   5:Generated_Source\PSoC4/StepperInterrupt.c **** *  Description:
   6:Generated_Source\PSoC4/StepperInterrupt.c **** *   API for controlling the state of an interrupt.
   7:Generated_Source\PSoC4/StepperInterrupt.c **** *
   8:Generated_Source\PSoC4/StepperInterrupt.c **** *
   9:Generated_Source\PSoC4/StepperInterrupt.c **** *  Note:
  10:Generated_Source\PSoC4/StepperInterrupt.c **** *
  11:Generated_Source\PSoC4/StepperInterrupt.c **** ********************************************************************************
  12:Generated_Source\PSoC4/StepperInterrupt.c **** * Copyright 2008-2015, Cypress Semiconductor Corporation.  All rights reserved.
  13:Generated_Source\PSoC4/StepperInterrupt.c **** * You may use this file only in accordance with the license, terms, conditions, 
  14:Generated_Source\PSoC4/StepperInterrupt.c **** * disclaimers, and limitations in the end user license agreement accompanying 
  15:Generated_Source\PSoC4/StepperInterrupt.c **** * the software package with which this file was provided.
  16:Generated_Source\PSoC4/StepperInterrupt.c **** *******************************************************************************/
  17:Generated_Source\PSoC4/StepperInterrupt.c **** 
  18:Generated_Source\PSoC4/StepperInterrupt.c **** 
  19:Generated_Source\PSoC4/StepperInterrupt.c **** #include <cydevice_trm.h>
  20:Generated_Source\PSoC4/StepperInterrupt.c **** #include <CyLib.h>
  21:Generated_Source\PSoC4/StepperInterrupt.c **** #include <StepperInterrupt.h>
  22:Generated_Source\PSoC4/StepperInterrupt.c **** #include "cyapicallbacks.h"
  23:Generated_Source\PSoC4/StepperInterrupt.c **** 
  24:Generated_Source\PSoC4/StepperInterrupt.c **** #if !defined(StepperInterrupt__REMOVED) /* Check for removal by optimization */
  25:Generated_Source\PSoC4/StepperInterrupt.c **** 
  26:Generated_Source\PSoC4/StepperInterrupt.c **** /*******************************************************************************
  27:Generated_Source\PSoC4/StepperInterrupt.c **** *  Place your includes, defines and code here 
  28:Generated_Source\PSoC4/StepperInterrupt.c **** ********************************************************************************/
  29:Generated_Source\PSoC4/StepperInterrupt.c **** /* `#START StepperInterrupt_intc` */
  30:Generated_Source\PSoC4/StepperInterrupt.c ****     #include "project.h"
ARM GAS  C:\Users\quint\AppData\Local\Temp\ccSJuUmf.s 			page 2


  31:Generated_Source\PSoC4/StepperInterrupt.c ****     extern void stepperMotorControl(); 
  32:Generated_Source\PSoC4/StepperInterrupt.c ****     extern int step;
  33:Generated_Source\PSoC4/StepperInterrupt.c ****     extern int steps[];
  34:Generated_Source\PSoC4/StepperInterrupt.c ****     
  35:Generated_Source\PSoC4/StepperInterrupt.c **** 
  36:Generated_Source\PSoC4/StepperInterrupt.c **** /* `#END` */
  37:Generated_Source\PSoC4/StepperInterrupt.c **** 
  38:Generated_Source\PSoC4/StepperInterrupt.c **** extern cyisraddress CyRamVectors[CYINT_IRQ_BASE + CY_NUM_INTERRUPTS];
  39:Generated_Source\PSoC4/StepperInterrupt.c **** 
  40:Generated_Source\PSoC4/StepperInterrupt.c **** /* Declared in startup, used to set unused interrupts to. */
  41:Generated_Source\PSoC4/StepperInterrupt.c **** CY_ISR_PROTO(IntDefaultHandler);
  42:Generated_Source\PSoC4/StepperInterrupt.c **** 
  43:Generated_Source\PSoC4/StepperInterrupt.c **** 
  44:Generated_Source\PSoC4/StepperInterrupt.c **** /*******************************************************************************
  45:Generated_Source\PSoC4/StepperInterrupt.c **** * Function Name: StepperInterrupt_Start
  46:Generated_Source\PSoC4/StepperInterrupt.c **** ********************************************************************************
  47:Generated_Source\PSoC4/StepperInterrupt.c **** *
  48:Generated_Source\PSoC4/StepperInterrupt.c **** * Summary:
  49:Generated_Source\PSoC4/StepperInterrupt.c **** *  Set up the interrupt and enable it. This function disables the interrupt, 
  50:Generated_Source\PSoC4/StepperInterrupt.c **** *  sets the default interrupt vector, sets the priority from the value in the
  51:Generated_Source\PSoC4/StepperInterrupt.c **** *  Design Wide Resources Interrupt Editor, then enables the interrupt to the 
  52:Generated_Source\PSoC4/StepperInterrupt.c **** *  interrupt controller.
  53:Generated_Source\PSoC4/StepperInterrupt.c **** *
  54:Generated_Source\PSoC4/StepperInterrupt.c **** * Parameters:  
  55:Generated_Source\PSoC4/StepperInterrupt.c **** *   None
  56:Generated_Source\PSoC4/StepperInterrupt.c **** *
  57:Generated_Source\PSoC4/StepperInterrupt.c **** * Return:
  58:Generated_Source\PSoC4/StepperInterrupt.c **** *   None
  59:Generated_Source\PSoC4/StepperInterrupt.c **** *
  60:Generated_Source\PSoC4/StepperInterrupt.c **** *******************************************************************************/
  61:Generated_Source\PSoC4/StepperInterrupt.c **** void StepperInterrupt_Start(void)
  62:Generated_Source\PSoC4/StepperInterrupt.c **** {
  63:Generated_Source\PSoC4/StepperInterrupt.c ****     /* For all we know the interrupt is active. */
  64:Generated_Source\PSoC4/StepperInterrupt.c ****     StepperInterrupt_Disable();
  65:Generated_Source\PSoC4/StepperInterrupt.c **** 
  66:Generated_Source\PSoC4/StepperInterrupt.c ****     /* Set the ISR to point to the StepperInterrupt Interrupt. */
  67:Generated_Source\PSoC4/StepperInterrupt.c ****     StepperInterrupt_SetVector(&StepperInterrupt_Interrupt);
  68:Generated_Source\PSoC4/StepperInterrupt.c **** 
  69:Generated_Source\PSoC4/StepperInterrupt.c ****     /* Set the priority. */
  70:Generated_Source\PSoC4/StepperInterrupt.c ****     StepperInterrupt_SetPriority((uint8)StepperInterrupt_INTC_PRIOR_NUMBER);
  71:Generated_Source\PSoC4/StepperInterrupt.c **** 
  72:Generated_Source\PSoC4/StepperInterrupt.c ****     /* Enable it. */
  73:Generated_Source\PSoC4/StepperInterrupt.c ****     StepperInterrupt_Enable();
  74:Generated_Source\PSoC4/StepperInterrupt.c **** }
  75:Generated_Source\PSoC4/StepperInterrupt.c **** 
  76:Generated_Source\PSoC4/StepperInterrupt.c **** 
  77:Generated_Source\PSoC4/StepperInterrupt.c **** /*******************************************************************************
  78:Generated_Source\PSoC4/StepperInterrupt.c **** * Function Name: StepperInterrupt_StartEx
  79:Generated_Source\PSoC4/StepperInterrupt.c **** ********************************************************************************
  80:Generated_Source\PSoC4/StepperInterrupt.c **** *
  81:Generated_Source\PSoC4/StepperInterrupt.c **** * Summary:
  82:Generated_Source\PSoC4/StepperInterrupt.c **** *  Sets up the interrupt and enables it. This function disables the interrupt,
  83:Generated_Source\PSoC4/StepperInterrupt.c **** *  sets the interrupt vector based on the address passed in, sets the priority 
  84:Generated_Source\PSoC4/StepperInterrupt.c **** *  from the value in the Design Wide Resources Interrupt Editor, then enables 
  85:Generated_Source\PSoC4/StepperInterrupt.c **** *  the interrupt to the interrupt controller.
  86:Generated_Source\PSoC4/StepperInterrupt.c **** *  
  87:Generated_Source\PSoC4/StepperInterrupt.c **** *  When defining ISR functions, the CY_ISR and CY_ISR_PROTO macros should be 
ARM GAS  C:\Users\quint\AppData\Local\Temp\ccSJuUmf.s 			page 3


  88:Generated_Source\PSoC4/StepperInterrupt.c **** *  used to provide consistent definition across compilers:
  89:Generated_Source\PSoC4/StepperInterrupt.c **** *  
  90:Generated_Source\PSoC4/StepperInterrupt.c **** *  Function definition example:
  91:Generated_Source\PSoC4/StepperInterrupt.c **** *   CY_ISR(MyISR)
  92:Generated_Source\PSoC4/StepperInterrupt.c **** *   {
  93:Generated_Source\PSoC4/StepperInterrupt.c **** *   }
  94:Generated_Source\PSoC4/StepperInterrupt.c **** *   Function prototype example:
  95:Generated_Source\PSoC4/StepperInterrupt.c **** *   CY_ISR_PROTO(MyISR);
  96:Generated_Source\PSoC4/StepperInterrupt.c **** *
  97:Generated_Source\PSoC4/StepperInterrupt.c **** * Parameters:  
  98:Generated_Source\PSoC4/StepperInterrupt.c **** *   address: Address of the ISR to set in the interrupt vector table.
  99:Generated_Source\PSoC4/StepperInterrupt.c **** *
 100:Generated_Source\PSoC4/StepperInterrupt.c **** * Return:
 101:Generated_Source\PSoC4/StepperInterrupt.c **** *   None
 102:Generated_Source\PSoC4/StepperInterrupt.c **** *
 103:Generated_Source\PSoC4/StepperInterrupt.c **** *******************************************************************************/
 104:Generated_Source\PSoC4/StepperInterrupt.c **** void StepperInterrupt_StartEx(cyisraddress address)
 105:Generated_Source\PSoC4/StepperInterrupt.c **** {
 106:Generated_Source\PSoC4/StepperInterrupt.c ****     /* For all we know the interrupt is active. */
 107:Generated_Source\PSoC4/StepperInterrupt.c ****     StepperInterrupt_Disable();
 108:Generated_Source\PSoC4/StepperInterrupt.c **** 
 109:Generated_Source\PSoC4/StepperInterrupt.c ****     /* Set the ISR to point to the StepperInterrupt Interrupt. */
 110:Generated_Source\PSoC4/StepperInterrupt.c ****     StepperInterrupt_SetVector(address);
 111:Generated_Source\PSoC4/StepperInterrupt.c **** 
 112:Generated_Source\PSoC4/StepperInterrupt.c ****     /* Set the priority. */
 113:Generated_Source\PSoC4/StepperInterrupt.c ****     StepperInterrupt_SetPriority((uint8)StepperInterrupt_INTC_PRIOR_NUMBER);
 114:Generated_Source\PSoC4/StepperInterrupt.c **** 
 115:Generated_Source\PSoC4/StepperInterrupt.c ****     /* Enable it. */
 116:Generated_Source\PSoC4/StepperInterrupt.c ****     StepperInterrupt_Enable();
 117:Generated_Source\PSoC4/StepperInterrupt.c **** }
 118:Generated_Source\PSoC4/StepperInterrupt.c **** 
 119:Generated_Source\PSoC4/StepperInterrupt.c **** 
 120:Generated_Source\PSoC4/StepperInterrupt.c **** /*******************************************************************************
 121:Generated_Source\PSoC4/StepperInterrupt.c **** * Function Name: StepperInterrupt_Stop
 122:Generated_Source\PSoC4/StepperInterrupt.c **** ********************************************************************************
 123:Generated_Source\PSoC4/StepperInterrupt.c **** *
 124:Generated_Source\PSoC4/StepperInterrupt.c **** * Summary:
 125:Generated_Source\PSoC4/StepperInterrupt.c **** *   Disables and removes the interrupt.
 126:Generated_Source\PSoC4/StepperInterrupt.c **** *
 127:Generated_Source\PSoC4/StepperInterrupt.c **** * Parameters:  
 128:Generated_Source\PSoC4/StepperInterrupt.c **** *   None
 129:Generated_Source\PSoC4/StepperInterrupt.c **** *
 130:Generated_Source\PSoC4/StepperInterrupt.c **** * Return:
 131:Generated_Source\PSoC4/StepperInterrupt.c **** *   None
 132:Generated_Source\PSoC4/StepperInterrupt.c **** *
 133:Generated_Source\PSoC4/StepperInterrupt.c **** *******************************************************************************/
 134:Generated_Source\PSoC4/StepperInterrupt.c **** void StepperInterrupt_Stop(void)
 135:Generated_Source\PSoC4/StepperInterrupt.c **** {
 136:Generated_Source\PSoC4/StepperInterrupt.c ****     /* Disable this interrupt. */
 137:Generated_Source\PSoC4/StepperInterrupt.c ****     StepperInterrupt_Disable();
 138:Generated_Source\PSoC4/StepperInterrupt.c **** 
 139:Generated_Source\PSoC4/StepperInterrupt.c ****     /* Set the ISR to point to the passive one. */
 140:Generated_Source\PSoC4/StepperInterrupt.c ****     StepperInterrupt_SetVector(&IntDefaultHandler);
 141:Generated_Source\PSoC4/StepperInterrupt.c **** }
 142:Generated_Source\PSoC4/StepperInterrupt.c **** 
 143:Generated_Source\PSoC4/StepperInterrupt.c **** 
 144:Generated_Source\PSoC4/StepperInterrupt.c **** /*******************************************************************************
ARM GAS  C:\Users\quint\AppData\Local\Temp\ccSJuUmf.s 			page 4


 145:Generated_Source\PSoC4/StepperInterrupt.c **** * Function Name: StepperInterrupt_Interrupt
 146:Generated_Source\PSoC4/StepperInterrupt.c **** ********************************************************************************
 147:Generated_Source\PSoC4/StepperInterrupt.c **** *
 148:Generated_Source\PSoC4/StepperInterrupt.c **** * Summary:
 149:Generated_Source\PSoC4/StepperInterrupt.c **** *   The default Interrupt Service Routine for StepperInterrupt.
 150:Generated_Source\PSoC4/StepperInterrupt.c **** *
 151:Generated_Source\PSoC4/StepperInterrupt.c **** *   Add custom code between the START and END comments to keep the next version
 152:Generated_Source\PSoC4/StepperInterrupt.c **** *   of this file from over-writing your code.
 153:Generated_Source\PSoC4/StepperInterrupt.c **** *
 154:Generated_Source\PSoC4/StepperInterrupt.c **** *   Note You may use either the default ISR by using this API, or you may define
 155:Generated_Source\PSoC4/StepperInterrupt.c **** *   your own separate ISR through ISR_StartEx().
 156:Generated_Source\PSoC4/StepperInterrupt.c **** *
 157:Generated_Source\PSoC4/StepperInterrupt.c **** * Parameters:  
 158:Generated_Source\PSoC4/StepperInterrupt.c **** *   None
 159:Generated_Source\PSoC4/StepperInterrupt.c **** *
 160:Generated_Source\PSoC4/StepperInterrupt.c **** * Return:
 161:Generated_Source\PSoC4/StepperInterrupt.c **** *   None
 162:Generated_Source\PSoC4/StepperInterrupt.c **** *
 163:Generated_Source\PSoC4/StepperInterrupt.c **** *******************************************************************************/
 164:Generated_Source\PSoC4/StepperInterrupt.c **** CY_ISR(StepperInterrupt_Interrupt)
 165:Generated_Source\PSoC4/StepperInterrupt.c **** {
  28              		.loc 1 165 0
  29              		.cfi_startproc
  30              		@ args = 0, pretend = 0, frame = 0
  31              		@ frame_needed = 0, uses_anonymous_args = 0
  32 0000 10B5     		push	{r4, lr}
  33              		.cfi_def_cfa_offset 8
  34              		.cfi_offset 4, -8
  35              		.cfi_offset 14, -4
 166:Generated_Source\PSoC4/StepperInterrupt.c ****     #ifdef StepperInterrupt_INTERRUPT_INTERRUPT_CALLBACK
 167:Generated_Source\PSoC4/StepperInterrupt.c ****         StepperInterrupt_Interrupt_InterruptCallback();
 168:Generated_Source\PSoC4/StepperInterrupt.c ****     #endif /* StepperInterrupt_INTERRUPT_INTERRUPT_CALLBACK */ 
 169:Generated_Source\PSoC4/StepperInterrupt.c **** 
 170:Generated_Source\PSoC4/StepperInterrupt.c ****     /*  Place your Interrupt code here. */
 171:Generated_Source\PSoC4/StepperInterrupt.c ****     /* `#START StepperInterrupt_Interrupt` */
 172:Generated_Source\PSoC4/StepperInterrupt.c ****     
 173:Generated_Source\PSoC4/StepperInterrupt.c ****     
 174:Generated_Source\PSoC4/StepperInterrupt.c ****     stepperMotorControl();
  36              		.loc 1 174 0
  37 0002 FFF7FEFF 		bl	stepperMotorControl
  38              	.LVL0:
 175:Generated_Source\PSoC4/StepperInterrupt.c ****     step++;
  39              		.loc 1 175 0
  40 0006 064A     		ldr	r2, .L3
  41 0008 1368     		ldr	r3, [r2]
  42 000a 0133     		adds	r3, r3, #1
  43 000c 1360     		str	r3, [r2]
 176:Generated_Source\PSoC4/StepperInterrupt.c ****     if(step>3)
  44              		.loc 1 176 0
  45 000e 032B     		cmp	r3, #3
  46 0010 02DD     		ble	.L2
 177:Generated_Source\PSoC4/StepperInterrupt.c ****     {
 178:Generated_Source\PSoC4/StepperInterrupt.c ****         step=0;
  47              		.loc 1 178 0
  48 0012 0022     		movs	r2, #0
  49 0014 024B     		ldr	r3, .L3
  50 0016 1A60     		str	r2, [r3]
ARM GAS  C:\Users\quint\AppData\Local\Temp\ccSJuUmf.s 			page 5


  51              	.L2:
 179:Generated_Source\PSoC4/StepperInterrupt.c ****     }
 180:Generated_Source\PSoC4/StepperInterrupt.c ****     Stepper_Timer_ClearInterrupt(Stepper_Timer_INTR_MASK_TC);
  52              		.loc 1 180 0
  53 0018 0120     		movs	r0, #1
  54 001a FFF7FEFF 		bl	Stepper_Timer_ClearInterrupt
  55              	.LVL1:
 181:Generated_Source\PSoC4/StepperInterrupt.c ****     
 182:Generated_Source\PSoC4/StepperInterrupt.c **** 
 183:Generated_Source\PSoC4/StepperInterrupt.c ****     /* `#END` */
 184:Generated_Source\PSoC4/StepperInterrupt.c **** }
  56              		.loc 1 184 0
  57              		@ sp needed
  58 001e 10BD     		pop	{r4, pc}
  59              	.L4:
  60              		.align	2
  61              	.L3:
  62 0020 00000000 		.word	step
  63              		.cfi_endproc
  64              	.LFE35:
  65              		.size	StepperInterrupt_Interrupt, .-StepperInterrupt_Interrupt
  66              		.section	.text.StepperInterrupt_SetVector,"ax",%progbits
  67              		.align	2
  68              		.global	StepperInterrupt_SetVector
  69              		.code	16
  70              		.thumb_func
  71              		.type	StepperInterrupt_SetVector, %function
  72              	StepperInterrupt_SetVector:
  73              	.LFB36:
 185:Generated_Source\PSoC4/StepperInterrupt.c **** 
 186:Generated_Source\PSoC4/StepperInterrupt.c **** 
 187:Generated_Source\PSoC4/StepperInterrupt.c **** /*******************************************************************************
 188:Generated_Source\PSoC4/StepperInterrupt.c **** * Function Name: StepperInterrupt_SetVector
 189:Generated_Source\PSoC4/StepperInterrupt.c **** ********************************************************************************
 190:Generated_Source\PSoC4/StepperInterrupt.c **** *
 191:Generated_Source\PSoC4/StepperInterrupt.c **** * Summary:
 192:Generated_Source\PSoC4/StepperInterrupt.c **** *   Change the ISR vector for the Interrupt. Note calling StepperInterrupt_Start
 193:Generated_Source\PSoC4/StepperInterrupt.c **** *   will override any effect this method would have had. To set the vector 
 194:Generated_Source\PSoC4/StepperInterrupt.c **** *   before the component has been started use StepperInterrupt_StartEx instead.
 195:Generated_Source\PSoC4/StepperInterrupt.c **** * 
 196:Generated_Source\PSoC4/StepperInterrupt.c **** *   When defining ISR functions, the CY_ISR and CY_ISR_PROTO macros should be 
 197:Generated_Source\PSoC4/StepperInterrupt.c **** *   used to provide consistent definition across compilers:
 198:Generated_Source\PSoC4/StepperInterrupt.c **** *
 199:Generated_Source\PSoC4/StepperInterrupt.c **** *   Function definition example:
 200:Generated_Source\PSoC4/StepperInterrupt.c **** *   CY_ISR(MyISR)
 201:Generated_Source\PSoC4/StepperInterrupt.c **** *   {
 202:Generated_Source\PSoC4/StepperInterrupt.c **** *   }
 203:Generated_Source\PSoC4/StepperInterrupt.c **** *
 204:Generated_Source\PSoC4/StepperInterrupt.c **** *   Function prototype example:
 205:Generated_Source\PSoC4/StepperInterrupt.c **** *     CY_ISR_PROTO(MyISR);
 206:Generated_Source\PSoC4/StepperInterrupt.c **** *
 207:Generated_Source\PSoC4/StepperInterrupt.c **** * Parameters:
 208:Generated_Source\PSoC4/StepperInterrupt.c **** *   address: Address of the ISR to set in the interrupt vector table.
 209:Generated_Source\PSoC4/StepperInterrupt.c **** *
 210:Generated_Source\PSoC4/StepperInterrupt.c **** * Return:
 211:Generated_Source\PSoC4/StepperInterrupt.c **** *   None
 212:Generated_Source\PSoC4/StepperInterrupt.c **** *
ARM GAS  C:\Users\quint\AppData\Local\Temp\ccSJuUmf.s 			page 6


 213:Generated_Source\PSoC4/StepperInterrupt.c **** *******************************************************************************/
 214:Generated_Source\PSoC4/StepperInterrupt.c **** void StepperInterrupt_SetVector(cyisraddress address)
 215:Generated_Source\PSoC4/StepperInterrupt.c **** {
  74              		.loc 1 215 0
  75              		.cfi_startproc
  76              		@ args = 0, pretend = 0, frame = 0
  77              		@ frame_needed = 0, uses_anonymous_args = 0
  78              		@ link register save eliminated.
  79              	.LVL2:
 216:Generated_Source\PSoC4/StepperInterrupt.c ****     CyRamVectors[CYINT_IRQ_BASE + StepperInterrupt__INTC_NUMBER] = address;
  80              		.loc 1 216 0
  81 0000 8023     		movs	r3, #128
  82 0002 014A     		ldr	r2, .L6
  83 0004 D050     		str	r0, [r2, r3]
 217:Generated_Source\PSoC4/StepperInterrupt.c **** }
  84              		.loc 1 217 0
  85              		@ sp needed
  86 0006 7047     		bx	lr
  87              	.L7:
  88              		.align	2
  89              	.L6:
  90 0008 00000000 		.word	CyRamVectors
  91              		.cfi_endproc
  92              	.LFE36:
  93              		.size	StepperInterrupt_SetVector, .-StepperInterrupt_SetVector
  94              		.section	.text.StepperInterrupt_GetVector,"ax",%progbits
  95              		.align	2
  96              		.global	StepperInterrupt_GetVector
  97              		.code	16
  98              		.thumb_func
  99              		.type	StepperInterrupt_GetVector, %function
 100              	StepperInterrupt_GetVector:
 101              	.LFB37:
 218:Generated_Source\PSoC4/StepperInterrupt.c **** 
 219:Generated_Source\PSoC4/StepperInterrupt.c **** 
 220:Generated_Source\PSoC4/StepperInterrupt.c **** /*******************************************************************************
 221:Generated_Source\PSoC4/StepperInterrupt.c **** * Function Name: StepperInterrupt_GetVector
 222:Generated_Source\PSoC4/StepperInterrupt.c **** ********************************************************************************
 223:Generated_Source\PSoC4/StepperInterrupt.c **** *
 224:Generated_Source\PSoC4/StepperInterrupt.c **** * Summary:
 225:Generated_Source\PSoC4/StepperInterrupt.c **** *   Gets the "address" of the current ISR vector for the Interrupt.
 226:Generated_Source\PSoC4/StepperInterrupt.c **** *
 227:Generated_Source\PSoC4/StepperInterrupt.c **** * Parameters:
 228:Generated_Source\PSoC4/StepperInterrupt.c **** *   None
 229:Generated_Source\PSoC4/StepperInterrupt.c **** *
 230:Generated_Source\PSoC4/StepperInterrupt.c **** * Return:
 231:Generated_Source\PSoC4/StepperInterrupt.c **** *   Address of the ISR in the interrupt vector table.
 232:Generated_Source\PSoC4/StepperInterrupt.c **** *
 233:Generated_Source\PSoC4/StepperInterrupt.c **** *******************************************************************************/
 234:Generated_Source\PSoC4/StepperInterrupt.c **** cyisraddress StepperInterrupt_GetVector(void)
 235:Generated_Source\PSoC4/StepperInterrupt.c **** {
 102              		.loc 1 235 0
 103              		.cfi_startproc
 104              		@ args = 0, pretend = 0, frame = 0
 105              		@ frame_needed = 0, uses_anonymous_args = 0
 106              		@ link register save eliminated.
 236:Generated_Source\PSoC4/StepperInterrupt.c ****     return CyRamVectors[CYINT_IRQ_BASE + StepperInterrupt__INTC_NUMBER];
ARM GAS  C:\Users\quint\AppData\Local\Temp\ccSJuUmf.s 			page 7


 107              		.loc 1 236 0
 108 0000 8023     		movs	r3, #128
 109 0002 014A     		ldr	r2, .L9
 110 0004 D058     		ldr	r0, [r2, r3]
 237:Generated_Source\PSoC4/StepperInterrupt.c **** }
 111              		.loc 1 237 0
 112              		@ sp needed
 113 0006 7047     		bx	lr
 114              	.L10:
 115              		.align	2
 116              	.L9:
 117 0008 00000000 		.word	CyRamVectors
 118              		.cfi_endproc
 119              	.LFE37:
 120              		.size	StepperInterrupt_GetVector, .-StepperInterrupt_GetVector
 121              		.section	.text.StepperInterrupt_SetPriority,"ax",%progbits
 122              		.align	2
 123              		.global	StepperInterrupt_SetPriority
 124              		.code	16
 125              		.thumb_func
 126              		.type	StepperInterrupt_SetPriority, %function
 127              	StepperInterrupt_SetPriority:
 128              	.LFB38:
 238:Generated_Source\PSoC4/StepperInterrupt.c **** 
 239:Generated_Source\PSoC4/StepperInterrupt.c **** 
 240:Generated_Source\PSoC4/StepperInterrupt.c **** /*******************************************************************************
 241:Generated_Source\PSoC4/StepperInterrupt.c **** * Function Name: StepperInterrupt_SetPriority
 242:Generated_Source\PSoC4/StepperInterrupt.c **** ********************************************************************************
 243:Generated_Source\PSoC4/StepperInterrupt.c **** *
 244:Generated_Source\PSoC4/StepperInterrupt.c **** * Summary:
 245:Generated_Source\PSoC4/StepperInterrupt.c **** *   Sets the Priority of the Interrupt. 
 246:Generated_Source\PSoC4/StepperInterrupt.c **** *
 247:Generated_Source\PSoC4/StepperInterrupt.c **** *   Note calling StepperInterrupt_Start or StepperInterrupt_StartEx will 
 248:Generated_Source\PSoC4/StepperInterrupt.c **** *   override any effect this API would have had. This API should only be called
 249:Generated_Source\PSoC4/StepperInterrupt.c **** *   after StepperInterrupt_Start or StepperInterrupt_StartEx has been called. 
 250:Generated_Source\PSoC4/StepperInterrupt.c **** *   To set the initial priority for the component, use the Design-Wide Resources
 251:Generated_Source\PSoC4/StepperInterrupt.c **** *   Interrupt Editor.
 252:Generated_Source\PSoC4/StepperInterrupt.c **** *
 253:Generated_Source\PSoC4/StepperInterrupt.c **** *   Note This API has no effect on Non-maskable interrupt NMI).
 254:Generated_Source\PSoC4/StepperInterrupt.c **** *
 255:Generated_Source\PSoC4/StepperInterrupt.c **** * Parameters:
 256:Generated_Source\PSoC4/StepperInterrupt.c **** *   priority: Priority of the interrupt, 0 being the highest priority
 257:Generated_Source\PSoC4/StepperInterrupt.c **** *             PSoC 3 and PSoC 5LP: Priority is from 0 to 7.
 258:Generated_Source\PSoC4/StepperInterrupt.c **** *             PSoC 4: Priority is from 0 to 3.
 259:Generated_Source\PSoC4/StepperInterrupt.c **** *
 260:Generated_Source\PSoC4/StepperInterrupt.c **** * Return:
 261:Generated_Source\PSoC4/StepperInterrupt.c **** *   None
 262:Generated_Source\PSoC4/StepperInterrupt.c **** *
 263:Generated_Source\PSoC4/StepperInterrupt.c **** *******************************************************************************/
 264:Generated_Source\PSoC4/StepperInterrupt.c **** void StepperInterrupt_SetPriority(uint8 priority)
 265:Generated_Source\PSoC4/StepperInterrupt.c **** {
 129              		.loc 1 265 0
 130              		.cfi_startproc
 131              		@ args = 0, pretend = 0, frame = 0
 132              		@ frame_needed = 0, uses_anonymous_args = 0
 133              	.LVL3:
 134 0000 10B5     		push	{r4, lr}
ARM GAS  C:\Users\quint\AppData\Local\Temp\ccSJuUmf.s 			page 8


 135              		.cfi_def_cfa_offset 8
 136              		.cfi_offset 4, -8
 137              		.cfi_offset 14, -4
 138 0002 0400     		movs	r4, r0
 139              	.LVL4:
 266:Generated_Source\PSoC4/StepperInterrupt.c **** 	uint8 interruptState;
 267:Generated_Source\PSoC4/StepperInterrupt.c ****     uint32 priorityOffset = ((StepperInterrupt__INTC_NUMBER % 4u) * 8u) + 6u;
 268:Generated_Source\PSoC4/StepperInterrupt.c ****     
 269:Generated_Source\PSoC4/StepperInterrupt.c **** 	interruptState = CyEnterCriticalSection();
 140              		.loc 1 269 0
 141 0004 FFF7FEFF 		bl	CyEnterCriticalSection
 142              	.LVL5:
 270:Generated_Source\PSoC4/StepperInterrupt.c ****     *StepperInterrupt_INTC_PRIOR = (*StepperInterrupt_INTC_PRIOR & (uint32)(~StepperInterrupt__INTC
 143              		.loc 1 270 0
 144 0008 044A     		ldr	r2, .L12
 145 000a 1368     		ldr	r3, [r2]
 146 000c C021     		movs	r1, #192
 147 000e 8B43     		bics	r3, r1
 271:Generated_Source\PSoC4/StepperInterrupt.c ****                                     ((uint32)priority << priorityOffset);
 148              		.loc 1 271 0
 149 0010 A401     		lsls	r4, r4, #6
 270:Generated_Source\PSoC4/StepperInterrupt.c ****     *StepperInterrupt_INTC_PRIOR = (*StepperInterrupt_INTC_PRIOR & (uint32)(~StepperInterrupt__INTC
 150              		.loc 1 270 0
 151 0012 1C43     		orrs	r4, r3
 152 0014 1460     		str	r4, [r2]
 272:Generated_Source\PSoC4/StepperInterrupt.c **** 	CyExitCriticalSection(interruptState);
 153              		.loc 1 272 0
 154 0016 FFF7FEFF 		bl	CyExitCriticalSection
 155              	.LVL6:
 273:Generated_Source\PSoC4/StepperInterrupt.c **** }
 156              		.loc 1 273 0
 157              		@ sp needed
 158 001a 10BD     		pop	{r4, pc}
 159              	.L13:
 160              		.align	2
 161              	.L12:
 162 001c 10E400E0 		.word	-536812528
 163              		.cfi_endproc
 164              	.LFE38:
 165              		.size	StepperInterrupt_SetPriority, .-StepperInterrupt_SetPriority
 166              		.section	.text.StepperInterrupt_GetPriority,"ax",%progbits
 167              		.align	2
 168              		.global	StepperInterrupt_GetPriority
 169              		.code	16
 170              		.thumb_func
 171              		.type	StepperInterrupt_GetPriority, %function
 172              	StepperInterrupt_GetPriority:
 173              	.LFB39:
 274:Generated_Source\PSoC4/StepperInterrupt.c **** 
 275:Generated_Source\PSoC4/StepperInterrupt.c **** 
 276:Generated_Source\PSoC4/StepperInterrupt.c **** /*******************************************************************************
 277:Generated_Source\PSoC4/StepperInterrupt.c **** * Function Name: StepperInterrupt_GetPriority
 278:Generated_Source\PSoC4/StepperInterrupt.c **** ********************************************************************************
 279:Generated_Source\PSoC4/StepperInterrupt.c **** *
 280:Generated_Source\PSoC4/StepperInterrupt.c **** * Summary:
 281:Generated_Source\PSoC4/StepperInterrupt.c **** *   Gets the Priority of the Interrupt.
 282:Generated_Source\PSoC4/StepperInterrupt.c **** *
ARM GAS  C:\Users\quint\AppData\Local\Temp\ccSJuUmf.s 			page 9


 283:Generated_Source\PSoC4/StepperInterrupt.c **** * Parameters:
 284:Generated_Source\PSoC4/StepperInterrupt.c **** *   None
 285:Generated_Source\PSoC4/StepperInterrupt.c **** *
 286:Generated_Source\PSoC4/StepperInterrupt.c **** * Return:
 287:Generated_Source\PSoC4/StepperInterrupt.c **** *   Priority of the interrupt, 0 being the highest priority
 288:Generated_Source\PSoC4/StepperInterrupt.c **** *    PSoC 3 and PSoC 5LP: Priority is from 0 to 7.
 289:Generated_Source\PSoC4/StepperInterrupt.c **** *    PSoC 4: Priority is from 0 to 3.
 290:Generated_Source\PSoC4/StepperInterrupt.c **** *
 291:Generated_Source\PSoC4/StepperInterrupt.c **** *******************************************************************************/
 292:Generated_Source\PSoC4/StepperInterrupt.c **** uint8 StepperInterrupt_GetPriority(void)
 293:Generated_Source\PSoC4/StepperInterrupt.c **** {
 174              		.loc 1 293 0
 175              		.cfi_startproc
 176              		@ args = 0, pretend = 0, frame = 0
 177              		@ frame_needed = 0, uses_anonymous_args = 0
 178              		@ link register save eliminated.
 179              	.LVL7:
 294:Generated_Source\PSoC4/StepperInterrupt.c ****     uint32 priority;
 295:Generated_Source\PSoC4/StepperInterrupt.c **** 	uint32 priorityOffset = ((StepperInterrupt__INTC_NUMBER % 4u) * 8u) + 6u;
 296:Generated_Source\PSoC4/StepperInterrupt.c **** 
 297:Generated_Source\PSoC4/StepperInterrupt.c ****     priority = (*StepperInterrupt_INTC_PRIOR & StepperInterrupt__INTC_PRIOR_MASK) >> priorityOffset
 180              		.loc 1 297 0
 181 0000 024B     		ldr	r3, .L15
 182 0002 1868     		ldr	r0, [r3]
 183 0004 8009     		lsrs	r0, r0, #6
 184              	.LVL8:
 298:Generated_Source\PSoC4/StepperInterrupt.c **** 
 299:Generated_Source\PSoC4/StepperInterrupt.c ****     return (uint8)priority;
 185              		.loc 1 299 0
 186 0006 0323     		movs	r3, #3
 187 0008 1840     		ands	r0, r3
 188              	.LVL9:
 300:Generated_Source\PSoC4/StepperInterrupt.c **** }
 189              		.loc 1 300 0
 190              		@ sp needed
 191 000a 7047     		bx	lr
 192              	.L16:
 193              		.align	2
 194              	.L15:
 195 000c 10E400E0 		.word	-536812528
 196              		.cfi_endproc
 197              	.LFE39:
 198              		.size	StepperInterrupt_GetPriority, .-StepperInterrupt_GetPriority
 199              		.section	.text.StepperInterrupt_Enable,"ax",%progbits
 200              		.align	2
 201              		.global	StepperInterrupt_Enable
 202              		.code	16
 203              		.thumb_func
 204              		.type	StepperInterrupt_Enable, %function
 205              	StepperInterrupt_Enable:
 206              	.LFB40:
 301:Generated_Source\PSoC4/StepperInterrupt.c **** 
 302:Generated_Source\PSoC4/StepperInterrupt.c **** 
 303:Generated_Source\PSoC4/StepperInterrupt.c **** /*******************************************************************************
 304:Generated_Source\PSoC4/StepperInterrupt.c **** * Function Name: StepperInterrupt_Enable
 305:Generated_Source\PSoC4/StepperInterrupt.c **** ********************************************************************************
 306:Generated_Source\PSoC4/StepperInterrupt.c **** *
ARM GAS  C:\Users\quint\AppData\Local\Temp\ccSJuUmf.s 			page 10


 307:Generated_Source\PSoC4/StepperInterrupt.c **** * Summary:
 308:Generated_Source\PSoC4/StepperInterrupt.c **** *   Enables the interrupt to the interrupt controller. Do not call this function
 309:Generated_Source\PSoC4/StepperInterrupt.c **** *   unless ISR_Start() has been called or the functionality of the ISR_Start() 
 310:Generated_Source\PSoC4/StepperInterrupt.c **** *   function, which sets the vector and the priority, has been called.
 311:Generated_Source\PSoC4/StepperInterrupt.c **** *
 312:Generated_Source\PSoC4/StepperInterrupt.c **** * Parameters:
 313:Generated_Source\PSoC4/StepperInterrupt.c **** *   None
 314:Generated_Source\PSoC4/StepperInterrupt.c **** *
 315:Generated_Source\PSoC4/StepperInterrupt.c **** * Return:
 316:Generated_Source\PSoC4/StepperInterrupt.c **** *   None
 317:Generated_Source\PSoC4/StepperInterrupt.c **** *
 318:Generated_Source\PSoC4/StepperInterrupt.c **** *******************************************************************************/
 319:Generated_Source\PSoC4/StepperInterrupt.c **** void StepperInterrupt_Enable(void)
 320:Generated_Source\PSoC4/StepperInterrupt.c **** {
 207              		.loc 1 320 0
 208              		.cfi_startproc
 209              		@ args = 0, pretend = 0, frame = 0
 210              		@ frame_needed = 0, uses_anonymous_args = 0
 211              		@ link register save eliminated.
 321:Generated_Source\PSoC4/StepperInterrupt.c ****     /* Enable the general interrupt. */
 322:Generated_Source\PSoC4/StepperInterrupt.c ****     *StepperInterrupt_INTC_SET_EN = StepperInterrupt__INTC_MASK;
 212              		.loc 1 322 0
 213 0000 8022     		movs	r2, #128
 214 0002 5202     		lsls	r2, r2, #9
 215 0004 014B     		ldr	r3, .L18
 216 0006 1A60     		str	r2, [r3]
 323:Generated_Source\PSoC4/StepperInterrupt.c **** }
 217              		.loc 1 323 0
 218              		@ sp needed
 219 0008 7047     		bx	lr
 220              	.L19:
 221 000a C046     		.align	2
 222              	.L18:
 223 000c 00E100E0 		.word	-536813312
 224              		.cfi_endproc
 225              	.LFE40:
 226              		.size	StepperInterrupt_Enable, .-StepperInterrupt_Enable
 227              		.section	.text.StepperInterrupt_GetState,"ax",%progbits
 228              		.align	2
 229              		.global	StepperInterrupt_GetState
 230              		.code	16
 231              		.thumb_func
 232              		.type	StepperInterrupt_GetState, %function
 233              	StepperInterrupt_GetState:
 234              	.LFB41:
 324:Generated_Source\PSoC4/StepperInterrupt.c **** 
 325:Generated_Source\PSoC4/StepperInterrupt.c **** 
 326:Generated_Source\PSoC4/StepperInterrupt.c **** /*******************************************************************************
 327:Generated_Source\PSoC4/StepperInterrupt.c **** * Function Name: StepperInterrupt_GetState
 328:Generated_Source\PSoC4/StepperInterrupt.c **** ********************************************************************************
 329:Generated_Source\PSoC4/StepperInterrupt.c **** *
 330:Generated_Source\PSoC4/StepperInterrupt.c **** * Summary:
 331:Generated_Source\PSoC4/StepperInterrupt.c **** *   Gets the state (enabled, disabled) of the Interrupt.
 332:Generated_Source\PSoC4/StepperInterrupt.c **** *
 333:Generated_Source\PSoC4/StepperInterrupt.c **** * Parameters:
 334:Generated_Source\PSoC4/StepperInterrupt.c **** *   None
 335:Generated_Source\PSoC4/StepperInterrupt.c **** *
ARM GAS  C:\Users\quint\AppData\Local\Temp\ccSJuUmf.s 			page 11


 336:Generated_Source\PSoC4/StepperInterrupt.c **** * Return:
 337:Generated_Source\PSoC4/StepperInterrupt.c **** *   1 if enabled, 0 if disabled.
 338:Generated_Source\PSoC4/StepperInterrupt.c **** *
 339:Generated_Source\PSoC4/StepperInterrupt.c **** *******************************************************************************/
 340:Generated_Source\PSoC4/StepperInterrupt.c **** uint8 StepperInterrupt_GetState(void)
 341:Generated_Source\PSoC4/StepperInterrupt.c **** {
 235              		.loc 1 341 0
 236              		.cfi_startproc
 237              		@ args = 0, pretend = 0, frame = 0
 238              		@ frame_needed = 0, uses_anonymous_args = 0
 239              		@ link register save eliminated.
 342:Generated_Source\PSoC4/StepperInterrupt.c ****     /* Get the state of the general interrupt. */
 343:Generated_Source\PSoC4/StepperInterrupt.c ****     return ((*StepperInterrupt_INTC_SET_EN & (uint32)StepperInterrupt__INTC_MASK) != 0u) ? 1u:0u;
 240              		.loc 1 343 0
 241 0000 034B     		ldr	r3, .L23
 242 0002 1B68     		ldr	r3, [r3]
 243 0004 DB03     		lsls	r3, r3, #15
 244 0006 01D5     		bpl	.L22
 245 0008 0120     		movs	r0, #1
 246 000a 00E0     		b	.L21
 247              	.L22:
 248 000c 0020     		movs	r0, #0
 249              	.L21:
 344:Generated_Source\PSoC4/StepperInterrupt.c **** }
 250              		.loc 1 344 0 discriminator 4
 251              		@ sp needed
 252 000e 7047     		bx	lr
 253              	.L24:
 254              		.align	2
 255              	.L23:
 256 0010 00E100E0 		.word	-536813312
 257              		.cfi_endproc
 258              	.LFE41:
 259              		.size	StepperInterrupt_GetState, .-StepperInterrupt_GetState
 260              		.section	.text.StepperInterrupt_Disable,"ax",%progbits
 261              		.align	2
 262              		.global	StepperInterrupt_Disable
 263              		.code	16
 264              		.thumb_func
 265              		.type	StepperInterrupt_Disable, %function
 266              	StepperInterrupt_Disable:
 267              	.LFB42:
 345:Generated_Source\PSoC4/StepperInterrupt.c **** 
 346:Generated_Source\PSoC4/StepperInterrupt.c **** 
 347:Generated_Source\PSoC4/StepperInterrupt.c **** /*******************************************************************************
 348:Generated_Source\PSoC4/StepperInterrupt.c **** * Function Name: StepperInterrupt_Disable
 349:Generated_Source\PSoC4/StepperInterrupt.c **** ********************************************************************************
 350:Generated_Source\PSoC4/StepperInterrupt.c **** *
 351:Generated_Source\PSoC4/StepperInterrupt.c **** * Summary:
 352:Generated_Source\PSoC4/StepperInterrupt.c **** *   Disables the Interrupt in the interrupt controller.
 353:Generated_Source\PSoC4/StepperInterrupt.c **** *
 354:Generated_Source\PSoC4/StepperInterrupt.c **** * Parameters:
 355:Generated_Source\PSoC4/StepperInterrupt.c **** *   None
 356:Generated_Source\PSoC4/StepperInterrupt.c **** *
 357:Generated_Source\PSoC4/StepperInterrupt.c **** * Return:
 358:Generated_Source\PSoC4/StepperInterrupt.c **** *   None
 359:Generated_Source\PSoC4/StepperInterrupt.c **** *
ARM GAS  C:\Users\quint\AppData\Local\Temp\ccSJuUmf.s 			page 12


 360:Generated_Source\PSoC4/StepperInterrupt.c **** *******************************************************************************/
 361:Generated_Source\PSoC4/StepperInterrupt.c **** void StepperInterrupt_Disable(void)
 362:Generated_Source\PSoC4/StepperInterrupt.c **** {
 268              		.loc 1 362 0
 269              		.cfi_startproc
 270              		@ args = 0, pretend = 0, frame = 0
 271              		@ frame_needed = 0, uses_anonymous_args = 0
 272              		@ link register save eliminated.
 363:Generated_Source\PSoC4/StepperInterrupt.c ****     /* Disable the general interrupt. */
 364:Generated_Source\PSoC4/StepperInterrupt.c ****     *StepperInterrupt_INTC_CLR_EN = StepperInterrupt__INTC_MASK;
 273              		.loc 1 364 0
 274 0000 8022     		movs	r2, #128
 275 0002 5202     		lsls	r2, r2, #9
 276 0004 014B     		ldr	r3, .L26
 277 0006 1A60     		str	r2, [r3]
 365:Generated_Source\PSoC4/StepperInterrupt.c **** }
 278              		.loc 1 365 0
 279              		@ sp needed
 280 0008 7047     		bx	lr
 281              	.L27:
 282 000a C046     		.align	2
 283              	.L26:
 284 000c 80E100E0 		.word	-536813184
 285              		.cfi_endproc
 286              	.LFE42:
 287              		.size	StepperInterrupt_Disable, .-StepperInterrupt_Disable
 288              		.section	.text.StepperInterrupt_Start,"ax",%progbits
 289              		.align	2
 290              		.global	StepperInterrupt_Start
 291              		.code	16
 292              		.thumb_func
 293              		.type	StepperInterrupt_Start, %function
 294              	StepperInterrupt_Start:
 295              	.LFB32:
  62:Generated_Source\PSoC4/StepperInterrupt.c ****     /* For all we know the interrupt is active. */
 296              		.loc 1 62 0
 297              		.cfi_startproc
 298              		@ args = 0, pretend = 0, frame = 0
 299              		@ frame_needed = 0, uses_anonymous_args = 0
 300 0000 10B5     		push	{r4, lr}
 301              		.cfi_def_cfa_offset 8
 302              		.cfi_offset 4, -8
 303              		.cfi_offset 14, -4
  64:Generated_Source\PSoC4/StepperInterrupt.c **** 
 304              		.loc 1 64 0
 305 0002 FFF7FEFF 		bl	StepperInterrupt_Disable
 306              	.LVL10:
  67:Generated_Source\PSoC4/StepperInterrupt.c **** 
 307              		.loc 1 67 0
 308 0006 0448     		ldr	r0, .L29
 309 0008 FFF7FEFF 		bl	StepperInterrupt_SetVector
 310              	.LVL11:
  70:Generated_Source\PSoC4/StepperInterrupt.c **** 
 311              		.loc 1 70 0
 312 000c 0320     		movs	r0, #3
 313 000e FFF7FEFF 		bl	StepperInterrupt_SetPriority
 314              	.LVL12:
ARM GAS  C:\Users\quint\AppData\Local\Temp\ccSJuUmf.s 			page 13


  73:Generated_Source\PSoC4/StepperInterrupt.c **** }
 315              		.loc 1 73 0
 316 0012 FFF7FEFF 		bl	StepperInterrupt_Enable
 317              	.LVL13:
  74:Generated_Source\PSoC4/StepperInterrupt.c **** 
 318              		.loc 1 74 0
 319              		@ sp needed
 320 0016 10BD     		pop	{r4, pc}
 321              	.L30:
 322              		.align	2
 323              	.L29:
 324 0018 00000000 		.word	StepperInterrupt_Interrupt
 325              		.cfi_endproc
 326              	.LFE32:
 327              		.size	StepperInterrupt_Start, .-StepperInterrupt_Start
 328              		.section	.text.StepperInterrupt_StartEx,"ax",%progbits
 329              		.align	2
 330              		.global	StepperInterrupt_StartEx
 331              		.code	16
 332              		.thumb_func
 333              		.type	StepperInterrupt_StartEx, %function
 334              	StepperInterrupt_StartEx:
 335              	.LFB33:
 105:Generated_Source\PSoC4/StepperInterrupt.c ****     /* For all we know the interrupt is active. */
 336              		.loc 1 105 0
 337              		.cfi_startproc
 338              		@ args = 0, pretend = 0, frame = 0
 339              		@ frame_needed = 0, uses_anonymous_args = 0
 340              	.LVL14:
 341 0000 10B5     		push	{r4, lr}
 342              		.cfi_def_cfa_offset 8
 343              		.cfi_offset 4, -8
 344              		.cfi_offset 14, -4
 345 0002 0400     		movs	r4, r0
 107:Generated_Source\PSoC4/StepperInterrupt.c **** 
 346              		.loc 1 107 0
 347 0004 FFF7FEFF 		bl	StepperInterrupt_Disable
 348              	.LVL15:
 110:Generated_Source\PSoC4/StepperInterrupt.c **** 
 349              		.loc 1 110 0
 350 0008 2000     		movs	r0, r4
 351 000a FFF7FEFF 		bl	StepperInterrupt_SetVector
 352              	.LVL16:
 113:Generated_Source\PSoC4/StepperInterrupt.c **** 
 353              		.loc 1 113 0
 354 000e 0320     		movs	r0, #3
 355 0010 FFF7FEFF 		bl	StepperInterrupt_SetPriority
 356              	.LVL17:
 116:Generated_Source\PSoC4/StepperInterrupt.c **** }
 357              		.loc 1 116 0
 358 0014 FFF7FEFF 		bl	StepperInterrupt_Enable
 359              	.LVL18:
 117:Generated_Source\PSoC4/StepperInterrupt.c **** 
 360              		.loc 1 117 0
 361              		@ sp needed
 362              	.LVL19:
 363 0018 10BD     		pop	{r4, pc}
ARM GAS  C:\Users\quint\AppData\Local\Temp\ccSJuUmf.s 			page 14


 364              		.cfi_endproc
 365              	.LFE33:
 366              		.size	StepperInterrupt_StartEx, .-StepperInterrupt_StartEx
 367 001a C046     		.section	.text.StepperInterrupt_Stop,"ax",%progbits
 368              		.align	2
 369              		.global	StepperInterrupt_Stop
 370              		.code	16
 371              		.thumb_func
 372              		.type	StepperInterrupt_Stop, %function
 373              	StepperInterrupt_Stop:
 374              	.LFB34:
 135:Generated_Source\PSoC4/StepperInterrupt.c ****     /* Disable this interrupt. */
 375              		.loc 1 135 0
 376              		.cfi_startproc
 377              		@ args = 0, pretend = 0, frame = 0
 378              		@ frame_needed = 0, uses_anonymous_args = 0
 379 0000 10B5     		push	{r4, lr}
 380              		.cfi_def_cfa_offset 8
 381              		.cfi_offset 4, -8
 382              		.cfi_offset 14, -4
 137:Generated_Source\PSoC4/StepperInterrupt.c **** 
 383              		.loc 1 137 0
 384 0002 FFF7FEFF 		bl	StepperInterrupt_Disable
 385              	.LVL20:
 140:Generated_Source\PSoC4/StepperInterrupt.c **** }
 386              		.loc 1 140 0
 387 0006 0248     		ldr	r0, .L33
 388 0008 FFF7FEFF 		bl	StepperInterrupt_SetVector
 389              	.LVL21:
 141:Generated_Source\PSoC4/StepperInterrupt.c **** 
 390              		.loc 1 141 0
 391              		@ sp needed
 392 000c 10BD     		pop	{r4, pc}
 393              	.L34:
 394 000e C046     		.align	2
 395              	.L33:
 396 0010 00000000 		.word	IntDefaultHandler
 397              		.cfi_endproc
 398              	.LFE34:
 399              		.size	StepperInterrupt_Stop, .-StepperInterrupt_Stop
 400              		.section	.text.StepperInterrupt_SetPending,"ax",%progbits
 401              		.align	2
 402              		.global	StepperInterrupt_SetPending
 403              		.code	16
 404              		.thumb_func
 405              		.type	StepperInterrupt_SetPending, %function
 406              	StepperInterrupt_SetPending:
 407              	.LFB43:
 366:Generated_Source\PSoC4/StepperInterrupt.c **** 
 367:Generated_Source\PSoC4/StepperInterrupt.c **** 
 368:Generated_Source\PSoC4/StepperInterrupt.c **** /*******************************************************************************
 369:Generated_Source\PSoC4/StepperInterrupt.c **** * Function Name: StepperInterrupt_SetPending
 370:Generated_Source\PSoC4/StepperInterrupt.c **** ********************************************************************************
 371:Generated_Source\PSoC4/StepperInterrupt.c **** *
 372:Generated_Source\PSoC4/StepperInterrupt.c **** * Summary:
 373:Generated_Source\PSoC4/StepperInterrupt.c **** *   Causes the Interrupt to enter the pending state, a software method of
 374:Generated_Source\PSoC4/StepperInterrupt.c **** *   generating the interrupt.
ARM GAS  C:\Users\quint\AppData\Local\Temp\ccSJuUmf.s 			page 15


 375:Generated_Source\PSoC4/StepperInterrupt.c **** *
 376:Generated_Source\PSoC4/StepperInterrupt.c **** * Parameters:
 377:Generated_Source\PSoC4/StepperInterrupt.c **** *   None
 378:Generated_Source\PSoC4/StepperInterrupt.c **** *
 379:Generated_Source\PSoC4/StepperInterrupt.c **** * Return:
 380:Generated_Source\PSoC4/StepperInterrupt.c **** *   None
 381:Generated_Source\PSoC4/StepperInterrupt.c **** *
 382:Generated_Source\PSoC4/StepperInterrupt.c **** * Side Effects:
 383:Generated_Source\PSoC4/StepperInterrupt.c **** *   If interrupts are enabled and the interrupt is set up properly, the ISR is
 384:Generated_Source\PSoC4/StepperInterrupt.c **** *   entered (depending on the priority of this interrupt and other pending 
 385:Generated_Source\PSoC4/StepperInterrupt.c **** *   interrupts).
 386:Generated_Source\PSoC4/StepperInterrupt.c **** *
 387:Generated_Source\PSoC4/StepperInterrupt.c **** *******************************************************************************/
 388:Generated_Source\PSoC4/StepperInterrupt.c **** void StepperInterrupt_SetPending(void)
 389:Generated_Source\PSoC4/StepperInterrupt.c **** {
 408              		.loc 1 389 0
 409              		.cfi_startproc
 410              		@ args = 0, pretend = 0, frame = 0
 411              		@ frame_needed = 0, uses_anonymous_args = 0
 412              		@ link register save eliminated.
 390:Generated_Source\PSoC4/StepperInterrupt.c ****     *StepperInterrupt_INTC_SET_PD = StepperInterrupt__INTC_MASK;
 413              		.loc 1 390 0
 414 0000 8022     		movs	r2, #128
 415 0002 5202     		lsls	r2, r2, #9
 416 0004 014B     		ldr	r3, .L36
 417 0006 1A60     		str	r2, [r3]
 391:Generated_Source\PSoC4/StepperInterrupt.c **** }
 418              		.loc 1 391 0
 419              		@ sp needed
 420 0008 7047     		bx	lr
 421              	.L37:
 422 000a C046     		.align	2
 423              	.L36:
 424 000c 00E200E0 		.word	-536813056
 425              		.cfi_endproc
 426              	.LFE43:
 427              		.size	StepperInterrupt_SetPending, .-StepperInterrupt_SetPending
 428              		.section	.text.StepperInterrupt_ClearPending,"ax",%progbits
 429              		.align	2
 430              		.global	StepperInterrupt_ClearPending
 431              		.code	16
 432              		.thumb_func
 433              		.type	StepperInterrupt_ClearPending, %function
 434              	StepperInterrupt_ClearPending:
 435              	.LFB44:
 392:Generated_Source\PSoC4/StepperInterrupt.c **** 
 393:Generated_Source\PSoC4/StepperInterrupt.c **** 
 394:Generated_Source\PSoC4/StepperInterrupt.c **** /*******************************************************************************
 395:Generated_Source\PSoC4/StepperInterrupt.c **** * Function Name: StepperInterrupt_ClearPending
 396:Generated_Source\PSoC4/StepperInterrupt.c **** ********************************************************************************
 397:Generated_Source\PSoC4/StepperInterrupt.c **** *
 398:Generated_Source\PSoC4/StepperInterrupt.c **** * Summary:
 399:Generated_Source\PSoC4/StepperInterrupt.c **** *   Clears a pending interrupt in the interrupt controller.
 400:Generated_Source\PSoC4/StepperInterrupt.c **** *
 401:Generated_Source\PSoC4/StepperInterrupt.c **** *   Note Some interrupt sources are clear-on-read and require the block 
 402:Generated_Source\PSoC4/StepperInterrupt.c **** *   interrupt/status register to be read/cleared with the appropriate block API 
 403:Generated_Source\PSoC4/StepperInterrupt.c **** *   (GPIO, UART, and so on). Otherwise the ISR will continue to remain in 
ARM GAS  C:\Users\quint\AppData\Local\Temp\ccSJuUmf.s 			page 16


 404:Generated_Source\PSoC4/StepperInterrupt.c **** *   pending state even though the interrupt itself is cleared using this API.
 405:Generated_Source\PSoC4/StepperInterrupt.c **** *
 406:Generated_Source\PSoC4/StepperInterrupt.c **** * Parameters:
 407:Generated_Source\PSoC4/StepperInterrupt.c **** *   None
 408:Generated_Source\PSoC4/StepperInterrupt.c **** *
 409:Generated_Source\PSoC4/StepperInterrupt.c **** * Return:
 410:Generated_Source\PSoC4/StepperInterrupt.c **** *   None
 411:Generated_Source\PSoC4/StepperInterrupt.c **** *
 412:Generated_Source\PSoC4/StepperInterrupt.c **** *******************************************************************************/
 413:Generated_Source\PSoC4/StepperInterrupt.c **** void StepperInterrupt_ClearPending(void)
 414:Generated_Source\PSoC4/StepperInterrupt.c **** {
 436              		.loc 1 414 0
 437              		.cfi_startproc
 438              		@ args = 0, pretend = 0, frame = 0
 439              		@ frame_needed = 0, uses_anonymous_args = 0
 440              		@ link register save eliminated.
 415:Generated_Source\PSoC4/StepperInterrupt.c ****     *StepperInterrupt_INTC_CLR_PD = StepperInterrupt__INTC_MASK;
 441              		.loc 1 415 0
 442 0000 8022     		movs	r2, #128
 443 0002 5202     		lsls	r2, r2, #9
 444 0004 014B     		ldr	r3, .L39
 445 0006 1A60     		str	r2, [r3]
 416:Generated_Source\PSoC4/StepperInterrupt.c **** }
 446              		.loc 1 416 0
 447              		@ sp needed
 448 0008 7047     		bx	lr
 449              	.L40:
 450 000a C046     		.align	2
 451              	.L39:
 452 000c 80E200E0 		.word	-536812928
 453              		.cfi_endproc
 454              	.LFE44:
 455              		.size	StepperInterrupt_ClearPending, .-StepperInterrupt_ClearPending
 456              		.text
 457              	.Letext0:
 458              		.file 2 "Generated_Source\\PSoC4/cytypes.h"
 459              		.file 3 "Generated_Source\\PSoC4\\Stepper_Timer.h"
 460              		.file 4 "Generated_Source\\PSoC4/CyLib.h"