ARM GAS  C:\Users\quint\AppData\Local\Temp\ccshE9pX.s 			page 1


   1              		.syntax unified
   2              		.cpu cortex-m0
   3              		.fpu softvfp
   4              		.eabi_attribute 20, 1
   5              		.eabi_attribute 21, 1
   6              		.eabi_attribute 23, 3
   7              		.eabi_attribute 24, 1
   8              		.eabi_attribute 25, 1
   9              		.eabi_attribute 26, 1
  10              		.eabi_attribute 30, 6
  11              		.eabi_attribute 34, 0
  12              		.eabi_attribute 18, 4
  13              		.thumb
  14              		.syntax unified
  15              		.file	"main.c"
  16              		.text
  17              	.Ltext0:
  18              		.cfi_sections	.debug_frame
  19              		.comm	GLCD_FONT8x16,1552,4
  20              		.global	__aeabi_i2d
  21              		.global	__aeabi_dmul
  22              		.global	__aeabi_ddiv
  23              		.global	__aeabi_dadd
  24              		.global	__aeabi_d2iz
  25              		.section	.text.GLCD_Draw_Line_Polar,"ax",%progbits
  26              		.align	2
  27              		.global	GLCD_Draw_Line_Polar
  28              		.code	16
  29              		.thumb_func
  30              		.type	GLCD_Draw_Line_Polar, %function
  31              	GLCD_Draw_Line_Polar:
  32              	.LFB34:
  33              		.file 1 "main.c"
   1:main.c        **** 
   2:main.c        **** // Test program to confirm operation of PSoC 4 Pioneer Board and Graphical LCD
   3:main.c        **** // For documentation on the GLCD Library: Click on the Datasheets tab in the Workspace Explorer and
   4:main.c        **** //        API documentation is at the bottom of the Datasheet
   5:main.c        **** 
   6:main.c        **** #include <device.h>
   7:main.c        **** #include <header01.h>
   8:main.c        **** #include <math.h>
   9:main.c        **** 
  10:main.c        **** 
  11:main.c        **** 
  12:main.c        **** //This converts the polar cordinates given to the point to point used for the DrawLine
  13:main.c        ****  void GLCD_Draw_Line_Polar(int centerX, int centerY, int angle, int length, int color)
  14:main.c        **** {
  34              		.loc 1 14 0
  35              		.cfi_startproc
  36              		@ args = 4, pretend = 0, frame = 16
  37              		@ frame_needed = 1, uses_anonymous_args = 0
  38 0000 F0B5     		push	{r4, r5, r6, r7, lr}
  39              		.cfi_def_cfa_offset 20
  40              		.cfi_offset 4, -20
  41              		.cfi_offset 5, -16
  42              		.cfi_offset 6, -12
  43              		.cfi_offset 7, -8
ARM GAS  C:\Users\quint\AppData\Local\Temp\ccshE9pX.s 			page 2


  44              		.cfi_offset 14, -4
  45 0002 87B0     		sub	sp, sp, #28
  46              		.cfi_def_cfa_offset 48
  47 0004 02AF     		add	r7, sp, #8
  48              		.cfi_def_cfa 7, 40
  49 0006 F860     		str	r0, [r7, #12]
  50 0008 B960     		str	r1, [r7, #8]
  51 000a 7A60     		str	r2, [r7, #4]
  52 000c 3B60     		str	r3, [r7]
  15:main.c        ****     GLCD_DrawLine(centerX,centerY,(length*cos(((angle*M_PI))/180))+centerX,(length*sin(((angle*M_PI
  53              		.loc 1 15 0
  54 000e 3868     		ldr	r0, [r7]
  55 0010 FFF7FEFF 		bl	__aeabi_i2d
  56 0014 0400     		movs	r4, r0
  57 0016 0D00     		movs	r5, r1
  58 0018 7868     		ldr	r0, [r7, #4]
  59 001a FFF7FEFF 		bl	__aeabi_i2d
  60 001e 364A     		ldr	r2, .L2
  61 0020 364B     		ldr	r3, .L2+4
  62 0022 FFF7FEFF 		bl	__aeabi_dmul
  63 0026 0200     		movs	r2, r0
  64 0028 0B00     		movs	r3, r1
  65 002a 1000     		movs	r0, r2
  66 002c 1900     		movs	r1, r3
  67 002e 0022     		movs	r2, #0
  68 0030 334B     		ldr	r3, .L2+8
  69 0032 FFF7FEFF 		bl	__aeabi_ddiv
  70 0036 0200     		movs	r2, r0
  71 0038 0B00     		movs	r3, r1
  72 003a 1000     		movs	r0, r2
  73 003c 1900     		movs	r1, r3
  74 003e FFF7FEFF 		bl	cos
  75 0042 0200     		movs	r2, r0
  76 0044 0B00     		movs	r3, r1
  77 0046 2000     		movs	r0, r4
  78 0048 2900     		movs	r1, r5
  79 004a FFF7FEFF 		bl	__aeabi_dmul
  80 004e 0300     		movs	r3, r0
  81 0050 0C00     		movs	r4, r1
  82 0052 2500     		movs	r5, r4
  83 0054 1C00     		movs	r4, r3
  84 0056 F868     		ldr	r0, [r7, #12]
  85 0058 FFF7FEFF 		bl	__aeabi_i2d
  86 005c 0200     		movs	r2, r0
  87 005e 0B00     		movs	r3, r1
  88 0060 2000     		movs	r0, r4
  89 0062 2900     		movs	r1, r5
  90 0064 FFF7FEFF 		bl	__aeabi_dadd
  91 0068 0300     		movs	r3, r0
  92 006a 0C00     		movs	r4, r1
  93 006c 1800     		movs	r0, r3
  94 006e 2100     		movs	r1, r4
  95 0070 FFF7FEFF 		bl	__aeabi_d2iz
  96 0074 0600     		movs	r6, r0
  97 0076 3868     		ldr	r0, [r7]
  98 0078 FFF7FEFF 		bl	__aeabi_i2d
  99 007c 0400     		movs	r4, r0
ARM GAS  C:\Users\quint\AppData\Local\Temp\ccshE9pX.s 			page 3


 100 007e 0D00     		movs	r5, r1
 101 0080 7868     		ldr	r0, [r7, #4]
 102 0082 FFF7FEFF 		bl	__aeabi_i2d
 103 0086 1C4A     		ldr	r2, .L2
 104 0088 1C4B     		ldr	r3, .L2+4
 105 008a FFF7FEFF 		bl	__aeabi_dmul
 106 008e 0200     		movs	r2, r0
 107 0090 0B00     		movs	r3, r1
 108 0092 1000     		movs	r0, r2
 109 0094 1900     		movs	r1, r3
 110 0096 0022     		movs	r2, #0
 111 0098 194B     		ldr	r3, .L2+8
 112 009a FFF7FEFF 		bl	__aeabi_ddiv
 113 009e 0200     		movs	r2, r0
 114 00a0 0B00     		movs	r3, r1
 115 00a2 1000     		movs	r0, r2
 116 00a4 1900     		movs	r1, r3
 117 00a6 FFF7FEFF 		bl	sin
 118 00aa 0200     		movs	r2, r0
 119 00ac 0B00     		movs	r3, r1
 120 00ae 2000     		movs	r0, r4
 121 00b0 2900     		movs	r1, r5
 122 00b2 FFF7FEFF 		bl	__aeabi_dmul
 123 00b6 0300     		movs	r3, r0
 124 00b8 0C00     		movs	r4, r1
 125 00ba 2500     		movs	r5, r4
 126 00bc 1C00     		movs	r4, r3
 127 00be B868     		ldr	r0, [r7, #8]
 128 00c0 FFF7FEFF 		bl	__aeabi_i2d
 129 00c4 0200     		movs	r2, r0
 130 00c6 0B00     		movs	r3, r1
 131 00c8 2000     		movs	r0, r4
 132 00ca 2900     		movs	r1, r5
 133 00cc FFF7FEFF 		bl	__aeabi_dadd
 134 00d0 0300     		movs	r3, r0
 135 00d2 0C00     		movs	r4, r1
 136 00d4 1800     		movs	r0, r3
 137 00d6 2100     		movs	r1, r4
 138 00d8 FFF7FEFF 		bl	__aeabi_d2iz
 139 00dc 0200     		movs	r2, r0
 140 00de B968     		ldr	r1, [r7, #8]
 141 00e0 F868     		ldr	r0, [r7, #12]
 142 00e2 BB6A     		ldr	r3, [r7, #40]
 143 00e4 0093     		str	r3, [sp]
 144 00e6 1300     		movs	r3, r2
 145 00e8 3200     		movs	r2, r6
 146 00ea FFF7FEFF 		bl	GLCD_DrawLine
  16:main.c        ****   
  17:main.c        **** }
 147              		.loc 1 17 0
 148 00ee C046     		nop
 149 00f0 BD46     		mov	sp, r7
 150 00f2 05B0     		add	sp, sp, #20
 151              		@ sp needed
 152 00f4 F0BD     		pop	{r4, r5, r6, r7, pc}
 153              	.L3:
 154 00f6 C046     		.align	2
ARM GAS  C:\Users\quint\AppData\Local\Temp\ccshE9pX.s 			page 4


 155              	.L2:
 156 00f8 182D4454 		.word	1413754136
 157 00fc FB210940 		.word	1074340347
 158 0100 00806640 		.word	1080459264
 159              		.cfi_endproc
 160              	.LFE34:
 161              		.size	GLCD_Draw_Line_Polar, .-GLCD_Draw_Line_Polar
 162              		.section	.text.PACMAN,"ax",%progbits
 163              		.align	2
 164              		.global	PACMAN
 165              		.code	16
 166              		.thumb_func
 167              		.type	PACMAN, %function
 168              	PACMAN:
 169              	.LFB35:
  18:main.c        **** 
  19:main.c        **** //Function that has loops to draw pacman
  20:main.c        **** void PACMAN(int centerAngle)
  21:main.c        **** {
 170              		.loc 1 21 0
 171              		.cfi_startproc
 172              		@ args = 0, pretend = 0, frame = 16
 173              		@ frame_needed = 1, uses_anonymous_args = 0
 174 0000 80B5     		push	{r7, lr}
 175              		.cfi_def_cfa_offset 8
 176              		.cfi_offset 7, -8
 177              		.cfi_offset 14, -4
 178 0002 86B0     		sub	sp, sp, #24
 179              		.cfi_def_cfa_offset 32
 180 0004 02AF     		add	r7, sp, #8
 181              		.cfi_def_cfa 7, 24
 182 0006 7860     		str	r0, [r7, #4]
  22:main.c        ****     int16 count1;
  23:main.c        ****     int16 count2;
  24:main.c        ****     int16 count3;
  25:main.c        ****     //Draws the original yellow circle
  26:main.c        ****      for( count1=0; count1<360;count1++)
 183              		.loc 1 26 0
 184 0008 0E23     		movs	r3, #14
 185 000a FB18     		adds	r3, r7, r3
 186 000c 0022     		movs	r2, #0
 187 000e 1A80     		strh	r2, [r3]
 188 0010 15E0     		b	.L5
 189              	.L6:
  27:main.c        ****     {
  28:main.c        ****          GLCD_Draw_Line_Polar(CENTER, CENTER,count1 , 50,  GLCD_YELLOW);   //Thins draws the origin
 190              		.loc 1 28 0 discriminator 3
 191 0012 0E23     		movs	r3, #14
 192 0014 FB18     		adds	r3, r7, r3
 193 0016 0022     		movs	r2, #0
 194 0018 9A5E     		ldrsh	r2, [r3, r2]
 195 001a FF23     		movs	r3, #255
 196 001c 1B01     		lsls	r3, r3, #4
 197 001e 0093     		str	r3, [sp]
 198 0020 3223     		movs	r3, #50
 199 0022 3E21     		movs	r1, #62
 200 0024 3E20     		movs	r0, #62
ARM GAS  C:\Users\quint\AppData\Local\Temp\ccshE9pX.s 			page 5


 201 0026 FFF7FEFF 		bl	GLCD_Draw_Line_Polar
  26:main.c        ****     {
 202              		.loc 1 26 0 discriminator 3
 203 002a 0E23     		movs	r3, #14
 204 002c FB18     		adds	r3, r7, r3
 205 002e 0022     		movs	r2, #0
 206 0030 9B5E     		ldrsh	r3, [r3, r2]
 207 0032 9BB2     		uxth	r3, r3
 208 0034 0133     		adds	r3, r3, #1
 209 0036 9AB2     		uxth	r2, r3
 210 0038 0E23     		movs	r3, #14
 211 003a FB18     		adds	r3, r7, r3
 212 003c 1A80     		strh	r2, [r3]
 213              	.L5:
  26:main.c        ****     {
 214              		.loc 1 26 0 is_stmt 0 discriminator 1
 215 003e 0E23     		movs	r3, #14
 216 0040 FB18     		adds	r3, r7, r3
 217 0042 0022     		movs	r2, #0
 218 0044 9A5E     		ldrsh	r2, [r3, r2]
 219 0046 6823     		movs	r3, #104
 220 0048 FF33     		adds	r3, r3, #255
 221 004a 9A42     		cmp	r2, r3
 222 004c E1DD     		ble	.L6
 223              	.L11:
  29:main.c        ****     }
  30:main.c        ****     
  31:main.c        ****     while(1)
  32:main.c        ****     {
  33:main.c        ****         //Draws black mouth open
  34:main.c        ****     for(count2=centerAngle;count2<=centerAngle+30;count2++)
 224              		.loc 1 34 0 is_stmt 1
 225 004e 0C23     		movs	r3, #12
 226 0050 FB18     		adds	r3, r7, r3
 227 0052 7A68     		ldr	r2, [r7, #4]
 228 0054 1A80     		strh	r2, [r3]
 229 0056 20E0     		b	.L7
 230              	.L8:
  35:main.c        ****     {
  36:main.c        ****          GLCD_Draw_Line_Polar(CENTER, CENTER,-count2 , 50,  GLCD_BLACK);  //Draws the black mouth
 231              		.loc 1 36 0 discriminator 3
 232 0058 0C23     		movs	r3, #12
 233 005a FB18     		adds	r3, r7, r3
 234 005c 0022     		movs	r2, #0
 235 005e 9B5E     		ldrsh	r3, [r3, r2]
 236 0060 5A42     		rsbs	r2, r3, #0
 237 0062 0023     		movs	r3, #0
 238 0064 0093     		str	r3, [sp]
 239 0066 3223     		movs	r3, #50
 240 0068 3E21     		movs	r1, #62
 241 006a 3E20     		movs	r0, #62
 242 006c FFF7FEFF 		bl	GLCD_Draw_Line_Polar
  37:main.c        ****          GLCD_Draw_Line_Polar(CENTER, CENTER,count2 , 50,  GLCD_BLACK);  //Draws the black mouth
 243              		.loc 1 37 0 discriminator 3
 244 0070 0C23     		movs	r3, #12
 245 0072 FB18     		adds	r3, r7, r3
 246 0074 0022     		movs	r2, #0
ARM GAS  C:\Users\quint\AppData\Local\Temp\ccshE9pX.s 			page 6


 247 0076 9A5E     		ldrsh	r2, [r3, r2]
 248 0078 0023     		movs	r3, #0
 249 007a 0093     		str	r3, [sp]
 250 007c 3223     		movs	r3, #50
 251 007e 3E21     		movs	r1, #62
 252 0080 3E20     		movs	r0, #62
 253 0082 FFF7FEFF 		bl	GLCD_Draw_Line_Polar
  34:main.c        ****     {
 254              		.loc 1 34 0 discriminator 3
 255 0086 0C23     		movs	r3, #12
 256 0088 FB18     		adds	r3, r7, r3
 257 008a 0022     		movs	r2, #0
 258 008c 9B5E     		ldrsh	r3, [r3, r2]
 259 008e 9BB2     		uxth	r3, r3
 260 0090 0133     		adds	r3, r3, #1
 261 0092 9AB2     		uxth	r2, r3
 262 0094 0C23     		movs	r3, #12
 263 0096 FB18     		adds	r3, r7, r3
 264 0098 1A80     		strh	r2, [r3]
 265              	.L7:
  34:main.c        ****     {
 266              		.loc 1 34 0 is_stmt 0 discriminator 1
 267 009a 0C23     		movs	r3, #12
 268 009c FB18     		adds	r3, r7, r3
 269 009e 0022     		movs	r2, #0
 270 00a0 9A5E     		ldrsh	r2, [r3, r2]
 271 00a2 7B68     		ldr	r3, [r7, #4]
 272 00a4 1E33     		adds	r3, r3, #30
 273 00a6 9A42     		cmp	r2, r3
 274 00a8 D6DD     		ble	.L8
  38:main.c        ****     }
  39:main.c        ****     //Draws mouth closed by drawing yellow lines
  40:main.c        ****      for( count3=centerAngle+30;count3>=centerAngle;count3--)
 275              		.loc 1 40 0 is_stmt 1
 276 00aa 7B68     		ldr	r3, [r7, #4]
 277 00ac 9BB2     		uxth	r3, r3
 278 00ae 1E33     		adds	r3, r3, #30
 279 00b0 9AB2     		uxth	r2, r3
 280 00b2 0A23     		movs	r3, #10
 281 00b4 FB18     		adds	r3, r7, r3
 282 00b6 1A80     		strh	r2, [r3]
 283 00b8 22E0     		b	.L9
 284              	.L10:
  41:main.c        ****     {
  42:main.c        ****          GLCD_Draw_Line_Polar(CENTER, CENTER,-count3 , 50,  GLCD_YELLOW);
 285              		.loc 1 42 0 discriminator 3
 286 00ba 0A23     		movs	r3, #10
 287 00bc FB18     		adds	r3, r7, r3
 288 00be 0022     		movs	r2, #0
 289 00c0 9B5E     		ldrsh	r3, [r3, r2]
 290 00c2 5A42     		rsbs	r2, r3, #0
 291 00c4 FF23     		movs	r3, #255
 292 00c6 1B01     		lsls	r3, r3, #4
 293 00c8 0093     		str	r3, [sp]
 294 00ca 3223     		movs	r3, #50
 295 00cc 3E21     		movs	r1, #62
 296 00ce 3E20     		movs	r0, #62
ARM GAS  C:\Users\quint\AppData\Local\Temp\ccshE9pX.s 			page 7


 297 00d0 FFF7FEFF 		bl	GLCD_Draw_Line_Polar
  43:main.c        ****          GLCD_Draw_Line_Polar(CENTER, CENTER,count3 , 50,  GLCD_YELLOW);
 298              		.loc 1 43 0 discriminator 3
 299 00d4 0A23     		movs	r3, #10
 300 00d6 FB18     		adds	r3, r7, r3
 301 00d8 0022     		movs	r2, #0
 302 00da 9A5E     		ldrsh	r2, [r3, r2]
 303 00dc FF23     		movs	r3, #255
 304 00de 1B01     		lsls	r3, r3, #4
 305 00e0 0093     		str	r3, [sp]
 306 00e2 3223     		movs	r3, #50
 307 00e4 3E21     		movs	r1, #62
 308 00e6 3E20     		movs	r0, #62
 309 00e8 FFF7FEFF 		bl	GLCD_Draw_Line_Polar
  40:main.c        ****     {
 310              		.loc 1 40 0 discriminator 3
 311 00ec 0A23     		movs	r3, #10
 312 00ee FB18     		adds	r3, r7, r3
 313 00f0 0022     		movs	r2, #0
 314 00f2 9B5E     		ldrsh	r3, [r3, r2]
 315 00f4 9BB2     		uxth	r3, r3
 316 00f6 013B     		subs	r3, r3, #1
 317 00f8 9AB2     		uxth	r2, r3
 318 00fa 0A23     		movs	r3, #10
 319 00fc FB18     		adds	r3, r7, r3
 320 00fe 1A80     		strh	r2, [r3]
 321              	.L9:
  40:main.c        ****     {
 322              		.loc 1 40 0 is_stmt 0 discriminator 1
 323 0100 0A23     		movs	r3, #10
 324 0102 FB18     		adds	r3, r7, r3
 325 0104 0022     		movs	r2, #0
 326 0106 9A5E     		ldrsh	r2, [r3, r2]
 327 0108 7B68     		ldr	r3, [r7, #4]
 328 010a 9A42     		cmp	r2, r3
 329 010c D5DA     		bge	.L10
  44:main.c        ****     }
  45:main.c        ****     }
 330              		.loc 1 45 0 is_stmt 1
 331 010e 9EE7     		b	.L11
 332              		.cfi_endproc
 333              	.LFE35:
 334              		.size	PACMAN, .-PACMAN
 335              		.section	.text.main,"ax",%progbits
 336              		.align	2
 337              		.global	main
 338              		.code	16
 339              		.thumb_func
 340              		.type	main, %function
 341              	main:
 342              	.LFB36:
  46:main.c        ****     
  47:main.c        **** }
  48:main.c        **** 
  49:main.c        **** int main()
  50:main.c        **** {
 343              		.loc 1 50 0
ARM GAS  C:\Users\quint\AppData\Local\Temp\ccshE9pX.s 			page 8


 344              		.cfi_startproc
 345              		@ args = 0, pretend = 0, frame = 8
 346              		@ frame_needed = 1, uses_anonymous_args = 0
 347 0000 80B5     		push	{r7, lr}
 348              		.cfi_def_cfa_offset 8
 349              		.cfi_offset 7, -8
 350              		.cfi_offset 14, -4
 351 0002 82B0     		sub	sp, sp, #8
 352              		.cfi_def_cfa_offset 16
 353 0004 00AF     		add	r7, sp, #0
 354              		.cfi_def_cfa_register 7
  51:main.c        ****     int16 i;       // counter variable -- int16 will take up less room than int32
  52:main.c        ****     int16 x = CENTER;  // x and y coordinates for center of circle--- This is defined in the header
 355              		.loc 1 52 0
 356 0006 BB1D     		adds	r3, r7, #6
 357 0008 3E22     		movs	r2, #62
 358 000a 1A80     		strh	r2, [r3]
  53:main.c        ****     int16 y = 62;
 359              		.loc 1 53 0
 360 000c 3B1D     		adds	r3, r7, #4
 361 000e 3E22     		movs	r2, #62
 362 0010 1A80     		strh	r2, [r3]
  54:main.c        **** 
  55:main.c        **** 	
  56:main.c        **** 	// Initialize LCD
  57:main.c        ****     GLCD_Start();  
 363              		.loc 1 57 0
 364 0012 FFF7FEFF 		bl	GLCD_Start
  58:main.c        ****     Backlight_Write(1);       // turn on backlight
 365              		.loc 1 58 0
 366 0016 0120     		movs	r0, #1
 367 0018 FFF7FEFF 		bl	Backlight_Write
  59:main.c        ****     
  60:main.c        ****     LED_Blue_Write(1); LED_Green_Write(1); LED_Red_Write(1); // turn off all LEDs (1 means off)
 368              		.loc 1 60 0
 369 001c 0120     		movs	r0, #1
 370 001e FFF7FEFF 		bl	LED_Blue_Write
 371 0022 0120     		movs	r0, #1
 372 0024 FFF7FEFF 		bl	LED_Green_Write
 373 0028 0120     		movs	r0, #1
 374 002a FFF7FEFF 		bl	LED_Red_Write
  61:main.c        ****  
  62:main.c        ****     
  63:main.c        ****     // clear LCD to crimson color
  64:main.c        ****     GLCD_Clear(GLCD_BLACK);
 375              		.loc 1 64 0
 376 002e 0020     		movs	r0, #0
 377 0030 FFF7FEFF 		bl	GLCD_Clear
  65:main.c        ****     //Call pacman function
  66:main.c        ****      PACMAN(0);
 378              		.loc 1 66 0
 379 0034 0020     		movs	r0, #0
 380 0036 FFF7FEFF 		bl	PACMAN
 381 003a 0023     		movs	r3, #0
  67:main.c        ****      //PACMAN(90);
  68:main.c        ****      //PACMAN(180);
  69:main.c        ****      //PACMAN(270);
ARM GAS  C:\Users\quint\AppData\Local\Temp\ccshE9pX.s 			page 9


  70:main.c        ****     
  71:main.c        ****     
  72:main.c        ****     
  73:main.c        ****     
  74:main.c        ****     
  75:main.c        ****    
  76:main.c        ****     
  77:main.c        ****     
  78:main.c        ****     
  79:main.c        ****     
  80:main.c        ****     
  81:main.c        ****     
  82:main.c        ****      
  83:main.c        ****         
  84:main.c        **** 	
  85:main.c        **** }
 382              		.loc 1 85 0
 383 003c 1800     		movs	r0, r3
 384 003e BD46     		mov	sp, r7
 385 0040 02B0     		add	sp, sp, #8
 386              		@ sp needed
 387 0042 80BD     		pop	{r7, pc}
 388              		.cfi_endproc
 389              	.LFE36:
 390              		.size	main, .-main
 391              		.text
 392              	.Letext0:
 393              		.file 2 "Generated_Source\\PSoC4/cytypes.h"
 394              		.file 3 "Generated_Source\\PSoC4/GLCD.h"
 395              		.section	.debug_info,"",%progbits
 396              	.Ldebug_info0:
 397 0000 B9010000 		.4byte	0x1b9
 398 0004 0400     		.2byte	0x4
 399 0006 00000000 		.4byte	.Ldebug_abbrev0
 400 000a 04       		.byte	0x4
 401 000b 01       		.uleb128 0x1
 402 000c 91000000 		.4byte	.LASF28
 403 0010 0C       		.byte	0xc
 404 0011 CD010000 		.4byte	.LASF29
 405 0015 41010000 		.4byte	.LASF30
 406 0019 00000000 		.4byte	.Ldebug_ranges0+0
 407 001d 00000000 		.4byte	0
 408 0021 00000000 		.4byte	.Ldebug_line0
 409 0025 02       		.uleb128 0x2
 410 0026 01       		.byte	0x1
 411 0027 06       		.byte	0x6
 412 0028 F8010000 		.4byte	.LASF0
 413 002c 02       		.uleb128 0x2
 414 002d 01       		.byte	0x1
 415 002e 08       		.byte	0x8
 416 002f 5F000000 		.4byte	.LASF1
 417 0033 02       		.uleb128 0x2
 418 0034 02       		.byte	0x2
 419 0035 05       		.byte	0x5
 420 0036 D9010000 		.4byte	.LASF2
 421 003a 02       		.uleb128 0x2
 422 003b 02       		.byte	0x2
ARM GAS  C:\Users\quint\AppData\Local\Temp\ccshE9pX.s 			page 10


 423 003c 07       		.byte	0x7
 424 003d 38000000 		.4byte	.LASF3
 425 0041 02       		.uleb128 0x2
 426 0042 04       		.byte	0x4
 427 0043 05       		.byte	0x5
 428 0044 E3010000 		.4byte	.LASF4
 429 0048 02       		.uleb128 0x2
 430 0049 04       		.byte	0x4
 431 004a 07       		.byte	0x7
 432 004b 73000000 		.4byte	.LASF5
 433 004f 02       		.uleb128 0x2
 434 0050 08       		.byte	0x8
 435 0051 05       		.byte	0x5
 436 0052 BF010000 		.4byte	.LASF6
 437 0056 02       		.uleb128 0x2
 438 0057 08       		.byte	0x8
 439 0058 07       		.byte	0x7
 440 0059 9F010000 		.4byte	.LASF7
 441 005d 03       		.uleb128 0x3
 442 005e 04       		.byte	0x4
 443 005f 05       		.byte	0x5
 444 0060 696E7400 		.ascii	"int\000"
 445 0064 02       		.uleb128 0x2
 446 0065 04       		.byte	0x4
 447 0066 07       		.byte	0x7
 448 0067 92010000 		.4byte	.LASF8
 449 006b 04       		.uleb128 0x4
 450 006c 85000000 		.4byte	.LASF9
 451 0070 02       		.byte	0x2
 452 0071 B901     		.2byte	0x1b9
 453 0073 2C000000 		.4byte	0x2c
 454 0077 04       		.uleb128 0x4
 455 0078 6D000000 		.4byte	.LASF10
 456 007c 02       		.byte	0x2
 457 007d BD01     		.2byte	0x1bd
 458 007f 33000000 		.4byte	0x33
 459 0083 02       		.uleb128 0x2
 460 0084 04       		.byte	0x4
 461 0085 04       		.byte	0x4
 462 0086 59000000 		.4byte	.LASF11
 463 008a 02       		.uleb128 0x2
 464 008b 08       		.byte	0x8
 465 008c 04       		.byte	0x4
 466 008d 1F010000 		.4byte	.LASF12
 467 0091 02       		.uleb128 0x2
 468 0092 01       		.byte	0x1
 469 0093 08       		.byte	0x8
 470 0094 D4010000 		.4byte	.LASF13
 471 0098 02       		.uleb128 0x2
 472 0099 08       		.byte	0x8
 473 009a 04       		.byte	0x4
 474 009b EC010000 		.4byte	.LASF14
 475 009f 02       		.uleb128 0x2
 476 00a0 04       		.byte	0x4
 477 00a1 07       		.byte	0x7
 478 00a2 B6010000 		.4byte	.LASF15
 479 00a6 05       		.uleb128 0x5
ARM GAS  C:\Users\quint\AppData\Local\Temp\ccshE9pX.s 			page 11


 480 00a7 26010000 		.4byte	.LASF21
 481 00ab 01       		.byte	0x1
 482 00ac 0D       		.byte	0xd
 483 00ad 00000000 		.4byte	.LFB34
 484 00b1 04010000 		.4byte	.LFE34-.LFB34
 485 00b5 01       		.uleb128 0x1
 486 00b6 9C       		.byte	0x9c
 487 00b7 02010000 		.4byte	0x102
 488 00bb 06       		.uleb128 0x6
 489 00bc 28000000 		.4byte	.LASF16
 490 00c0 01       		.byte	0x1
 491 00c1 0D       		.byte	0xd
 492 00c2 5D000000 		.4byte	0x5d
 493 00c6 02       		.uleb128 0x2
 494 00c7 91       		.byte	0x91
 495 00c8 64       		.sleb128 -28
 496 00c9 06       		.uleb128 0x6
 497 00ca 30000000 		.4byte	.LASF17
 498 00ce 01       		.byte	0x1
 499 00cf 0D       		.byte	0xd
 500 00d0 5D000000 		.4byte	0x5d
 501 00d4 02       		.uleb128 0x2
 502 00d5 91       		.byte	0x91
 503 00d6 60       		.sleb128 -32
 504 00d7 06       		.uleb128 0x6
 505 00d8 8B000000 		.4byte	.LASF18
 506 00dc 01       		.byte	0x1
 507 00dd 0D       		.byte	0xd
 508 00de 5D000000 		.4byte	0x5d
 509 00e2 02       		.uleb128 0x2
 510 00e3 91       		.byte	0x91
 511 00e4 5C       		.sleb128 -36
 512 00e5 06       		.uleb128 0x6
 513 00e6 04020000 		.4byte	.LASF19
 514 00ea 01       		.byte	0x1
 515 00eb 0D       		.byte	0xd
 516 00ec 5D000000 		.4byte	0x5d
 517 00f0 02       		.uleb128 0x2
 518 00f1 91       		.byte	0x91
 519 00f2 58       		.sleb128 -40
 520 00f3 06       		.uleb128 0x6
 521 00f4 3B010000 		.4byte	.LASF20
 522 00f8 01       		.byte	0x1
 523 00f9 0D       		.byte	0xd
 524 00fa 5D000000 		.4byte	0x5d
 525 00fe 02       		.uleb128 0x2
 526 00ff 91       		.byte	0x91
 527 0100 00       		.sleb128 0
 528 0101 00       		.byte	0
 529 0102 05       		.uleb128 0x5
 530 0103 21000000 		.4byte	.LASF22
 531 0107 01       		.byte	0x1
 532 0108 14       		.byte	0x14
 533 0109 00000000 		.4byte	.LFB35
 534 010d 10010000 		.4byte	.LFE35-.LFB35
 535 0111 01       		.uleb128 0x1
 536 0112 9C       		.byte	0x9c
ARM GAS  C:\Users\quint\AppData\Local\Temp\ccshE9pX.s 			page 12


 537 0113 50010000 		.4byte	0x150
 538 0117 06       		.uleb128 0x6
 539 0118 00000000 		.4byte	.LASF23
 540 011c 01       		.byte	0x1
 541 011d 14       		.byte	0x14
 542 011e 5D000000 		.4byte	0x5d
 543 0122 02       		.uleb128 0x2
 544 0123 91       		.byte	0x91
 545 0124 6C       		.sleb128 -20
 546 0125 07       		.uleb128 0x7
 547 0126 0C000000 		.4byte	.LASF24
 548 012a 01       		.byte	0x1
 549 012b 16       		.byte	0x16
 550 012c 77000000 		.4byte	0x77
 551 0130 02       		.uleb128 0x2
 552 0131 91       		.byte	0x91
 553 0132 76       		.sleb128 -10
 554 0133 07       		.uleb128 0x7
 555 0134 13000000 		.4byte	.LASF25
 556 0138 01       		.byte	0x1
 557 0139 17       		.byte	0x17
 558 013a 77000000 		.4byte	0x77
 559 013e 02       		.uleb128 0x2
 560 013f 91       		.byte	0x91
 561 0140 74       		.sleb128 -12
 562 0141 07       		.uleb128 0x7
 563 0142 1A000000 		.4byte	.LASF26
 564 0146 01       		.byte	0x1
 565 0147 18       		.byte	0x18
 566 0148 77000000 		.4byte	0x77
 567 014c 02       		.uleb128 0x2
 568 014d 91       		.byte	0x91
 569 014e 72       		.sleb128 -14
 570 014f 00       		.byte	0
 571 0150 08       		.uleb128 0x8
 572 0151 8D010000 		.4byte	.LASF27
 573 0155 01       		.byte	0x1
 574 0156 31       		.byte	0x31
 575 0157 5D000000 		.4byte	0x5d
 576 015b 00000000 		.4byte	.LFB36
 577 015f 44000000 		.4byte	.LFE36-.LFB36
 578 0163 01       		.uleb128 0x1
 579 0164 9C       		.byte	0x9c
 580 0165 8B010000 		.4byte	0x18b
 581 0169 09       		.uleb128 0x9
 582 016a 6900     		.ascii	"i\000"
 583 016c 01       		.byte	0x1
 584 016d 33       		.byte	0x33
 585 016e 77000000 		.4byte	0x77
 586 0172 0A       		.uleb128 0xa
 587 0173 7800     		.ascii	"x\000"
 588 0175 01       		.byte	0x1
 589 0176 34       		.byte	0x34
 590 0177 77000000 		.4byte	0x77
 591 017b 02       		.uleb128 0x2
 592 017c 91       		.byte	0x91
 593 017d 76       		.sleb128 -10
ARM GAS  C:\Users\quint\AppData\Local\Temp\ccshE9pX.s 			page 13


 594 017e 0A       		.uleb128 0xa
 595 017f 7900     		.ascii	"y\000"
 596 0181 01       		.byte	0x1
 597 0182 35       		.byte	0x35
 598 0183 77000000 		.4byte	0x77
 599 0187 02       		.uleb128 0x2
 600 0188 91       		.byte	0x91
 601 0189 74       		.sleb128 -12
 602 018a 00       		.byte	0
 603 018b 0B       		.uleb128 0xb
 604 018c A1010000 		.4byte	0x1a1
 605 0190 A1010000 		.4byte	0x1a1
 606 0194 0C       		.uleb128 0xc
 607 0195 9F000000 		.4byte	0x9f
 608 0199 60       		.byte	0x60
 609 019a 0C       		.uleb128 0xc
 610 019b 9F000000 		.4byte	0x9f
 611 019f 0F       		.byte	0xf
 612 01a0 00       		.byte	0
 613 01a1 0D       		.uleb128 0xd
 614 01a2 6B000000 		.4byte	0x6b
 615 01a6 0E       		.uleb128 0xe
 616 01a7 4B000000 		.4byte	.LASF31
 617 01ab 03       		.byte	0x3
 618 01ac 42       		.byte	0x42
 619 01ad B7010000 		.4byte	0x1b7
 620 01b1 05       		.uleb128 0x5
 621 01b2 03       		.byte	0x3
 622 01b3 00000000 		.4byte	GLCD_FONT8x16
 623 01b7 0D       		.uleb128 0xd
 624 01b8 8B010000 		.4byte	0x18b
 625 01bc 00       		.byte	0
 626              		.section	.debug_abbrev,"",%progbits
 627              	.Ldebug_abbrev0:
 628 0000 01       		.uleb128 0x1
 629 0001 11       		.uleb128 0x11
 630 0002 01       		.byte	0x1
 631 0003 25       		.uleb128 0x25
 632 0004 0E       		.uleb128 0xe
 633 0005 13       		.uleb128 0x13
 634 0006 0B       		.uleb128 0xb
 635 0007 03       		.uleb128 0x3
 636 0008 0E       		.uleb128 0xe
 637 0009 1B       		.uleb128 0x1b
 638 000a 0E       		.uleb128 0xe
 639 000b 55       		.uleb128 0x55
 640 000c 17       		.uleb128 0x17
 641 000d 11       		.uleb128 0x11
 642 000e 01       		.uleb128 0x1
 643 000f 10       		.uleb128 0x10
 644 0010 17       		.uleb128 0x17
 645 0011 00       		.byte	0
 646 0012 00       		.byte	0
 647 0013 02       		.uleb128 0x2
 648 0014 24       		.uleb128 0x24
 649 0015 00       		.byte	0
 650 0016 0B       		.uleb128 0xb
ARM GAS  C:\Users\quint\AppData\Local\Temp\ccshE9pX.s 			page 14


 651 0017 0B       		.uleb128 0xb
 652 0018 3E       		.uleb128 0x3e
 653 0019 0B       		.uleb128 0xb
 654 001a 03       		.uleb128 0x3
 655 001b 0E       		.uleb128 0xe
 656 001c 00       		.byte	0
 657 001d 00       		.byte	0
 658 001e 03       		.uleb128 0x3
 659 001f 24       		.uleb128 0x24
 660 0020 00       		.byte	0
 661 0021 0B       		.uleb128 0xb
 662 0022 0B       		.uleb128 0xb
 663 0023 3E       		.uleb128 0x3e
 664 0024 0B       		.uleb128 0xb
 665 0025 03       		.uleb128 0x3
 666 0026 08       		.uleb128 0x8
 667 0027 00       		.byte	0
 668 0028 00       		.byte	0
 669 0029 04       		.uleb128 0x4
 670 002a 16       		.uleb128 0x16
 671 002b 00       		.byte	0
 672 002c 03       		.uleb128 0x3
 673 002d 0E       		.uleb128 0xe
 674 002e 3A       		.uleb128 0x3a
 675 002f 0B       		.uleb128 0xb
 676 0030 3B       		.uleb128 0x3b
 677 0031 05       		.uleb128 0x5
 678 0032 49       		.uleb128 0x49
 679 0033 13       		.uleb128 0x13
 680 0034 00       		.byte	0
 681 0035 00       		.byte	0
 682 0036 05       		.uleb128 0x5
 683 0037 2E       		.uleb128 0x2e
 684 0038 01       		.byte	0x1
 685 0039 3F       		.uleb128 0x3f
 686 003a 19       		.uleb128 0x19
 687 003b 03       		.uleb128 0x3
 688 003c 0E       		.uleb128 0xe
 689 003d 3A       		.uleb128 0x3a
 690 003e 0B       		.uleb128 0xb
 691 003f 3B       		.uleb128 0x3b
 692 0040 0B       		.uleb128 0xb
 693 0041 27       		.uleb128 0x27
 694 0042 19       		.uleb128 0x19
 695 0043 11       		.uleb128 0x11
 696 0044 01       		.uleb128 0x1
 697 0045 12       		.uleb128 0x12
 698 0046 06       		.uleb128 0x6
 699 0047 40       		.uleb128 0x40
 700 0048 18       		.uleb128 0x18
 701 0049 9642     		.uleb128 0x2116
 702 004b 19       		.uleb128 0x19
 703 004c 01       		.uleb128 0x1
 704 004d 13       		.uleb128 0x13
 705 004e 00       		.byte	0
 706 004f 00       		.byte	0
 707 0050 06       		.uleb128 0x6
ARM GAS  C:\Users\quint\AppData\Local\Temp\ccshE9pX.s 			page 15


 708 0051 05       		.uleb128 0x5
 709 0052 00       		.byte	0
 710 0053 03       		.uleb128 0x3
 711 0054 0E       		.uleb128 0xe
 712 0055 3A       		.uleb128 0x3a
 713 0056 0B       		.uleb128 0xb
 714 0057 3B       		.uleb128 0x3b
 715 0058 0B       		.uleb128 0xb
 716 0059 49       		.uleb128 0x49
 717 005a 13       		.uleb128 0x13
 718 005b 02       		.uleb128 0x2
 719 005c 18       		.uleb128 0x18
 720 005d 00       		.byte	0
 721 005e 00       		.byte	0
 722 005f 07       		.uleb128 0x7
 723 0060 34       		.uleb128 0x34
 724 0061 00       		.byte	0
 725 0062 03       		.uleb128 0x3
 726 0063 0E       		.uleb128 0xe
 727 0064 3A       		.uleb128 0x3a
 728 0065 0B       		.uleb128 0xb
 729 0066 3B       		.uleb128 0x3b
 730 0067 0B       		.uleb128 0xb
 731 0068 49       		.uleb128 0x49
 732 0069 13       		.uleb128 0x13
 733 006a 02       		.uleb128 0x2
 734 006b 18       		.uleb128 0x18
 735 006c 00       		.byte	0
 736 006d 00       		.byte	0
 737 006e 08       		.uleb128 0x8
 738 006f 2E       		.uleb128 0x2e
 739 0070 01       		.byte	0x1
 740 0071 3F       		.uleb128 0x3f
 741 0072 19       		.uleb128 0x19
 742 0073 03       		.uleb128 0x3
 743 0074 0E       		.uleb128 0xe
 744 0075 3A       		.uleb128 0x3a
 745 0076 0B       		.uleb128 0xb
 746 0077 3B       		.uleb128 0x3b
 747 0078 0B       		.uleb128 0xb
 748 0079 49       		.uleb128 0x49
 749 007a 13       		.uleb128 0x13
 750 007b 11       		.uleb128 0x11
 751 007c 01       		.uleb128 0x1
 752 007d 12       		.uleb128 0x12
 753 007e 06       		.uleb128 0x6
 754 007f 40       		.uleb128 0x40
 755 0080 18       		.uleb128 0x18
 756 0081 9642     		.uleb128 0x2116
 757 0083 19       		.uleb128 0x19
 758 0084 01       		.uleb128 0x1
 759 0085 13       		.uleb128 0x13
 760 0086 00       		.byte	0
 761 0087 00       		.byte	0
 762 0088 09       		.uleb128 0x9
 763 0089 34       		.uleb128 0x34
 764 008a 00       		.byte	0
ARM GAS  C:\Users\quint\AppData\Local\Temp\ccshE9pX.s 			page 16


 765 008b 03       		.uleb128 0x3
 766 008c 08       		.uleb128 0x8
 767 008d 3A       		.uleb128 0x3a
 768 008e 0B       		.uleb128 0xb
 769 008f 3B       		.uleb128 0x3b
 770 0090 0B       		.uleb128 0xb
 771 0091 49       		.uleb128 0x49
 772 0092 13       		.uleb128 0x13
 773 0093 00       		.byte	0
 774 0094 00       		.byte	0
 775 0095 0A       		.uleb128 0xa
 776 0096 34       		.uleb128 0x34
 777 0097 00       		.byte	0
 778 0098 03       		.uleb128 0x3
 779 0099 08       		.uleb128 0x8
 780 009a 3A       		.uleb128 0x3a
 781 009b 0B       		.uleb128 0xb
 782 009c 3B       		.uleb128 0x3b
 783 009d 0B       		.uleb128 0xb
 784 009e 49       		.uleb128 0x49
 785 009f 13       		.uleb128 0x13
 786 00a0 02       		.uleb128 0x2
 787 00a1 18       		.uleb128 0x18
 788 00a2 00       		.byte	0
 789 00a3 00       		.byte	0
 790 00a4 0B       		.uleb128 0xb
 791 00a5 01       		.uleb128 0x1
 792 00a6 01       		.byte	0x1
 793 00a7 49       		.uleb128 0x49
 794 00a8 13       		.uleb128 0x13
 795 00a9 01       		.uleb128 0x1
 796 00aa 13       		.uleb128 0x13
 797 00ab 00       		.byte	0
 798 00ac 00       		.byte	0
 799 00ad 0C       		.uleb128 0xc
 800 00ae 21       		.uleb128 0x21
 801 00af 00       		.byte	0
 802 00b0 49       		.uleb128 0x49
 803 00b1 13       		.uleb128 0x13
 804 00b2 2F       		.uleb128 0x2f
 805 00b3 0B       		.uleb128 0xb
 806 00b4 00       		.byte	0
 807 00b5 00       		.byte	0
 808 00b6 0D       		.uleb128 0xd
 809 00b7 26       		.uleb128 0x26
 810 00b8 00       		.byte	0
 811 00b9 49       		.uleb128 0x49
 812 00ba 13       		.uleb128 0x13
 813 00bb 00       		.byte	0
 814 00bc 00       		.byte	0
 815 00bd 0E       		.uleb128 0xe
 816 00be 34       		.uleb128 0x34
 817 00bf 00       		.byte	0
 818 00c0 03       		.uleb128 0x3
 819 00c1 0E       		.uleb128 0xe
 820 00c2 3A       		.uleb128 0x3a
 821 00c3 0B       		.uleb128 0xb
ARM GAS  C:\Users\quint\AppData\Local\Temp\ccshE9pX.s 			page 17


 822 00c4 3B       		.uleb128 0x3b
 823 00c5 0B       		.uleb128 0xb
 824 00c6 49       		.uleb128 0x49
 825 00c7 13       		.uleb128 0x13
 826 00c8 3F       		.uleb128 0x3f
 827 00c9 19       		.uleb128 0x19
 828 00ca 02       		.uleb128 0x2
 829 00cb 18       		.uleb128 0x18
 830 00cc 00       		.byte	0
 831 00cd 00       		.byte	0
 832 00ce 00       		.byte	0
 833              		.section	.debug_aranges,"",%progbits
 834 0000 2C000000 		.4byte	0x2c
 835 0004 0200     		.2byte	0x2
 836 0006 00000000 		.4byte	.Ldebug_info0
 837 000a 04       		.byte	0x4
 838 000b 00       		.byte	0
 839 000c 0000     		.2byte	0
 840 000e 0000     		.2byte	0
 841 0010 00000000 		.4byte	.LFB34
 842 0014 04010000 		.4byte	.LFE34-.LFB34
 843 0018 00000000 		.4byte	.LFB35
 844 001c 10010000 		.4byte	.LFE35-.LFB35
 845 0020 00000000 		.4byte	.LFB36
 846 0024 44000000 		.4byte	.LFE36-.LFB36
 847 0028 00000000 		.4byte	0
 848 002c 00000000 		.4byte	0
 849              		.section	.debug_ranges,"",%progbits
 850              	.Ldebug_ranges0:
 851 0000 00000000 		.4byte	.LFB34
 852 0004 04010000 		.4byte	.LFE34
 853 0008 00000000 		.4byte	.LFB35
 854 000c 10010000 		.4byte	.LFE35
 855 0010 00000000 		.4byte	.LFB36
 856 0014 44000000 		.4byte	.LFE36
 857 0018 00000000 		.4byte	0
 858 001c 00000000 		.4byte	0
 859              		.section	.debug_line,"",%progbits
 860              	.Ldebug_line0:
 861 0000 CD000000 		.section	.debug_str,"MS",%progbits,1
 861      02004B00 
 861      00000201 
 861      FB0E0D00 
 861      01010101 
 862              	.LASF23:
 863 0000 63656E74 		.ascii	"centerAngle\000"
 863      6572416E 
 863      676C6500 
 864              	.LASF24:
 865 000c 636F756E 		.ascii	"count1\000"
 865      743100
 866              	.LASF25:
 867 0013 636F756E 		.ascii	"count2\000"
 867      743200
 868              	.LASF26:
 869 001a 636F756E 		.ascii	"count3\000"
 869      743300
ARM GAS  C:\Users\quint\AppData\Local\Temp\ccshE9pX.s 			page 18


 870              	.LASF22:
 871 0021 5041434D 		.ascii	"PACMAN\000"
 871      414E00
 872              	.LASF16:
 873 0028 63656E74 		.ascii	"centerX\000"
 873      65725800 
 874              	.LASF17:
 875 0030 63656E74 		.ascii	"centerY\000"
 875      65725900 
 876              	.LASF3:
 877 0038 73686F72 		.ascii	"short unsigned int\000"
 877      7420756E 
 877      7369676E 
 877      65642069 
 877      6E7400
 878              	.LASF31:
 879 004b 474C4344 		.ascii	"GLCD_FONT8x16\000"
 879      5F464F4E 
 879      54387831 
 879      3600
 880              	.LASF11:
 881 0059 666C6F61 		.ascii	"float\000"
 881      7400
 882              	.LASF1:
 883 005f 756E7369 		.ascii	"unsigned char\000"
 883      676E6564 
 883      20636861 
 883      7200
 884              	.LASF10:
 885 006d 696E7431 		.ascii	"int16\000"
 885      3600
 886              	.LASF5:
 887 0073 6C6F6E67 		.ascii	"long unsigned int\000"
 887      20756E73 
 887      69676E65 
 887      6420696E 
 887      7400
 888              	.LASF9:
 889 0085 75696E74 		.ascii	"uint8\000"
 889      3800
 890              	.LASF18:
 891 008b 616E676C 		.ascii	"angle\000"
 891      6500
 892              	.LASF28:
 893 0091 474E5520 		.ascii	"GNU C11 5.4.1 20160609 (release) [ARM/embedded-5-br"
 893      43313120 
 893      352E342E 
 893      31203230 
 893      31363036 
 894 00c4 616E6368 		.ascii	"anch revision 237715] -mcpu=cortex-m0 -mthumb -g -O"
 894      20726576 
 894      6973696F 
 894      6E203233 
 894      37373135 
 895 00f7 30202D66 		.ascii	"0 -ffunction-sections -ffat-lto-objects\000"
 895      66756E63 
 895      74696F6E 
ARM GAS  C:\Users\quint\AppData\Local\Temp\ccshE9pX.s 			page 19


 895      2D736563 
 895      74696F6E 
 896              	.LASF12:
 897 011f 646F7562 		.ascii	"double\000"
 897      6C6500
 898              	.LASF21:
 899 0126 474C4344 		.ascii	"GLCD_Draw_Line_Polar\000"
 899      5F447261 
 899      775F4C69 
 899      6E655F50 
 899      6F6C6172 
 900              	.LASF20:
 901 013b 636F6C6F 		.ascii	"color\000"
 901      7200
 902              	.LASF30:
 903 0141 443A5C47 		.ascii	"D:\\GIT\\Microcontroller System Design Projects\\HW"
 903      49545C4D 
 903      6963726F 
 903      636F6E74 
 903      726F6C6C 
 904 0171 20312D20 		.ascii	" 1- Pacman\\GLCD_Test1.cydsn\000"
 904      5061636D 
 904      616E5C47 
 904      4C43445F 
 904      54657374 
 905              	.LASF27:
 906 018d 6D61696E 		.ascii	"main\000"
 906      00
 907              	.LASF8:
 908 0192 756E7369 		.ascii	"unsigned int\000"
 908      676E6564 
 908      20696E74 
 908      00
 909              	.LASF7:
 910 019f 6C6F6E67 		.ascii	"long long unsigned int\000"
 910      206C6F6E 
 910      6720756E 
 910      7369676E 
 910      65642069 
 911              	.LASF15:
 912 01b6 73697A65 		.ascii	"sizetype\000"
 912      74797065 
 912      00
 913              	.LASF6:
 914 01bf 6C6F6E67 		.ascii	"long long int\000"
 914      206C6F6E 
 914      6720696E 
 914      7400
 915              	.LASF29:
 916 01cd 6D61696E 		.ascii	"main.c\000"
 916      2E6300
 917              	.LASF13:
 918 01d4 63686172 		.ascii	"char\000"
 918      00
 919              	.LASF2:
 920 01d9 73686F72 		.ascii	"short int\000"
 920      7420696E 
ARM GAS  C:\Users\quint\AppData\Local\Temp\ccshE9pX.s 			page 20


 920      7400
 921              	.LASF4:
 922 01e3 6C6F6E67 		.ascii	"long int\000"
 922      20696E74 
 922      00
 923              	.LASF14:
 924 01ec 6C6F6E67 		.ascii	"long double\000"
 924      20646F75 
 924      626C6500 
 925              	.LASF0:
 926 01f8 7369676E 		.ascii	"signed char\000"
 926      65642063 
 926      68617200 
 927              	.LASF19:
 928 0204 6C656E67 		.ascii	"length\000"
 928      746800
 929              		.ident	"GCC: (GNU Tools for ARM Embedded Processors) 5.4.1 20160609 (release) [ARM/embedded-5-bran
