ARM GAS  C:\Users\quint\AppData\Local\Temp\ccvfZmMc.s 			page 1


   1              		.syntax unified
   2              		.cpu cortex-m0
   3              		.fpu softvfp
   4              		.eabi_attribute 20, 1
   5              		.eabi_attribute 21, 1
   6              		.eabi_attribute 23, 3
   7              		.eabi_attribute 24, 1
   8              		.eabi_attribute 25, 1
   9              		.eabi_attribute 26, 1
  10              		.eabi_attribute 30, 6
  11              		.eabi_attribute 34, 0
  12              		.eabi_attribute 18, 4
  13              		.thumb
  14              		.syntax unified
  15              		.file	"main.c"
  16              		.text
  17              	.Ltext0:
  18              		.cfi_sections	.debug_frame
  19              		.comm	GLCD_FONT8x16,1552,4
  20              		.section	.text.pretty_lines,"ax",%progbits
  21              		.align	2
  22              		.global	pretty_lines
  23              		.code	16
  24              		.thumb_func
  25              		.type	pretty_lines, %function
  26              	pretty_lines:
  27              	.LFB34:
  28              		.file 1 "main.c"
   1:main.c        **** 
   2:main.c        **** // Test program to confirm operation of PSoC 4 Pioneer Board and Graphical LCD
   3:main.c        **** // For documentation on the GLCD Library: Click on the Datasheets tab in the Workspace Explorer and
   4:main.c        **** //        API documentation is at the bottom of the Datasheet
   5:main.c        **** 
   6:main.c        **** #include <device.h>
   7:main.c        **** #include <header01.h>
   8:main.c        **** #include <math.h>
   9:main.c        **** 
  10:main.c        **** 
  11:main.c        **** void pretty_lines(int color){
  29              		.loc 1 11 0
  30              		.cfi_startproc
  31              		@ args = 0, pretend = 0, frame = 16
  32              		@ frame_needed = 1, uses_anonymous_args = 0
  33 0000 80B5     		push	{r7, lr}
  34              		.cfi_def_cfa_offset 8
  35              		.cfi_offset 7, -8
  36              		.cfi_offset 14, -4
  37 0002 86B0     		sub	sp, sp, #24
  38              		.cfi_def_cfa_offset 32
  39 0004 02AF     		add	r7, sp, #8
  40              		.cfi_def_cfa 7, 24
  41 0006 7860     		str	r0, [r7, #4]
  12:main.c        ****     // make some decorations around the edges by drawing lines
  13:main.c        ****     int i;
  14:main.c        ****     for (i = 0; i < 126; i+=5){
  42              		.loc 1 14 0
  43 0008 0023     		movs	r3, #0
ARM GAS  C:\Users\quint\AppData\Local\Temp\ccvfZmMc.s 			page 2


  44 000a FB60     		str	r3, [r7, #12]
  45 000c 1AE0     		b	.L2
  46              	.L3:
  15:main.c        ****         GLCD_DrawLine(2+i,2,126,2+i, color);
  47              		.loc 1 15 0 discriminator 3
  48 000e FB68     		ldr	r3, [r7, #12]
  49 0010 981C     		adds	r0, r3, #2
  50 0012 FB68     		ldr	r3, [r7, #12]
  51 0014 9A1C     		adds	r2, r3, #2
  52 0016 7B68     		ldr	r3, [r7, #4]
  53 0018 0093     		str	r3, [sp]
  54 001a 1300     		movs	r3, r2
  55 001c 7E22     		movs	r2, #126
  56 001e 0221     		movs	r1, #2
  57 0020 FFF7FEFF 		bl	GLCD_DrawLine
  16:main.c        ****         GLCD_DrawLine(126-i,126,2,126-i, color);
  58              		.loc 1 16 0 discriminator 3
  59 0024 FB68     		ldr	r3, [r7, #12]
  60 0026 7E22     		movs	r2, #126
  61 0028 D01A     		subs	r0, r2, r3
  62 002a FB68     		ldr	r3, [r7, #12]
  63 002c 7E22     		movs	r2, #126
  64 002e D21A     		subs	r2, r2, r3
  65 0030 7B68     		ldr	r3, [r7, #4]
  66 0032 0093     		str	r3, [sp]
  67 0034 1300     		movs	r3, r2
  68 0036 0222     		movs	r2, #2
  69 0038 7E21     		movs	r1, #126
  70 003a FFF7FEFF 		bl	GLCD_DrawLine
  14:main.c        ****         GLCD_DrawLine(2+i,2,126,2+i, color);
  71              		.loc 1 14 0 discriminator 3
  72 003e FB68     		ldr	r3, [r7, #12]
  73 0040 0533     		adds	r3, r3, #5
  74 0042 FB60     		str	r3, [r7, #12]
  75              	.L2:
  14:main.c        ****         GLCD_DrawLine(2+i,2,126,2+i, color);
  76              		.loc 1 14 0 is_stmt 0 discriminator 1
  77 0044 FB68     		ldr	r3, [r7, #12]
  78 0046 7D2B     		cmp	r3, #125
  79 0048 E1DD     		ble	.L3
  17:main.c        ****     }
  18:main.c        **** }
  80              		.loc 1 18 0 is_stmt 1
  81 004a C046     		nop
  82 004c BD46     		mov	sp, r7
  83 004e 04B0     		add	sp, sp, #16
  84              		@ sp needed
  85 0050 80BD     		pop	{r7, pc}
  86              		.cfi_endproc
  87              	.LFE34:
  88              		.size	pretty_lines, .-pretty_lines
  89              		.global	__aeabi_i2d
  90              		.global	__aeabi_dmul
  91              		.global	__aeabi_ddiv
  92              		.global	__aeabi_dadd
  93              		.global	__aeabi_d2iz
  94 0052 C046     		.section	.text.GLCD_Draw_Line_Polar,"ax",%progbits
ARM GAS  C:\Users\quint\AppData\Local\Temp\ccvfZmMc.s 			page 3


  95              		.align	2
  96              		.global	GLCD_Draw_Line_Polar
  97              		.code	16
  98              		.thumb_func
  99              		.type	GLCD_Draw_Line_Polar, %function
 100              	GLCD_Draw_Line_Polar:
 101              	.LFB35:
  19:main.c        **** 
  20:main.c        ****  void GLCD_Draw_Line_Polar(int centerX, int centerY, int angle, int length, int color)
  21:main.c        **** {
 102              		.loc 1 21 0
 103              		.cfi_startproc
 104              		@ args = 4, pretend = 0, frame = 16
 105              		@ frame_needed = 1, uses_anonymous_args = 0
 106 0000 F0B5     		push	{r4, r5, r6, r7, lr}
 107              		.cfi_def_cfa_offset 20
 108              		.cfi_offset 4, -20
 109              		.cfi_offset 5, -16
 110              		.cfi_offset 6, -12
 111              		.cfi_offset 7, -8
 112              		.cfi_offset 14, -4
 113 0002 87B0     		sub	sp, sp, #28
 114              		.cfi_def_cfa_offset 48
 115 0004 02AF     		add	r7, sp, #8
 116              		.cfi_def_cfa 7, 40
 117 0006 F860     		str	r0, [r7, #12]
 118 0008 B960     		str	r1, [r7, #8]
 119 000a 7A60     		str	r2, [r7, #4]
 120 000c 3B60     		str	r3, [r7]
  22:main.c        ****     GLCD_DrawLine(centerX,centerY,(length*cos(((angle*M_PI))/180))+centerX,(length*sin(((angle*M_PI
 121              		.loc 1 22 0
 122 000e 3868     		ldr	r0, [r7]
 123 0010 FFF7FEFF 		bl	__aeabi_i2d
 124 0014 0400     		movs	r4, r0
 125 0016 0D00     		movs	r5, r1
 126 0018 7868     		ldr	r0, [r7, #4]
 127 001a FFF7FEFF 		bl	__aeabi_i2d
 128 001e 364A     		ldr	r2, .L5
 129 0020 364B     		ldr	r3, .L5+4
 130 0022 FFF7FEFF 		bl	__aeabi_dmul
 131 0026 0200     		movs	r2, r0
 132 0028 0B00     		movs	r3, r1
 133 002a 1000     		movs	r0, r2
 134 002c 1900     		movs	r1, r3
 135 002e 0022     		movs	r2, #0
 136 0030 334B     		ldr	r3, .L5+8
 137 0032 FFF7FEFF 		bl	__aeabi_ddiv
 138 0036 0200     		movs	r2, r0
 139 0038 0B00     		movs	r3, r1
 140 003a 1000     		movs	r0, r2
 141 003c 1900     		movs	r1, r3
 142 003e FFF7FEFF 		bl	cos
 143 0042 0200     		movs	r2, r0
 144 0044 0B00     		movs	r3, r1
 145 0046 2000     		movs	r0, r4
 146 0048 2900     		movs	r1, r5
 147 004a FFF7FEFF 		bl	__aeabi_dmul
ARM GAS  C:\Users\quint\AppData\Local\Temp\ccvfZmMc.s 			page 4


 148 004e 0300     		movs	r3, r0
 149 0050 0C00     		movs	r4, r1
 150 0052 2500     		movs	r5, r4
 151 0054 1C00     		movs	r4, r3
 152 0056 F868     		ldr	r0, [r7, #12]
 153 0058 FFF7FEFF 		bl	__aeabi_i2d
 154 005c 0200     		movs	r2, r0
 155 005e 0B00     		movs	r3, r1
 156 0060 2000     		movs	r0, r4
 157 0062 2900     		movs	r1, r5
 158 0064 FFF7FEFF 		bl	__aeabi_dadd
 159 0068 0300     		movs	r3, r0
 160 006a 0C00     		movs	r4, r1
 161 006c 1800     		movs	r0, r3
 162 006e 2100     		movs	r1, r4
 163 0070 FFF7FEFF 		bl	__aeabi_d2iz
 164 0074 0600     		movs	r6, r0
 165 0076 3868     		ldr	r0, [r7]
 166 0078 FFF7FEFF 		bl	__aeabi_i2d
 167 007c 0400     		movs	r4, r0
 168 007e 0D00     		movs	r5, r1
 169 0080 7868     		ldr	r0, [r7, #4]
 170 0082 FFF7FEFF 		bl	__aeabi_i2d
 171 0086 1C4A     		ldr	r2, .L5
 172 0088 1C4B     		ldr	r3, .L5+4
 173 008a FFF7FEFF 		bl	__aeabi_dmul
 174 008e 0200     		movs	r2, r0
 175 0090 0B00     		movs	r3, r1
 176 0092 1000     		movs	r0, r2
 177 0094 1900     		movs	r1, r3
 178 0096 0022     		movs	r2, #0
 179 0098 194B     		ldr	r3, .L5+8
 180 009a FFF7FEFF 		bl	__aeabi_ddiv
 181 009e 0200     		movs	r2, r0
 182 00a0 0B00     		movs	r3, r1
 183 00a2 1000     		movs	r0, r2
 184 00a4 1900     		movs	r1, r3
 185 00a6 FFF7FEFF 		bl	sin
 186 00aa 0200     		movs	r2, r0
 187 00ac 0B00     		movs	r3, r1
 188 00ae 2000     		movs	r0, r4
 189 00b0 2900     		movs	r1, r5
 190 00b2 FFF7FEFF 		bl	__aeabi_dmul
 191 00b6 0300     		movs	r3, r0
 192 00b8 0C00     		movs	r4, r1
 193 00ba 2500     		movs	r5, r4
 194 00bc 1C00     		movs	r4, r3
 195 00be B868     		ldr	r0, [r7, #8]
 196 00c0 FFF7FEFF 		bl	__aeabi_i2d
 197 00c4 0200     		movs	r2, r0
 198 00c6 0B00     		movs	r3, r1
 199 00c8 2000     		movs	r0, r4
 200 00ca 2900     		movs	r1, r5
 201 00cc FFF7FEFF 		bl	__aeabi_dadd
 202 00d0 0300     		movs	r3, r0
 203 00d2 0C00     		movs	r4, r1
 204 00d4 1800     		movs	r0, r3
ARM GAS  C:\Users\quint\AppData\Local\Temp\ccvfZmMc.s 			page 5


 205 00d6 2100     		movs	r1, r4
 206 00d8 FFF7FEFF 		bl	__aeabi_d2iz
 207 00dc 0200     		movs	r2, r0
 208 00de B968     		ldr	r1, [r7, #8]
 209 00e0 F868     		ldr	r0, [r7, #12]
 210 00e2 BB6A     		ldr	r3, [r7, #40]
 211 00e4 0093     		str	r3, [sp]
 212 00e6 1300     		movs	r3, r2
 213 00e8 3200     		movs	r2, r6
 214 00ea FFF7FEFF 		bl	GLCD_DrawLine
  23:main.c        ****   
  24:main.c        **** }
 215              		.loc 1 24 0
 216 00ee C046     		nop
 217 00f0 BD46     		mov	sp, r7
 218 00f2 05B0     		add	sp, sp, #20
 219              		@ sp needed
 220 00f4 F0BD     		pop	{r4, r5, r6, r7, pc}
 221              	.L6:
 222 00f6 C046     		.align	2
 223              	.L5:
 224 00f8 182D4454 		.word	1413754136
 225 00fc FB210940 		.word	1074340347
 226 0100 00806640 		.word	1080459264
 227              		.cfi_endproc
 228              	.LFE35:
 229              		.size	GLCD_Draw_Line_Polar, .-GLCD_Draw_Line_Polar
 230              		.section	.text.main,"ax",%progbits
 231              		.align	2
 232              		.global	main
 233              		.code	16
 234              		.thumb_func
 235              		.type	main, %function
 236              	main:
 237              	.LFB36:
  25:main.c        **** 
  26:main.c        **** int main()
  27:main.c        **** {
 238              		.loc 1 27 0
 239              		.cfi_startproc
 240              		@ args = 0, pretend = 0, frame = 16
 241              		@ frame_needed = 1, uses_anonymous_args = 0
 242 0000 80B5     		push	{r7, lr}
 243              		.cfi_def_cfa_offset 8
 244              		.cfi_offset 7, -8
 245              		.cfi_offset 14, -4
 246 0002 86B0     		sub	sp, sp, #24
 247              		.cfi_def_cfa_offset 32
 248 0004 02AF     		add	r7, sp, #8
 249              		.cfi_def_cfa 7, 24
  28:main.c        ****     int16 i;       // counter variable -- int16 will take up less room than int32
  29:main.c        ****     int16 x = CENTER;  // x and y coordinates for center of circle--- This is defined in the header
 250              		.loc 1 29 0
 251 0006 BB1D     		adds	r3, r7, #6
 252 0008 3E22     		movs	r2, #62
 253 000a 1A80     		strh	r2, [r3]
  30:main.c        ****     int16 y = 62;
ARM GAS  C:\Users\quint\AppData\Local\Temp\ccvfZmMc.s 			page 6


 254              		.loc 1 30 0
 255 000c 3B1D     		adds	r3, r7, #4
 256 000e 3E22     		movs	r2, #62
 257 0010 1A80     		strh	r2, [r3]
  31:main.c        ****     int16 count1;
  32:main.c        ****     int16 count2;
  33:main.c        ****     int16 count3;
  34:main.c        **** 	
  35:main.c        **** 	// Initialize LCD
  36:main.c        ****     GLCD_Start();  
 258              		.loc 1 36 0
 259 0012 FFF7FEFF 		bl	GLCD_Start
  37:main.c        ****     Backlight_Write(1);       // turn on backlight
 260              		.loc 1 37 0
 261 0016 0120     		movs	r0, #1
 262 0018 FFF7FEFF 		bl	Backlight_Write
  38:main.c        ****     
  39:main.c        ****     LED_Blue_Write(1); LED_Green_Write(1); LED_Red_Write(1); // turn off all LEDs (1 means off)
 263              		.loc 1 39 0
 264 001c 0120     		movs	r0, #1
 265 001e FFF7FEFF 		bl	LED_Blue_Write
 266 0022 0120     		movs	r0, #1
 267 0024 FFF7FEFF 		bl	LED_Green_Write
 268 0028 0120     		movs	r0, #1
 269 002a FFF7FEFF 		bl	LED_Red_Write
  40:main.c        ****  
  41:main.c        ****     
  42:main.c        ****     // clear LCD to crimson color
  43:main.c        ****     GLCD_Clear(GLCD_CRIMSON);
 270              		.loc 1 43 0
 271 002e 524B     		ldr	r3, .L17
 272 0030 1800     		movs	r0, r3
 273 0032 FFF7FEFF 		bl	GLCD_Clear
  44:main.c        ****         
  45:main.c        ****     // Draw a filled circle in maroon by drawing a series of circles of increasing radius 
  46:main.c        ****     for (i = 50; i<52; i++) {
 274              		.loc 1 46 0
 275 0036 0E23     		movs	r3, #14
 276 0038 FB18     		adds	r3, r7, r3
 277 003a 3222     		movs	r2, #50
 278 003c 1A80     		strh	r2, [r3]
 279 003e 17E0     		b	.L8
 280              	.L9:
  47:main.c        ****         GLCD_DrawCircle (x,y,i, GLCD_MAROON);
 281              		.loc 1 47 0 discriminator 3
 282 0040 BB1D     		adds	r3, r7, #6
 283 0042 0020     		movs	r0, #0
 284 0044 185E     		ldrsh	r0, [r3, r0]
 285 0046 3B1D     		adds	r3, r7, #4
 286 0048 0021     		movs	r1, #0
 287 004a 595E     		ldrsh	r1, [r3, r1]
 288 004c 0E23     		movs	r3, #14
 289 004e FB18     		adds	r3, r7, r3
 290 0050 0022     		movs	r2, #0
 291 0052 9A5E     		ldrsh	r2, [r3, r2]
 292 0054 8023     		movs	r3, #128
 293 0056 1B01     		lsls	r3, r3, #4
ARM GAS  C:\Users\quint\AppData\Local\Temp\ccvfZmMc.s 			page 7


 294 0058 FFF7FEFF 		bl	GLCD_DrawCircle
  46:main.c        ****         GLCD_DrawCircle (x,y,i, GLCD_MAROON);
 295              		.loc 1 46 0 discriminator 3
 296 005c 0E23     		movs	r3, #14
 297 005e FB18     		adds	r3, r7, r3
 298 0060 0022     		movs	r2, #0
 299 0062 9B5E     		ldrsh	r3, [r3, r2]
 300 0064 9BB2     		uxth	r3, r3
 301 0066 0133     		adds	r3, r3, #1
 302 0068 9AB2     		uxth	r2, r3
 303 006a 0E23     		movs	r3, #14
 304 006c FB18     		adds	r3, r7, r3
 305 006e 1A80     		strh	r2, [r3]
 306              	.L8:
  46:main.c        ****         GLCD_DrawCircle (x,y,i, GLCD_MAROON);
 307              		.loc 1 46 0 is_stmt 0 discriminator 1
 308 0070 0E23     		movs	r3, #14
 309 0072 FB18     		adds	r3, r7, r3
 310 0074 0022     		movs	r2, #0
 311 0076 9B5E     		ldrsh	r3, [r3, r2]
 312 0078 332B     		cmp	r3, #51
 313 007a E1DD     		ble	.L9
  48:main.c        ****     }
  49:main.c        ****     
  50:main.c        ****      for( count1=0; count1<360;count1++)
 314              		.loc 1 50 0 is_stmt 1
 315 007c 0C23     		movs	r3, #12
 316 007e FB18     		adds	r3, r7, r3
 317 0080 0022     		movs	r2, #0
 318 0082 1A80     		strh	r2, [r3]
 319 0084 15E0     		b	.L10
 320              	.L11:
  51:main.c        ****     {
  52:main.c        ****          GLCD_Draw_Line_Polar(CENTER, CENTER,count1 , 50,  GLCD_YELLOW);   //Thins draws the origin
 321              		.loc 1 52 0 discriminator 3
 322 0086 0C23     		movs	r3, #12
 323 0088 FB18     		adds	r3, r7, r3
 324 008a 0022     		movs	r2, #0
 325 008c 9A5E     		ldrsh	r2, [r3, r2]
 326 008e FF23     		movs	r3, #255
 327 0090 1B01     		lsls	r3, r3, #4
 328 0092 0093     		str	r3, [sp]
 329 0094 3223     		movs	r3, #50
 330 0096 3E21     		movs	r1, #62
 331 0098 3E20     		movs	r0, #62
 332 009a FFF7FEFF 		bl	GLCD_Draw_Line_Polar
  50:main.c        ****     {
 333              		.loc 1 50 0 discriminator 3
 334 009e 0C23     		movs	r3, #12
 335 00a0 FB18     		adds	r3, r7, r3
 336 00a2 0022     		movs	r2, #0
 337 00a4 9B5E     		ldrsh	r3, [r3, r2]
 338 00a6 9BB2     		uxth	r3, r3
 339 00a8 0133     		adds	r3, r3, #1
 340 00aa 9AB2     		uxth	r2, r3
 341 00ac 0C23     		movs	r3, #12
 342 00ae FB18     		adds	r3, r7, r3
ARM GAS  C:\Users\quint\AppData\Local\Temp\ccvfZmMc.s 			page 8


 343 00b0 1A80     		strh	r2, [r3]
 344              	.L10:
  50:main.c        ****     {
 345              		.loc 1 50 0 is_stmt 0 discriminator 1
 346 00b2 0C23     		movs	r3, #12
 347 00b4 FB18     		adds	r3, r7, r3
 348 00b6 0022     		movs	r2, #0
 349 00b8 9A5E     		ldrsh	r2, [r3, r2]
 350 00ba 6823     		movs	r3, #104
 351 00bc FF33     		adds	r3, r3, #255
 352 00be 9A42     		cmp	r2, r3
 353 00c0 E1DD     		ble	.L11
 354              	.L16:
  53:main.c        ****     }
  54:main.c        ****     while(1)
  55:main.c        ****     {
  56:main.c        ****    
  57:main.c        ****     for(count2=0;count2<=30;count2++)
 355              		.loc 1 57 0 is_stmt 1
 356 00c2 0A23     		movs	r3, #10
 357 00c4 FB18     		adds	r3, r7, r3
 358 00c6 0022     		movs	r2, #0
 359 00c8 1A80     		strh	r2, [r3]
 360 00ca 20E0     		b	.L12
 361              	.L13:
  58:main.c        ****     {
  59:main.c        ****          GLCD_Draw_Line_Polar(CENTER, CENTER,-count2 , 50,  GLCD_BLACK);  //Draws the black mouth
 362              		.loc 1 59 0 discriminator 3
 363 00cc 0A23     		movs	r3, #10
 364 00ce FB18     		adds	r3, r7, r3
 365 00d0 0022     		movs	r2, #0
 366 00d2 9B5E     		ldrsh	r3, [r3, r2]
 367 00d4 5A42     		rsbs	r2, r3, #0
 368 00d6 0023     		movs	r3, #0
 369 00d8 0093     		str	r3, [sp]
 370 00da 3223     		movs	r3, #50
 371 00dc 3E21     		movs	r1, #62
 372 00de 3E20     		movs	r0, #62
 373 00e0 FFF7FEFF 		bl	GLCD_Draw_Line_Polar
  60:main.c        ****          GLCD_Draw_Line_Polar(CENTER, CENTER,count2 , 50,  GLCD_BLACK);  //Draws the black mouth
 374              		.loc 1 60 0 discriminator 3
 375 00e4 0A23     		movs	r3, #10
 376 00e6 FB18     		adds	r3, r7, r3
 377 00e8 0022     		movs	r2, #0
 378 00ea 9A5E     		ldrsh	r2, [r3, r2]
 379 00ec 0023     		movs	r3, #0
 380 00ee 0093     		str	r3, [sp]
 381 00f0 3223     		movs	r3, #50
 382 00f2 3E21     		movs	r1, #62
 383 00f4 3E20     		movs	r0, #62
 384 00f6 FFF7FEFF 		bl	GLCD_Draw_Line_Polar
  57:main.c        ****     {
 385              		.loc 1 57 0 discriminator 3
 386 00fa 0A23     		movs	r3, #10
 387 00fc FB18     		adds	r3, r7, r3
 388 00fe 0022     		movs	r2, #0
 389 0100 9B5E     		ldrsh	r3, [r3, r2]
ARM GAS  C:\Users\quint\AppData\Local\Temp\ccvfZmMc.s 			page 9


 390 0102 9BB2     		uxth	r3, r3
 391 0104 0133     		adds	r3, r3, #1
 392 0106 9AB2     		uxth	r2, r3
 393 0108 0A23     		movs	r3, #10
 394 010a FB18     		adds	r3, r7, r3
 395 010c 1A80     		strh	r2, [r3]
 396              	.L12:
  57:main.c        ****     {
 397              		.loc 1 57 0 is_stmt 0 discriminator 1
 398 010e 0A23     		movs	r3, #10
 399 0110 FB18     		adds	r3, r7, r3
 400 0112 0022     		movs	r2, #0
 401 0114 9B5E     		ldrsh	r3, [r3, r2]
 402 0116 1E2B     		cmp	r3, #30
 403 0118 D8DD     		ble	.L13
  61:main.c        ****     }
  62:main.c        ****      for( count3=30;count3>=0;count3--)
 404              		.loc 1 62 0 is_stmt 1
 405 011a 0823     		movs	r3, #8
 406 011c FB18     		adds	r3, r7, r3
 407 011e 1E22     		movs	r2, #30
 408 0120 1A80     		strh	r2, [r3]
 409 0122 22E0     		b	.L14
 410              	.L15:
  63:main.c        ****     {
  64:main.c        ****          GLCD_Draw_Line_Polar(CENTER, CENTER,-count3 , 50,  GLCD_YELLOW);
 411              		.loc 1 64 0 discriminator 3
 412 0124 0823     		movs	r3, #8
 413 0126 FB18     		adds	r3, r7, r3
 414 0128 0022     		movs	r2, #0
 415 012a 9B5E     		ldrsh	r3, [r3, r2]
 416 012c 5A42     		rsbs	r2, r3, #0
 417 012e FF23     		movs	r3, #255
 418 0130 1B01     		lsls	r3, r3, #4
 419 0132 0093     		str	r3, [sp]
 420 0134 3223     		movs	r3, #50
 421 0136 3E21     		movs	r1, #62
 422 0138 3E20     		movs	r0, #62
 423 013a FFF7FEFF 		bl	GLCD_Draw_Line_Polar
  65:main.c        ****          GLCD_Draw_Line_Polar(CENTER, CENTER,count3 , 50,  GLCD_YELLOW);
 424              		.loc 1 65 0 discriminator 3
 425 013e 0823     		movs	r3, #8
 426 0140 FB18     		adds	r3, r7, r3
 427 0142 0022     		movs	r2, #0
 428 0144 9A5E     		ldrsh	r2, [r3, r2]
 429 0146 FF23     		movs	r3, #255
 430 0148 1B01     		lsls	r3, r3, #4
 431 014a 0093     		str	r3, [sp]
 432 014c 3223     		movs	r3, #50
 433 014e 3E21     		movs	r1, #62
 434 0150 3E20     		movs	r0, #62
 435 0152 FFF7FEFF 		bl	GLCD_Draw_Line_Polar
  62:main.c        ****     {
 436              		.loc 1 62 0 discriminator 3
 437 0156 0823     		movs	r3, #8
 438 0158 FB18     		adds	r3, r7, r3
 439 015a 0022     		movs	r2, #0
ARM GAS  C:\Users\quint\AppData\Local\Temp\ccvfZmMc.s 			page 10


 440 015c 9B5E     		ldrsh	r3, [r3, r2]
 441 015e 9BB2     		uxth	r3, r3
 442 0160 013B     		subs	r3, r3, #1
 443 0162 9AB2     		uxth	r2, r3
 444 0164 0823     		movs	r3, #8
 445 0166 FB18     		adds	r3, r7, r3
 446 0168 1A80     		strh	r2, [r3]
 447              	.L14:
  62:main.c        ****     {
 448              		.loc 1 62 0 is_stmt 0 discriminator 1
 449 016a 0823     		movs	r3, #8
 450 016c FB18     		adds	r3, r7, r3
 451 016e 0022     		movs	r2, #0
 452 0170 9B5E     		ldrsh	r3, [r3, r2]
 453 0172 002B     		cmp	r3, #0
 454 0174 D6DA     		bge	.L15
  66:main.c        ****     }
  67:main.c        ****     }
 455              		.loc 1 67 0 is_stmt 1
 456 0176 A4E7     		b	.L16
 457              	.L18:
 458              		.align	2
 459              	.L17:
 460 0178 130D0000 		.word	3347
 461              		.cfi_endproc
 462              	.LFE36:
 463              		.size	main, .-main
 464              		.text
 465              	.Letext0:
 466              		.file 2 "Generated_Source\\PSoC4/cytypes.h"
 467              		.file 3 "Generated_Source\\PSoC4/GLCD.h"
 468              		.section	.debug_info,"",%progbits
 469              	.Ldebug_info0:
 470 0000 C8010000 		.4byte	0x1c8
 471 0004 0400     		.2byte	0x4
 472 0006 00000000 		.4byte	.Ldebug_abbrev0
 473 000a 04       		.byte	0x4
 474 000b 01       		.uleb128 0x1
 475 000c 7E000000 		.4byte	.LASF27
 476 0010 0C       		.byte	0xc
 477 0011 BA010000 		.4byte	.LASF28
 478 0015 2E010000 		.4byte	.LASF29
 479 0019 00000000 		.4byte	.Ldebug_ranges0+0
 480 001d 00000000 		.4byte	0
 481 0021 00000000 		.4byte	.Ldebug_line0
 482 0025 02       		.uleb128 0x2
 483 0026 01       		.byte	0x1
 484 0027 06       		.byte	0x6
 485 0028 E5010000 		.4byte	.LASF0
 486 002c 02       		.uleb128 0x2
 487 002d 01       		.byte	0x1
 488 002e 08       		.byte	0x8
 489 002f 4C000000 		.4byte	.LASF1
 490 0033 02       		.uleb128 0x2
 491 0034 02       		.byte	0x2
 492 0035 05       		.byte	0x5
 493 0036 C6010000 		.4byte	.LASF2
ARM GAS  C:\Users\quint\AppData\Local\Temp\ccvfZmMc.s 			page 11


 494 003a 02       		.uleb128 0x2
 495 003b 02       		.byte	0x2
 496 003c 07       		.byte	0x7
 497 003d 25000000 		.4byte	.LASF3
 498 0041 02       		.uleb128 0x2
 499 0042 04       		.byte	0x4
 500 0043 05       		.byte	0x5
 501 0044 D0010000 		.4byte	.LASF4
 502 0048 02       		.uleb128 0x2
 503 0049 04       		.byte	0x4
 504 004a 07       		.byte	0x7
 505 004b 60000000 		.4byte	.LASF5
 506 004f 02       		.uleb128 0x2
 507 0050 08       		.byte	0x8
 508 0051 05       		.byte	0x5
 509 0052 AC010000 		.4byte	.LASF6
 510 0056 02       		.uleb128 0x2
 511 0057 08       		.byte	0x8
 512 0058 07       		.byte	0x7
 513 0059 8C010000 		.4byte	.LASF7
 514 005d 03       		.uleb128 0x3
 515 005e 04       		.byte	0x4
 516 005f 05       		.byte	0x5
 517 0060 696E7400 		.ascii	"int\000"
 518 0064 02       		.uleb128 0x2
 519 0065 04       		.byte	0x4
 520 0066 07       		.byte	0x7
 521 0067 7F010000 		.4byte	.LASF8
 522 006b 04       		.uleb128 0x4
 523 006c 72000000 		.4byte	.LASF9
 524 0070 02       		.byte	0x2
 525 0071 B901     		.2byte	0x1b9
 526 0073 2C000000 		.4byte	0x2c
 527 0077 04       		.uleb128 0x4
 528 0078 5A000000 		.4byte	.LASF10
 529 007c 02       		.byte	0x2
 530 007d BD01     		.2byte	0x1bd
 531 007f 33000000 		.4byte	0x33
 532 0083 02       		.uleb128 0x2
 533 0084 04       		.byte	0x4
 534 0085 04       		.byte	0x4
 535 0086 46000000 		.4byte	.LASF11
 536 008a 02       		.uleb128 0x2
 537 008b 08       		.byte	0x8
 538 008c 04       		.byte	0x4
 539 008d 0C010000 		.4byte	.LASF12
 540 0091 02       		.uleb128 0x2
 541 0092 01       		.byte	0x1
 542 0093 08       		.byte	0x8
 543 0094 C1010000 		.4byte	.LASF13
 544 0098 02       		.uleb128 0x2
 545 0099 08       		.byte	0x8
 546 009a 04       		.byte	0x4
 547 009b D9010000 		.4byte	.LASF14
 548 009f 02       		.uleb128 0x2
 549 00a0 04       		.byte	0x4
 550 00a1 07       		.byte	0x7
ARM GAS  C:\Users\quint\AppData\Local\Temp\ccvfZmMc.s 			page 12


 551 00a2 A3010000 		.4byte	.LASF15
 552 00a6 05       		.uleb128 0x5
 553 00a7 F8010000 		.4byte	.LASF16
 554 00ab 01       		.byte	0x1
 555 00ac 0B       		.byte	0xb
 556 00ad 00000000 		.4byte	.LFB34
 557 00b1 52000000 		.4byte	.LFE34-.LFB34
 558 00b5 01       		.uleb128 0x1
 559 00b6 9C       		.byte	0x9c
 560 00b7 D6000000 		.4byte	0xd6
 561 00bb 06       		.uleb128 0x6
 562 00bc 28010000 		.4byte	.LASF18
 563 00c0 01       		.byte	0x1
 564 00c1 0B       		.byte	0xb
 565 00c2 5D000000 		.4byte	0x5d
 566 00c6 02       		.uleb128 0x2
 567 00c7 91       		.byte	0x91
 568 00c8 6C       		.sleb128 -20
 569 00c9 07       		.uleb128 0x7
 570 00ca 6900     		.ascii	"i\000"
 571 00cc 01       		.byte	0x1
 572 00cd 0D       		.byte	0xd
 573 00ce 5D000000 		.4byte	0x5d
 574 00d2 02       		.uleb128 0x2
 575 00d3 91       		.byte	0x91
 576 00d4 74       		.sleb128 -12
 577 00d5 00       		.byte	0
 578 00d6 05       		.uleb128 0x5
 579 00d7 13010000 		.4byte	.LASF17
 580 00db 01       		.byte	0x1
 581 00dc 14       		.byte	0x14
 582 00dd 00000000 		.4byte	.LFB35
 583 00e1 04010000 		.4byte	.LFE35-.LFB35
 584 00e5 01       		.uleb128 0x1
 585 00e6 9C       		.byte	0x9c
 586 00e7 32010000 		.4byte	0x132
 587 00eb 06       		.uleb128 0x6
 588 00ec 15000000 		.4byte	.LASF19
 589 00f0 01       		.byte	0x1
 590 00f1 14       		.byte	0x14
 591 00f2 5D000000 		.4byte	0x5d
 592 00f6 02       		.uleb128 0x2
 593 00f7 91       		.byte	0x91
 594 00f8 64       		.sleb128 -28
 595 00f9 06       		.uleb128 0x6
 596 00fa 1D000000 		.4byte	.LASF20
 597 00fe 01       		.byte	0x1
 598 00ff 14       		.byte	0x14
 599 0100 5D000000 		.4byte	0x5d
 600 0104 02       		.uleb128 0x2
 601 0105 91       		.byte	0x91
 602 0106 60       		.sleb128 -32
 603 0107 06       		.uleb128 0x6
 604 0108 78000000 		.4byte	.LASF21
 605 010c 01       		.byte	0x1
 606 010d 14       		.byte	0x14
 607 010e 5D000000 		.4byte	0x5d
ARM GAS  C:\Users\quint\AppData\Local\Temp\ccvfZmMc.s 			page 13


 608 0112 02       		.uleb128 0x2
 609 0113 91       		.byte	0x91
 610 0114 5C       		.sleb128 -36
 611 0115 06       		.uleb128 0x6
 612 0116 F1010000 		.4byte	.LASF22
 613 011a 01       		.byte	0x1
 614 011b 14       		.byte	0x14
 615 011c 5D000000 		.4byte	0x5d
 616 0120 02       		.uleb128 0x2
 617 0121 91       		.byte	0x91
 618 0122 58       		.sleb128 -40
 619 0123 06       		.uleb128 0x6
 620 0124 28010000 		.4byte	.LASF18
 621 0128 01       		.byte	0x1
 622 0129 14       		.byte	0x14
 623 012a 5D000000 		.4byte	0x5d
 624 012e 02       		.uleb128 0x2
 625 012f 91       		.byte	0x91
 626 0130 00       		.sleb128 0
 627 0131 00       		.byte	0
 628 0132 08       		.uleb128 0x8
 629 0133 7A010000 		.4byte	.LASF23
 630 0137 01       		.byte	0x1
 631 0138 1A       		.byte	0x1a
 632 0139 5D000000 		.4byte	0x5d
 633 013d 00000000 		.4byte	.LFB36
 634 0141 7C010000 		.4byte	.LFE36-.LFB36
 635 0145 01       		.uleb128 0x1
 636 0146 9C       		.byte	0x9c
 637 0147 9A010000 		.4byte	0x19a
 638 014b 07       		.uleb128 0x7
 639 014c 6900     		.ascii	"i\000"
 640 014e 01       		.byte	0x1
 641 014f 1C       		.byte	0x1c
 642 0150 77000000 		.4byte	0x77
 643 0154 02       		.uleb128 0x2
 644 0155 91       		.byte	0x91
 645 0156 76       		.sleb128 -10
 646 0157 07       		.uleb128 0x7
 647 0158 7800     		.ascii	"x\000"
 648 015a 01       		.byte	0x1
 649 015b 1D       		.byte	0x1d
 650 015c 77000000 		.4byte	0x77
 651 0160 02       		.uleb128 0x2
 652 0161 91       		.byte	0x91
 653 0162 6E       		.sleb128 -18
 654 0163 07       		.uleb128 0x7
 655 0164 7900     		.ascii	"y\000"
 656 0166 01       		.byte	0x1
 657 0167 1E       		.byte	0x1e
 658 0168 77000000 		.4byte	0x77
 659 016c 02       		.uleb128 0x2
 660 016d 91       		.byte	0x91
 661 016e 6C       		.sleb128 -20
 662 016f 09       		.uleb128 0x9
 663 0170 00000000 		.4byte	.LASF24
 664 0174 01       		.byte	0x1
ARM GAS  C:\Users\quint\AppData\Local\Temp\ccvfZmMc.s 			page 14


 665 0175 1F       		.byte	0x1f
 666 0176 77000000 		.4byte	0x77
 667 017a 02       		.uleb128 0x2
 668 017b 91       		.byte	0x91
 669 017c 74       		.sleb128 -12
 670 017d 09       		.uleb128 0x9
 671 017e 07000000 		.4byte	.LASF25
 672 0182 01       		.byte	0x1
 673 0183 20       		.byte	0x20
 674 0184 77000000 		.4byte	0x77
 675 0188 02       		.uleb128 0x2
 676 0189 91       		.byte	0x91
 677 018a 72       		.sleb128 -14
 678 018b 09       		.uleb128 0x9
 679 018c 0E000000 		.4byte	.LASF26
 680 0190 01       		.byte	0x1
 681 0191 21       		.byte	0x21
 682 0192 77000000 		.4byte	0x77
 683 0196 02       		.uleb128 0x2
 684 0197 91       		.byte	0x91
 685 0198 70       		.sleb128 -16
 686 0199 00       		.byte	0
 687 019a 0A       		.uleb128 0xa
 688 019b B0010000 		.4byte	0x1b0
 689 019f B0010000 		.4byte	0x1b0
 690 01a3 0B       		.uleb128 0xb
 691 01a4 9F000000 		.4byte	0x9f
 692 01a8 60       		.byte	0x60
 693 01a9 0B       		.uleb128 0xb
 694 01aa 9F000000 		.4byte	0x9f
 695 01ae 0F       		.byte	0xf
 696 01af 00       		.byte	0
 697 01b0 0C       		.uleb128 0xc
 698 01b1 6B000000 		.4byte	0x6b
 699 01b5 0D       		.uleb128 0xd
 700 01b6 38000000 		.4byte	.LASF30
 701 01ba 03       		.byte	0x3
 702 01bb 42       		.byte	0x42
 703 01bc C6010000 		.4byte	0x1c6
 704 01c0 05       		.uleb128 0x5
 705 01c1 03       		.byte	0x3
 706 01c2 00000000 		.4byte	GLCD_FONT8x16
 707 01c6 0C       		.uleb128 0xc
 708 01c7 9A010000 		.4byte	0x19a
 709 01cb 00       		.byte	0
 710              		.section	.debug_abbrev,"",%progbits
 711              	.Ldebug_abbrev0:
 712 0000 01       		.uleb128 0x1
 713 0001 11       		.uleb128 0x11
 714 0002 01       		.byte	0x1
 715 0003 25       		.uleb128 0x25
 716 0004 0E       		.uleb128 0xe
 717 0005 13       		.uleb128 0x13
 718 0006 0B       		.uleb128 0xb
 719 0007 03       		.uleb128 0x3
 720 0008 0E       		.uleb128 0xe
 721 0009 1B       		.uleb128 0x1b
ARM GAS  C:\Users\quint\AppData\Local\Temp\ccvfZmMc.s 			page 15


 722 000a 0E       		.uleb128 0xe
 723 000b 55       		.uleb128 0x55
 724 000c 17       		.uleb128 0x17
 725 000d 11       		.uleb128 0x11
 726 000e 01       		.uleb128 0x1
 727 000f 10       		.uleb128 0x10
 728 0010 17       		.uleb128 0x17
 729 0011 00       		.byte	0
 730 0012 00       		.byte	0
 731 0013 02       		.uleb128 0x2
 732 0014 24       		.uleb128 0x24
 733 0015 00       		.byte	0
 734 0016 0B       		.uleb128 0xb
 735 0017 0B       		.uleb128 0xb
 736 0018 3E       		.uleb128 0x3e
 737 0019 0B       		.uleb128 0xb
 738 001a 03       		.uleb128 0x3
 739 001b 0E       		.uleb128 0xe
 740 001c 00       		.byte	0
 741 001d 00       		.byte	0
 742 001e 03       		.uleb128 0x3
 743 001f 24       		.uleb128 0x24
 744 0020 00       		.byte	0
 745 0021 0B       		.uleb128 0xb
 746 0022 0B       		.uleb128 0xb
 747 0023 3E       		.uleb128 0x3e
 748 0024 0B       		.uleb128 0xb
 749 0025 03       		.uleb128 0x3
 750 0026 08       		.uleb128 0x8
 751 0027 00       		.byte	0
 752 0028 00       		.byte	0
 753 0029 04       		.uleb128 0x4
 754 002a 16       		.uleb128 0x16
 755 002b 00       		.byte	0
 756 002c 03       		.uleb128 0x3
 757 002d 0E       		.uleb128 0xe
 758 002e 3A       		.uleb128 0x3a
 759 002f 0B       		.uleb128 0xb
 760 0030 3B       		.uleb128 0x3b
 761 0031 05       		.uleb128 0x5
 762 0032 49       		.uleb128 0x49
 763 0033 13       		.uleb128 0x13
 764 0034 00       		.byte	0
 765 0035 00       		.byte	0
 766 0036 05       		.uleb128 0x5
 767 0037 2E       		.uleb128 0x2e
 768 0038 01       		.byte	0x1
 769 0039 3F       		.uleb128 0x3f
 770 003a 19       		.uleb128 0x19
 771 003b 03       		.uleb128 0x3
 772 003c 0E       		.uleb128 0xe
 773 003d 3A       		.uleb128 0x3a
 774 003e 0B       		.uleb128 0xb
 775 003f 3B       		.uleb128 0x3b
 776 0040 0B       		.uleb128 0xb
 777 0041 27       		.uleb128 0x27
 778 0042 19       		.uleb128 0x19
ARM GAS  C:\Users\quint\AppData\Local\Temp\ccvfZmMc.s 			page 16


 779 0043 11       		.uleb128 0x11
 780 0044 01       		.uleb128 0x1
 781 0045 12       		.uleb128 0x12
 782 0046 06       		.uleb128 0x6
 783 0047 40       		.uleb128 0x40
 784 0048 18       		.uleb128 0x18
 785 0049 9642     		.uleb128 0x2116
 786 004b 19       		.uleb128 0x19
 787 004c 01       		.uleb128 0x1
 788 004d 13       		.uleb128 0x13
 789 004e 00       		.byte	0
 790 004f 00       		.byte	0
 791 0050 06       		.uleb128 0x6
 792 0051 05       		.uleb128 0x5
 793 0052 00       		.byte	0
 794 0053 03       		.uleb128 0x3
 795 0054 0E       		.uleb128 0xe
 796 0055 3A       		.uleb128 0x3a
 797 0056 0B       		.uleb128 0xb
 798 0057 3B       		.uleb128 0x3b
 799 0058 0B       		.uleb128 0xb
 800 0059 49       		.uleb128 0x49
 801 005a 13       		.uleb128 0x13
 802 005b 02       		.uleb128 0x2
 803 005c 18       		.uleb128 0x18
 804 005d 00       		.byte	0
 805 005e 00       		.byte	0
 806 005f 07       		.uleb128 0x7
 807 0060 34       		.uleb128 0x34
 808 0061 00       		.byte	0
 809 0062 03       		.uleb128 0x3
 810 0063 08       		.uleb128 0x8
 811 0064 3A       		.uleb128 0x3a
 812 0065 0B       		.uleb128 0xb
 813 0066 3B       		.uleb128 0x3b
 814 0067 0B       		.uleb128 0xb
 815 0068 49       		.uleb128 0x49
 816 0069 13       		.uleb128 0x13
 817 006a 02       		.uleb128 0x2
 818 006b 18       		.uleb128 0x18
 819 006c 00       		.byte	0
 820 006d 00       		.byte	0
 821 006e 08       		.uleb128 0x8
 822 006f 2E       		.uleb128 0x2e
 823 0070 01       		.byte	0x1
 824 0071 3F       		.uleb128 0x3f
 825 0072 19       		.uleb128 0x19
 826 0073 03       		.uleb128 0x3
 827 0074 0E       		.uleb128 0xe
 828 0075 3A       		.uleb128 0x3a
 829 0076 0B       		.uleb128 0xb
 830 0077 3B       		.uleb128 0x3b
 831 0078 0B       		.uleb128 0xb
 832 0079 49       		.uleb128 0x49
 833 007a 13       		.uleb128 0x13
 834 007b 11       		.uleb128 0x11
 835 007c 01       		.uleb128 0x1
ARM GAS  C:\Users\quint\AppData\Local\Temp\ccvfZmMc.s 			page 17


 836 007d 12       		.uleb128 0x12
 837 007e 06       		.uleb128 0x6
 838 007f 40       		.uleb128 0x40
 839 0080 18       		.uleb128 0x18
 840 0081 9642     		.uleb128 0x2116
 841 0083 19       		.uleb128 0x19
 842 0084 01       		.uleb128 0x1
 843 0085 13       		.uleb128 0x13
 844 0086 00       		.byte	0
 845 0087 00       		.byte	0
 846 0088 09       		.uleb128 0x9
 847 0089 34       		.uleb128 0x34
 848 008a 00       		.byte	0
 849 008b 03       		.uleb128 0x3
 850 008c 0E       		.uleb128 0xe
 851 008d 3A       		.uleb128 0x3a
 852 008e 0B       		.uleb128 0xb
 853 008f 3B       		.uleb128 0x3b
 854 0090 0B       		.uleb128 0xb
 855 0091 49       		.uleb128 0x49
 856 0092 13       		.uleb128 0x13
 857 0093 02       		.uleb128 0x2
 858 0094 18       		.uleb128 0x18
 859 0095 00       		.byte	0
 860 0096 00       		.byte	0
 861 0097 0A       		.uleb128 0xa
 862 0098 01       		.uleb128 0x1
 863 0099 01       		.byte	0x1
 864 009a 49       		.uleb128 0x49
 865 009b 13       		.uleb128 0x13
 866 009c 01       		.uleb128 0x1
 867 009d 13       		.uleb128 0x13
 868 009e 00       		.byte	0
 869 009f 00       		.byte	0
 870 00a0 0B       		.uleb128 0xb
 871 00a1 21       		.uleb128 0x21
 872 00a2 00       		.byte	0
 873 00a3 49       		.uleb128 0x49
 874 00a4 13       		.uleb128 0x13
 875 00a5 2F       		.uleb128 0x2f
 876 00a6 0B       		.uleb128 0xb
 877 00a7 00       		.byte	0
 878 00a8 00       		.byte	0
 879 00a9 0C       		.uleb128 0xc
 880 00aa 26       		.uleb128 0x26
 881 00ab 00       		.byte	0
 882 00ac 49       		.uleb128 0x49
 883 00ad 13       		.uleb128 0x13
 884 00ae 00       		.byte	0
 885 00af 00       		.byte	0
 886 00b0 0D       		.uleb128 0xd
 887 00b1 34       		.uleb128 0x34
 888 00b2 00       		.byte	0
 889 00b3 03       		.uleb128 0x3
 890 00b4 0E       		.uleb128 0xe
 891 00b5 3A       		.uleb128 0x3a
 892 00b6 0B       		.uleb128 0xb
ARM GAS  C:\Users\quint\AppData\Local\Temp\ccvfZmMc.s 			page 18


 893 00b7 3B       		.uleb128 0x3b
 894 00b8 0B       		.uleb128 0xb
 895 00b9 49       		.uleb128 0x49
 896 00ba 13       		.uleb128 0x13
 897 00bb 3F       		.uleb128 0x3f
 898 00bc 19       		.uleb128 0x19
 899 00bd 02       		.uleb128 0x2
 900 00be 18       		.uleb128 0x18
 901 00bf 00       		.byte	0
 902 00c0 00       		.byte	0
 903 00c1 00       		.byte	0
 904              		.section	.debug_aranges,"",%progbits
 905 0000 2C000000 		.4byte	0x2c
 906 0004 0200     		.2byte	0x2
 907 0006 00000000 		.4byte	.Ldebug_info0
 908 000a 04       		.byte	0x4
 909 000b 00       		.byte	0
 910 000c 0000     		.2byte	0
 911 000e 0000     		.2byte	0
 912 0010 00000000 		.4byte	.LFB34
 913 0014 52000000 		.4byte	.LFE34-.LFB34
 914 0018 00000000 		.4byte	.LFB35
 915 001c 04010000 		.4byte	.LFE35-.LFB35
 916 0020 00000000 		.4byte	.LFB36
 917 0024 7C010000 		.4byte	.LFE36-.LFB36
 918 0028 00000000 		.4byte	0
 919 002c 00000000 		.4byte	0
 920              		.section	.debug_ranges,"",%progbits
 921              	.Ldebug_ranges0:
 922 0000 00000000 		.4byte	.LFB34
 923 0004 52000000 		.4byte	.LFE34
 924 0008 00000000 		.4byte	.LFB35
 925 000c 04010000 		.4byte	.LFE35
 926 0010 00000000 		.4byte	.LFB36
 927 0014 7C010000 		.4byte	.LFE36
 928 0018 00000000 		.4byte	0
 929 001c 00000000 		.4byte	0
 930              		.section	.debug_line,"",%progbits
 931              	.Ldebug_line0:
 932 0000 F3000000 		.section	.debug_str,"MS",%progbits,1
 932      02004B00 
 932      00000201 
 932      FB0E0D00 
 932      01010101 
 933              	.LASF24:
 934 0000 636F756E 		.ascii	"count1\000"
 934      743100
 935              	.LASF25:
 936 0007 636F756E 		.ascii	"count2\000"
 936      743200
 937              	.LASF26:
 938 000e 636F756E 		.ascii	"count3\000"
 938      743300
 939              	.LASF19:
 940 0015 63656E74 		.ascii	"centerX\000"
 940      65725800 
 941              	.LASF20:
ARM GAS  C:\Users\quint\AppData\Local\Temp\ccvfZmMc.s 			page 19


 942 001d 63656E74 		.ascii	"centerY\000"
 942      65725900 
 943              	.LASF3:
 944 0025 73686F72 		.ascii	"short unsigned int\000"
 944      7420756E 
 944      7369676E 
 944      65642069 
 944      6E7400
 945              	.LASF30:
 946 0038 474C4344 		.ascii	"GLCD_FONT8x16\000"
 946      5F464F4E 
 946      54387831 
 946      3600
 947              	.LASF11:
 948 0046 666C6F61 		.ascii	"float\000"
 948      7400
 949              	.LASF1:
 950 004c 756E7369 		.ascii	"unsigned char\000"
 950      676E6564 
 950      20636861 
 950      7200
 951              	.LASF10:
 952 005a 696E7431 		.ascii	"int16\000"
 952      3600
 953              	.LASF5:
 954 0060 6C6F6E67 		.ascii	"long unsigned int\000"
 954      20756E73 
 954      69676E65 
 954      6420696E 
 954      7400
 955              	.LASF9:
 956 0072 75696E74 		.ascii	"uint8\000"
 956      3800
 957              	.LASF21:
 958 0078 616E676C 		.ascii	"angle\000"
 958      6500
 959              	.LASF27:
 960 007e 474E5520 		.ascii	"GNU C11 5.4.1 20160609 (release) [ARM/embedded-5-br"
 960      43313120 
 960      352E342E 
 960      31203230 
 960      31363036 
 961 00b1 616E6368 		.ascii	"anch revision 237715] -mcpu=cortex-m0 -mthumb -g -O"
 961      20726576 
 961      6973696F 
 961      6E203233 
 961      37373135 
 962 00e4 30202D66 		.ascii	"0 -ffunction-sections -ffat-lto-objects\000"
 962      66756E63 
 962      74696F6E 
 962      2D736563 
 962      74696F6E 
 963              	.LASF12:
 964 010c 646F7562 		.ascii	"double\000"
 964      6C6500
 965              	.LASF17:
 966 0113 474C4344 		.ascii	"GLCD_Draw_Line_Polar\000"
ARM GAS  C:\Users\quint\AppData\Local\Temp\ccvfZmMc.s 			page 20


 966      5F447261 
 966      775F4C69 
 966      6E655F50 
 966      6F6C6172 
 967              	.LASF18:
 968 0128 636F6C6F 		.ascii	"color\000"
 968      7200
 969              	.LASF29:
 970 012e 443A5C47 		.ascii	"D:\\GIT\\Microcontroller System Design Projects\\HW"
 970      49545C4D 
 970      6963726F 
 970      636F6E74 
 970      726F6C6C 
 971 015e 20312D20 		.ascii	" 1- Pacman\\GLCD_Test1.cydsn\000"
 971      5061636D 
 971      616E5C47 
 971      4C43445F 
 971      54657374 
 972              	.LASF23:
 973 017a 6D61696E 		.ascii	"main\000"
 973      00
 974              	.LASF8:
 975 017f 756E7369 		.ascii	"unsigned int\000"
 975      676E6564 
 975      20696E74 
 975      00
 976              	.LASF7:
 977 018c 6C6F6E67 		.ascii	"long long unsigned int\000"
 977      206C6F6E 
 977      6720756E 
 977      7369676E 
 977      65642069 
 978              	.LASF15:
 979 01a3 73697A65 		.ascii	"sizetype\000"
 979      74797065 
 979      00
 980              	.LASF6:
 981 01ac 6C6F6E67 		.ascii	"long long int\000"
 981      206C6F6E 
 981      6720696E 
 981      7400
 982              	.LASF28:
 983 01ba 6D61696E 		.ascii	"main.c\000"
 983      2E6300
 984              	.LASF13:
 985 01c1 63686172 		.ascii	"char\000"
 985      00
 986              	.LASF2:
 987 01c6 73686F72 		.ascii	"short int\000"
 987      7420696E 
 987      7400
 988              	.LASF4:
 989 01d0 6C6F6E67 		.ascii	"long int\000"
 989      20696E74 
 989      00
 990              	.LASF14:
 991 01d9 6C6F6E67 		.ascii	"long double\000"
ARM GAS  C:\Users\quint\AppData\Local\Temp\ccvfZmMc.s 			page 21


 991      20646F75 
 991      626C6500 
 992              	.LASF0:
 993 01e5 7369676E 		.ascii	"signed char\000"
 993      65642063 
 993      68617200 
 994              	.LASF22:
 995 01f1 6C656E67 		.ascii	"length\000"
 995      746800
 996              	.LASF16:
 997 01f8 70726574 		.ascii	"pretty_lines\000"
 997      74795F6C 
 997      696E6573 
 997      00
 998              		.ident	"GCC: (GNU Tools for ARM Embedded Processors) 5.4.1 20160609 (release) [ARM/embedded-5-bran
