ARM GAS  C:\Users\quint\AppData\Local\Temp\ccshE9pX.s 			page 1


   1              		.syntax unified
   2              		.cpu cortex-m0
   3              		.fpu softvfp
   4              		.eabi_attribute 20, 1
   5              		.eabi_attribute 21, 1
   6              		.eabi_attribute 23, 3
   7              		.eabi_attribute 24, 1
   8              		.eabi_attribute 25, 1
   9              		.eabi_attribute 26, 1
  10              		.eabi_attribute 30, 6
  11              		.eabi_attribute 34, 0
  12              		.eabi_attribute 18, 4
  13              		.thumb
  14              		.syntax unified
  15              		.file	"main.c"
  16              		.text
  17              	.Ltext0:
  18              		.cfi_sections	.debug_frame
  19              		.comm	GLCD_FONT8x16,1552,4
  20              		.global	__aeabi_i2d
  21              		.global	__aeabi_dmul
  22              		.global	__aeabi_ddiv
  23              		.global	__aeabi_dadd
  24              		.global	__aeabi_d2iz
  25              		.section	.text.GLCD_Draw_Line_Polar,"ax",%progbits
  26              		.align	2
  27              		.global	GLCD_Draw_Line_Polar
  28              		.code	16
  29              		.thumb_func
  30              		.type	GLCD_Draw_Line_Polar, %function
  31              	GLCD_Draw_Line_Polar:
  32              	.LFB34:
  33              		.file 1 "main.c"
   1:main.c        **** 
   2:main.c        **** // Test program to confirm operation of PSoC 4 Pioneer Board and Graphical LCD
   3:main.c        **** // For documentation on the GLCD Library: Click on the Datasheets tab in the Workspace Explorer and
   4:main.c        **** //        API documentation is at the bottom of the Datasheet
   5:main.c        **** 
   6:main.c        **** #include <device.h>
   7:main.c        **** #include <header01.h>
   8:main.c        **** #include <math.h>
   9:main.c        **** 
  10:main.c        **** 
  11:main.c        **** 
  12:main.c        **** //This converts the polar cordinates given to the point to point used for the DrawLine
  13:main.c        ****  void GLCD_Draw_Line_Polar(int centerX, int centerY, int angle, int length, int color)
  14:main.c        **** {
  34              		.loc 1 14 0
  35              		.cfi_startproc
  36              		@ args = 4, pretend = 0, frame = 16
  37              		@ frame_needed = 1, uses_anonymous_args = 0
  38 0000 F0B5     		push	{r4, r5, r6, r7, lr}
  39              		.cfi_def_cfa_offset 20
  40              		.cfi_offset 4, -20
  41              		.cfi_offset 5, -16
  42              		.cfi_offset 6, -12
  43              		.cfi_offset 7, -8
ARM GAS  C:\Users\quint\AppData\Local\Temp\ccshE9pX.s 			page 2


  44              		.cfi_offset 14, -4
  45 0002 87B0     		sub	sp, sp, #28
  46              		.cfi_def_cfa_offset 48
  47 0004 02AF     		add	r7, sp, #8
  48              		.cfi_def_cfa 7, 40
  49 0006 F860     		str	r0, [r7, #12]
  50 0008 B960     		str	r1, [r7, #8]
  51 000a 7A60     		str	r2, [r7, #4]
  52 000c 3B60     		str	r3, [r7]
  15:main.c        ****     GLCD_DrawLine(centerX,centerY,(length*cos(((angle*M_PI))/180))+centerX,(length*sin(((angle*M_PI
  53              		.loc 1 15 0
  54 000e 3868     		ldr	r0, [r7]
  55 0010 FFF7FEFF 		bl	__aeabi_i2d
  56 0014 0400     		movs	r4, r0
  57 0016 0D00     		movs	r5, r1
  58 0018 7868     		ldr	r0, [r7, #4]
  59 001a FFF7FEFF 		bl	__aeabi_i2d
  60 001e 364A     		ldr	r2, .L2
  61 0020 364B     		ldr	r3, .L2+4
  62 0022 FFF7FEFF 		bl	__aeabi_dmul
  63 0026 0200     		movs	r2, r0
  64 0028 0B00     		movs	r3, r1
  65 002a 1000     		movs	r0, r2
  66 002c 1900     		movs	r1, r3
  67 002e 0022     		movs	r2, #0
  68 0030 334B     		ldr	r3, .L2+8
  69 0032 FFF7FEFF 		bl	__aeabi_ddiv
  70 0036 0200     		movs	r2, r0
  71 0038 0B00     		movs	r3, r1
  72 003a 1000     		movs	r0, r2
  73 003c 1900     		movs	r1, r3
  74 003e FFF7FEFF 		bl	cos
  75 0042 0200     		movs	r2, r0
  76 0044 0B00     		movs	r3, r1
  77 0046 2000     		movs	r0, r4
  78 0048 2900     		movs	r1, r5
  79 004a FFF7FEFF 		bl	__aeabi_dmul
  80 004e 0300     		movs	r3, r0
  81 0050 0C00     		movs	r4, r1
  82 0052 2500     		movs	r5, r4
  83 0054 1C00     		movs	r4, r3
  84 0056 F868     		ldr	r0, [r7, #12]
  85 0058 FFF7FEFF 		bl	__aeabi_i2d
  86 005c 0200     		movs	r2, r0
  87 005e 0B00     		movs	r3, r1
  88 0060 2000     		movs	r0, r4
  89 0062 2900     		movs	r1, r5
  90 0064 FFF7FEFF 		bl	__aeabi_dadd
  91 0068 0300     		movs	r3, r0
  92 006a 0C00     		movs	r4, r1
  93 006c 1800     		movs	r0, r3
  94 006e 2100     		movs	r1, r4
  95 0070 FFF7FEFF 		bl	__aeabi_d2iz
  96 0074 0600     		movs	r6, r0
  97 0076 3868     		ldr	r0, [r7]
  98 0078 FFF7FEFF 		bl	__aeabi_i2d
  99 007c 0400     		movs	r4, r0
ARM GAS  C:\Users\quint\AppData\Local\Temp\ccshE9pX.s 			page 3


 100 007e 0D00     		movs	r5, r1
 101 0080 7868     		ldr	r0, [r7, #4]
 102 0082 FFF7FEFF 		bl	__aeabi_i2d
 103 0086 1C4A     		ldr	r2, .L2
 104 0088 1C4B     		ldr	r3, .L2+4
 105 008a FFF7FEFF 		bl	__aeabi_dmul
 106 008e 0200     		movs	r2, r0
 107 0090 0B00     		movs	r3, r1
 108 0092 1000     		movs	r0, r2
 109 0094 1900     		movs	r1, r3
 110 0096 0022     		movs	r2, #0
 111 0098 194B     		ldr	r3, .L2+8
 112 009a FFF7FEFF 		bl	__aeabi_ddiv
 113 009e 0200     		movs	r2, r0
 114 00a0 0B00     		movs	r3, r1
 115 00a2 1000     		movs	r0, r2
 116 00a4 1900     		movs	r1, r3
 117 00a6 FFF7FEFF 		bl	sin
 118 00aa 0200     		movs	r2, r0
 119 00ac 0B00     		movs	r3, r1
 120 00ae 2000     		movs	r0, r4
 121 00b0 2900     		movs	r1, r5
 122 00b2 FFF7FEFF 		bl	__aeabi_dmul
 123 00b6 0300     		movs	r3, r0
 124 00b8 0C00     		movs	r4, r1
 125 00ba 2500     		movs	r5, r4
 126 00bc 1C00     		movs	r4, r3
 127 00be B868     		ldr	r0, [r7, #8]
 128 00c0 FFF7FEFF 		bl	__aeabi_i2d
 129 00c4 0200     		movs	r2, r0
 130 00c6 0B00     		movs	r3, r1
 131 00c8 2000     		movs	r0, r4
 132 00ca 2900     		movs	r1, r5
 133 00cc FFF7FEFF 		bl	__aeabi_dadd
 134 00d0 0300     		movs	r3, r0
 135 00d2 0C00     		movs	r4, r1
 136 00d4 1800     		movs	r0, r3
 137 00d6 2100     		movs	r1, r4
 138 00d8 FFF7FEFF 		bl	__aeabi_d2iz
 139 00dc 0200     		movs	r2, r0
 140 00de B968     		ldr	r1, [r7, #8]
 141 00e0 F868     		ldr	r0, [r7, #12]
 142 00e2 BB6A     		ldr	r3, [r7, #40]
 143 00e4 0093     		str	r3, [sp]
 144 00e6 1300     		movs	r3, r2
 145 00e8 3200     		movs	r2, r6
 146 00ea FFF7FEFF 		bl	GLCD_DrawLine
  16:main.c        ****   
  17:main.c        **** }
 147              		.loc 1 17 0
 148 00ee C046     		nop
 149 00f0 BD46     		mov	sp, r7
 150 00f2 05B0     		add	sp, sp, #20
 151              		@ sp needed
 152 00f4 F0BD     		pop	{r4, r5, r6, r7, pc}
 153              	.L3:
 154 00f6 C046     		.align	2
ARM GAS  C:\Users\quint\AppData\Local\Temp\ccshE9pX.s 			page 4


 155              	.L2:
 156 00f8 182D4454 		.word	1413754136
 157 00fc FB210940 		.word	1074340347
 158 0100 00806640 		.word	1080459264
 159              		.cfi_endproc
 160              	.LFE34:
 161              		.size	GLCD_Draw_Line_Polar, .-GLCD_Draw_Line_Polar
 162              		.section	.text.PACMAN,"ax",%progbits
 163              		.align	2
 164              		.global	PACMAN
 165              		.code	16
 166              		.thumb_func
 167              		.type	PACMAN, %function
 168              	PACMAN:
 169              	.LFB35:
  18:main.c        **** 
  19:main.c        **** //Function that has loops to draw pacman
  20:main.c        **** void PACMAN(int centerAngle)
  21:main.c        **** {
 170              		.loc 1 21 0
 171              		.cfi_startproc
 172              		@ args = 0, pretend = 0, frame = 16
 173              		@ frame_needed = 1, uses_anonymous_args = 0
 174 0000 80B5     		push	{r7, lr}
 175              		.cfi_def_cfa_offset 8
 176              		.cfi_offset 7, -8
 177              		.cfi_offset 14, -4
 178 0002 86B0     		sub	sp, sp, #24
 179              		.cfi_def_cfa_offset 32
 180 0004 02AF     		add	r7, sp, #8
 181              		.cfi_def_cfa 7, 24
 182 0006 7860     		str	r0, [r7, #4]
  22:main.c        ****     int16 count1;
  23:main.c        ****     int16 count2;
  24:main.c        ****     int16 count3;
  25:main.c        ****     //Draws the original yellow circle
  26:main.c        ****      for( count1=0; count1<360;count1++)
 183              		.loc 1 26 0
 184 0008 0E23     		movs	r3, #14
 185 000a FB18     		adds	r3, r7, r3
 186 000c 0022     		movs	r2, #0
 187 000e 1A80     		strh	r2, [r3]
 188 0010 15E0     		b	.L5
 189              	.L6:
  27:main.c        ****     {
  28:main.c        ****          GLCD_Draw_Line_Polar(CENTER, CENTER,count1 , 50,  GLCD_YELLOW);   //Thins draws the origin
 190              		.loc 1 28 0 discriminator 3
 191 0012 0E23     		movs	r3, #14
 192 0014 FB18     		adds	r3, r7, r3
 193 0016 0022     		movs	r2, #0
 194 0018 9A5E     		ldrsh	r2, [r3, r2]
 195 001a FF23     		movs	r3, #255
 196 001c 1B01     		lsls	r3, r3, #4
 197 001e 0093     		str	r3, [sp]
 198 0020 3223     		movs	r3, #50
 199 0022 3E21     		movs	r1, #62
 200 0024 3E20     		movs	r0, #62
ARM GAS  C:\Users\quint\AppData\Local\Temp\ccshE9pX.s 			page 5


 201 0026 FFF7FEFF 		bl	GLCD_Draw_Line_Polar
  26:main.c        ****     {
 202              		.loc 1 26 0 discriminator 3
 203 002a 0E23     		movs	r3, #14
 204 002c FB18     		adds	r3, r7, r3
 205 002e 0022     		movs	r2, #0
 206 0030 9B5E     		ldrsh	r3, [r3, r2]
 207 0032 9BB2     		uxth	r3, r3
 208 0034 0133     		adds	r3, r3, #1
 209 0036 9AB2     		uxth	r2, r3
 210 0038 0E23     		movs	r3, #14
 211 003a FB18     		adds	r3, r7, r3
 212 003c 1A80     		strh	r2, [r3]
 213              	.L5:
  26:main.c        ****     {
 214              		.loc 1 26 0 is_stmt 0 discriminator 1
 215 003e 0E23     		movs	r3, #14
 216 0040 FB18     		adds	r3, r7, r3
 217 0042 0022     		movs	r2, #0
 218 0044 9A5E     		ldrsh	r2, [r3, r2]
 219 0046 6823     		movs	r3, #104
 220 0048 FF33     		adds	r3, r3, #255
 221 004a 9A42     		cmp	r2, r3
 222 004c E1DD     		ble	.L6
 223              	.L11:
  29:main.c        ****     }
  30:main.c        ****     
  31:main.c        ****     while(1)
  32:main.c        ****     {
  33:main.c        ****         //Draws black mouth open
  34:main.c        ****     for(count2=centerAngle;count2<=centerAngle+30;count2++)
 224              		.loc 1 34 0 is_stmt 1
 225 004e 0C23     		movs	r3, #12
 226 0050 FB18     		adds	r3, r7, r3
 227 0052 7A68     		ldr	r2, [r7, #4]
 228 0054 1A80     		strh	r2, [r3]
 229 0056 20E0     		b	.L7
 230              	.L8:
  35:main.c        ****     {
  36:main.c        ****          GLCD_Draw_Line_Polar(CENTER, CENTER,-count2 , 50,  GLCD_BLACK);  //Draws the black mouth
 231              		.loc 1 36 0 discriminator 3
 232 0058 0C23     		movs	r3, #12
 233 005a FB18     		adds	r3, r7, r3
 234 005c 0022     		movs	r2, #0
 235 005e 9B5E     		ldrsh	r3, [r3, r2]
 236 0060 5A42     		rsbs	r2, r3, #0
 237 0062 0023     		movs	r3, #0
 238 0064 0093     		str	r3, [sp]
 239 0066 3223     		movs	r3, #50
 240 0068 3E21     		movs	r1, #62
 241 006a 3E20     		movs	r0, #62
 242 006c FFF7FEFF 		bl	GLCD_Draw_Line_Polar
  37:main.c        ****          GLCD_Draw_Line_Polar(CENTER, CENTER,count2 , 50,  GLCD_BLACK);  //Draws the black mouth
 243              		.loc 1 37 0 discriminator 3
 244 0070 0C23     		movs	r3, #12
 245 0072 FB18     		adds	r3, r7, r3
 246 0074 0022     		movs	r2, #0
ARM GAS  C:\Users\quint\AppData\Local\Temp\ccshE9pX.s 			page 6


 247 0076 9A5E     		ldrsh	r2, [r3, r2]
 248 0078 0023     		movs	r3, #0
 249 007a 0093     		str	r3, [sp]
 250 007c 3223     		movs	r3, #50
 251 007e 3E21     		movs	r1, #62
 252 0080 3E20     		movs	r0, #62
 253 0082 FFF7FEFF 		bl	GLCD_Draw_Line_Polar
  34:main.c        ****     {
 254              		.loc 1 34 0 discriminator 3
 255 0086 0C23     		movs	r3, #12
 256 0088 FB18     		adds	r3, r7, r3
 257 008a 0022     		movs	r2, #0
 258 008c 9B5E     		ldrsh	r3, [r3, r2]
 259 008e 9BB2     		uxth	r3, r3
 260 0090 0133     		adds	r3, r3, #1
 261 0092 9AB2     		uxth	r2, r3
 262 0094 0C23     		movs	r3, #12
 263 0096 FB18     		adds	r3, r7, r3
 264 0098 1A80     		strh	r2, [r3]
 265              	.L7:
  34:main.c        ****     {
 266              		.loc 1 34 0 is_stmt 0 discriminator 1
 267 009a 0C23     		movs	r3, #12
 268 009c FB18     		adds	r3, r7, r3
 269 009e 0022     		movs	r2, #0
 270 00a0 9A5E     		ldrsh	r2, [r3, r2]
 271 00a2 7B68     		ldr	r3, [r7, #4]
 272 00a4 1E33     		adds	r3, r3, #30
 273 00a6 9A42     		cmp	r2, r3
 274 00a8 D6DD     		ble	.L8
  38:main.c        ****     }
  39:main.c        ****     //Draws mouth closed by drawing yellow lines
  40:main.c        ****      for( count3=centerAngle+30;count3>=centerAngle;count3--)
 275              		.loc 1 40 0 is_stmt 1
 276 00aa 7B68     		ldr	r3, [r7, #4]
 277 00ac 9BB2     		uxth	r3, r3
 278 00ae 1E33     		adds	r3, r3, #30
 279 00b0 9AB2     		uxth	r2, r3
 280 00b2 0A23     		movs	r3, #10
 281 00b4 FB18     		adds	r3, r7, r3
 282 00b6 1A80     		strh	r2, [r3]
 283 00b8 22E0     		b	.L9
 284              	.L10:
  41:main.c        ****     {
  42:main.c        ****          GLCD_Draw_Line_Polar(CENTER, CENTER,-count3 , 50,  GLCD_YELLOW);
 285              		.loc 1 42 0 discriminator 3
 286 00ba 0A23     		movs	r3, #10
 287 00bc FB18     		adds	r3, r7, r3
 288 00be 0022     		movs	r2, #0
 289 00c0 9B5E     		ldrsh	r3, [r3, r2]
 290 00c2 5A42     		rsbs	r2, r3, #0
 291 00c4 FF23     		movs	r3, #255
 292 00c6 1B01     		lsls	r3, r3, #4
 293 00c8 0093     		str	r3, [sp]
 294 00ca 3223     		movs	r3, #50
 295 00cc 3E21     		movs	r1, #62
 296 00ce 3E20     		movs	r0, #62
ARM GAS  C:\Users\quint\AppData\Local\Temp\ccshE9pX.s 			page 7


 297 00d0 FFF7FEFF 		bl	GLCD_Draw_Line_Polar
  43:main.c        ****          GLCD_Draw_Line_Polar(CENTER, CENTER,count3 , 50,  GLCD_YELLOW);
 298              		.loc 1 43 0 discriminator 3
 299 00d4 0A23     		movs	r3, #10
 300 00d6 FB18     		adds	r3, r7, r3
 301 00d8 0022     		movs	r2, #0
 302 00da 9A5E     		ldrsh	r2, [r3, r2]
 303 00dc FF23     		movs	r3, #255
 304 00de 1B01     		lsls	r3, r3, #4
 305 00e0 0093     		str	r3, [sp]
 306 00e2 3223     		movs	r3, #50
 307 00e4 3E21     		movs	r1, #62
 308 00e6 3E20     		movs	r0, #62
 309 00e8 FFF7FEFF 		bl	GLCD_Draw_Line_Polar
  40:main.c        ****     {
 310              		.loc 1 40 0 discriminator 3
 311 00ec 0A23     		movs	r3, #10
 312 00ee FB18     		adds	r3, r7, r3
 313 00f0 0022     		movs	r2, #0
 314 00f2 9B5E     		ldrsh	r3, [r3, r2]
 315 00f4 9BB2     		uxth	r3, r3
 316 00f6 013B     		subs	r3, r3, #1
 317 00f8 9AB2     		uxth	r2, r3
 318 00fa 0A23     		movs	r3, #10
 319 00fc FB18     		adds	r3, r7, r3
 320 00fe 1A80     		strh	r2, [r3]
 321              	.L9:
  40:main.c        ****     {
 322              		.loc 1 40 0 is_stmt 0 discriminator 1
 323 0100 0A23     		movs	r3, #10
 324 0102 FB18     		adds	r3, r7, r3
 325 0104 0022     		movs	r2, #0
 326 0106 9A5E     		ldrsh	r2, [r3, r2]
 327 0108 7B68     		ldr	r3, [r7, #4]
 328 010a 9A42     		cmp	r2, r3
 329 010c D5DA     		bge	.L10
  44:main.c        ****     }
  45:main.c        ****     }
 330              		.loc 1 45 0 is_stmt 1
 331 010e 9EE7     		b	.L11
 332              		.cfi_endproc
 333              	.LFE35:
 334              		.size	PACMAN, .-PACMAN
 335              		.section	.text.main,"ax",%progbits
 336              		.align	2
 337              		.global	main
 338              		.code	16
 339              		.thumb_func
 340              		.type	main, %function
 341              	main:
 342              	.LFB36:
  46:main.c        ****     
  47:main.c        **** }
  48:main.c        **** 
  49:main.c        **** int main()
  50:main.c        **** {
 343              		.loc 1 50 0
ARM GAS  C:\Users\quint\AppData\Local\Temp\ccshE9pX.s 			page 8


 344              		.cfi_startproc
 345              		@ args = 0, pretend = 0, frame = 8
 346              		@ frame_needed = 1, uses_anonymous_args = 0
 347 0000 80B5     		push	{r7, lr}
 348              		.cfi_def_cfa_offset 8
 349              		.cfi_offset 7, -8
 350              		.cfi_offset 14, -4
 351 0002 82B0     		sub	sp, sp, #8
 352              		.cfi_def_cfa_offset 16
 353 0004 00AF     		add	r7, sp, #0
 354              		.cfi_def_cfa_register 7
  51:main.c        ****     int16 i;       // counter variable -- int16 will take up less room than int32
  52:main.c        ****     int16 x = CENTER;  // x and y coordinates for center of circle--- This is defined in the header
 355              		.loc 1 52 0
 356 0006 BB1D     		adds	r3, r7, #6
 357 0008 3E22     		movs	r2, #62
 358 000a 1A80     		strh	r2, [r3]
  53:main.c        ****     int16 y = 62;
 359              		.loc 1 53 0
 360 000c 3B1D     		adds	r3, r7, #4
 361 000e 3E22     		movs	r2, #62
 362 0010 1A80     		strh	r2, [r3]
  54:main.c        **** 
  55:main.c        **** 	
  56:main.c        **** 	// Initialize LCD
  57:main.c        ****     GLCD_Start();  
 363              		.loc 1 57 0
 364 0012 FFF7FEFF 		bl	GLCD_Start
  58:main.c        ****     Backlight_Write(1);       // turn on backlight
 365              		.loc 1 58 0
 366 0016 0120     		movs	r0, #1
 367 0018 FFF7FEFF 		bl	Backlight_Write
  59:main.c        ****     
  60:main.c        ****     LED_Blue_Write(1); LED_Green_Write(1); LED_Red_Write(1); // turn off all LEDs (1 means off)
 368              		.loc 1 60 0
 369 001c 0120     		movs	r0, #1
 370 001e FFF7FEFF 		bl	LED_Blue_Write
 371 0022 0120     		movs	r0, #1
 372 0024 FFF7FEFF 		bl	LED_Green_Write
 373 0028 0120     		movs	r0, #1
 374 002a FFF7FEFF 		bl	LED_Red_Write
  61:main.c        ****  
  62:main.c        ****     
  63:main.c        ****     // clear LCD to crimson color
  64:main.c        ****     GLCD_Clear(GLCD_BLACK);
 375              		.loc 1 64 0
 376 002e 0020     		movs	r0, #0
 377 0030 FFF7FEFF 		bl	GLCD_Clear
  65:main.c        ****     //Call pacman function
  66:main.c        ****      PACMAN(0);
 378              		.loc 1 66 0
 379 0034 0020     		movs	r0, #0
 380 0036 FFF7FEFF 		bl	PACMAN
 381 003a 0023     		movs	r3, #0
  67:main.c        ****      //PACMAN(90);
  68:main.c        ****      //PACMAN(180);
  69:main.c        ****      //PACMAN(270);
ARM GAS  C:\Users\quint\AppData\Local\Temp\ccshE9pX.s 			page 9


  70:main.c        ****     
  71:main.c        ****     
  72:main.c        ****     
  73:main.c        ****     
  74:main.c        ****     
  75:main.c        ****    
  76:main.c        ****     
  77:main.c        ****     
  78:main.c        ****     
  79:main.c        ****     
  80:main.c        ****     
  81:main.c        ****     
  82:main.c        ****      
  83:main.c        ****         
  84:main.c        **** 	
  85:main.c        **** }
 382              		.loc 1 85 0
 383 003c 1800     		movs	r0, r3
 384 003e BD46     		mov	sp, r7
 385 0040 02B0     		add	sp, sp, #8
 386              		@ sp needed
 387 0042 80BD     		pop	{r7, pc}
 388              		.cfi_endproc
 389              	.LFE36:
 390              		.size	main, .-main
 391              		.text
 392              	.Letext0:
 393              		.file 2 "Generated_Source\\PSoC4/cytypes.h"
 394              		.file 3 "Generated_Source\\PSoC4/GLCD.h"