ARM GAS  C:\Users\quint\AppData\Local\Temp\ccuZWbLb.s 			page 1


   1              		.syntax unified
   2              		.cpu cortex-m0
   3              		.fpu softvfp
   4              		.eabi_attribute 20, 1
   5              		.eabi_attribute 21, 1
   6              		.eabi_attribute 23, 3
   7              		.eabi_attribute 24, 1
   8              		.eabi_attribute 25, 1
   9              		.eabi_attribute 26, 1
  10              		.eabi_attribute 30, 1
  11              		.eabi_attribute 34, 0
  12              		.eabi_attribute 18, 4
  13              		.thumb
  14              		.syntax unified
  15              		.file	"cyfitter_cfg.c"
  16              		.text
  17              	.Ltext0:
  18              		.cfi_sections	.debug_frame
  19              		.section	.text.cfg_write_bytes32,"ax",%progbits
  20              		.align	2
  21              		.code	16
  22              		.thumb_func
  23              		.type	cfg_write_bytes32, %function
  24              	cfg_write_bytes32:
  25              	.LFB3:
  26              		.file 1 "Generated_Source\\PSoC4\\cyfitter_cfg.c"
   1:Generated_Source\PSoC4/cyfitter_cfg.c **** 
   2:Generated_Source\PSoC4/cyfitter_cfg.c **** /*******************************************************************************
   3:Generated_Source\PSoC4/cyfitter_cfg.c **** * File Name: cyfitter_cfg.c
   4:Generated_Source\PSoC4/cyfitter_cfg.c **** * 
   5:Generated_Source\PSoC4/cyfitter_cfg.c **** * PSoC Creator  4.2
   6:Generated_Source\PSoC4/cyfitter_cfg.c **** *
   7:Generated_Source\PSoC4/cyfitter_cfg.c **** * Description:
   8:Generated_Source\PSoC4/cyfitter_cfg.c **** * This file contains device initialization code.
   9:Generated_Source\PSoC4/cyfitter_cfg.c **** * Except for the user defined sections in CyClockStartupError(), this file should not be modified.
  10:Generated_Source\PSoC4/cyfitter_cfg.c **** * This file is automatically generated by PSoC Creator.
  11:Generated_Source\PSoC4/cyfitter_cfg.c **** *
  12:Generated_Source\PSoC4/cyfitter_cfg.c **** ********************************************************************************
  13:Generated_Source\PSoC4/cyfitter_cfg.c **** * Copyright (c) 2007-2018 Cypress Semiconductor.  All rights reserved.
  14:Generated_Source\PSoC4/cyfitter_cfg.c **** * You may use this file only in accordance with the license, terms, conditions, 
  15:Generated_Source\PSoC4/cyfitter_cfg.c **** * disclaimers, and limitations in the end user license agreement accompanying 
  16:Generated_Source\PSoC4/cyfitter_cfg.c **** * the software package with which this file was provided.
  17:Generated_Source\PSoC4/cyfitter_cfg.c **** ********************************************************************************/
  18:Generated_Source\PSoC4/cyfitter_cfg.c **** 
  19:Generated_Source\PSoC4/cyfitter_cfg.c **** #include <string.h>
  20:Generated_Source\PSoC4/cyfitter_cfg.c **** #include "cytypes.h"
  21:Generated_Source\PSoC4/cyfitter_cfg.c **** #include "cydevice_trm.h"
  22:Generated_Source\PSoC4/cyfitter_cfg.c **** #include "cyfitter.h"
  23:Generated_Source\PSoC4/cyfitter_cfg.c **** #include "CyLib.h"
  24:Generated_Source\PSoC4/cyfitter_cfg.c **** #include "CyLFClk.h"
  25:Generated_Source\PSoC4/cyfitter_cfg.c **** #include "cyfitter_cfg.h"
  26:Generated_Source\PSoC4/cyfitter_cfg.c **** #include "cyapicallbacks.h"
  27:Generated_Source\PSoC4/cyfitter_cfg.c **** 
  28:Generated_Source\PSoC4/cyfitter_cfg.c **** 
  29:Generated_Source\PSoC4/cyfitter_cfg.c **** #if defined(__GNUC__) || defined(__ARMCC_VERSION)
  30:Generated_Source\PSoC4/cyfitter_cfg.c ****     #define CYPACKED 
  31:Generated_Source\PSoC4/cyfitter_cfg.c ****     #define CYPACKED_ATTR __attribute__ ((packed))
ARM GAS  C:\Users\quint\AppData\Local\Temp\ccuZWbLb.s 			page 2


  32:Generated_Source\PSoC4/cyfitter_cfg.c ****     #define CYALIGNED __attribute__ ((aligned))
  33:Generated_Source\PSoC4/cyfitter_cfg.c ****     #define CY_CFG_UNUSED __attribute__ ((unused))
  34:Generated_Source\PSoC4/cyfitter_cfg.c ****     #ifndef CY_CFG_SECTION
  35:Generated_Source\PSoC4/cyfitter_cfg.c ****         #define CY_CFG_SECTION __attribute__ ((section(".psocinit")))
  36:Generated_Source\PSoC4/cyfitter_cfg.c ****     #endif
  37:Generated_Source\PSoC4/cyfitter_cfg.c ****     
  38:Generated_Source\PSoC4/cyfitter_cfg.c ****     #if defined(__ARMCC_VERSION)
  39:Generated_Source\PSoC4/cyfitter_cfg.c ****         #define CY_CFG_MEMORY_BARRIER() __memory_changed()
  40:Generated_Source\PSoC4/cyfitter_cfg.c ****     #else
  41:Generated_Source\PSoC4/cyfitter_cfg.c ****         #define CY_CFG_MEMORY_BARRIER() __sync_synchronize()
  42:Generated_Source\PSoC4/cyfitter_cfg.c ****     #endif
  43:Generated_Source\PSoC4/cyfitter_cfg.c ****     
  44:Generated_Source\PSoC4/cyfitter_cfg.c **** #elif defined(__ICCARM__)
  45:Generated_Source\PSoC4/cyfitter_cfg.c ****     #include <intrinsics.h>
  46:Generated_Source\PSoC4/cyfitter_cfg.c **** 
  47:Generated_Source\PSoC4/cyfitter_cfg.c ****     #define CYPACKED __packed
  48:Generated_Source\PSoC4/cyfitter_cfg.c ****     #define CYPACKED_ATTR 
  49:Generated_Source\PSoC4/cyfitter_cfg.c ****     #define CYALIGNED _Pragma("data_alignment=4")
  50:Generated_Source\PSoC4/cyfitter_cfg.c ****     #define CY_CFG_UNUSED _Pragma("diag_suppress=Pe177")
  51:Generated_Source\PSoC4/cyfitter_cfg.c ****     #define CY_CFG_SECTION _Pragma("location=\".psocinit\"")
  52:Generated_Source\PSoC4/cyfitter_cfg.c ****     
  53:Generated_Source\PSoC4/cyfitter_cfg.c ****     #define CY_CFG_MEMORY_BARRIER() __DMB()
  54:Generated_Source\PSoC4/cyfitter_cfg.c ****     
  55:Generated_Source\PSoC4/cyfitter_cfg.c **** #else
  56:Generated_Source\PSoC4/cyfitter_cfg.c ****     #error Unsupported toolchain
  57:Generated_Source\PSoC4/cyfitter_cfg.c **** #endif
  58:Generated_Source\PSoC4/cyfitter_cfg.c **** 
  59:Generated_Source\PSoC4/cyfitter_cfg.c **** #ifndef CYCODE
  60:Generated_Source\PSoC4/cyfitter_cfg.c ****     #define CYCODE
  61:Generated_Source\PSoC4/cyfitter_cfg.c **** #endif
  62:Generated_Source\PSoC4/cyfitter_cfg.c **** #ifndef CYDATA
  63:Generated_Source\PSoC4/cyfitter_cfg.c ****     #define CYDATA
  64:Generated_Source\PSoC4/cyfitter_cfg.c **** #endif
  65:Generated_Source\PSoC4/cyfitter_cfg.c **** #ifndef CYFAR
  66:Generated_Source\PSoC4/cyfitter_cfg.c ****     #define CYFAR
  67:Generated_Source\PSoC4/cyfitter_cfg.c **** #endif
  68:Generated_Source\PSoC4/cyfitter_cfg.c **** #ifndef CYXDATA
  69:Generated_Source\PSoC4/cyfitter_cfg.c ****     #define CYXDATA
  70:Generated_Source\PSoC4/cyfitter_cfg.c **** #endif
  71:Generated_Source\PSoC4/cyfitter_cfg.c **** 
  72:Generated_Source\PSoC4/cyfitter_cfg.c **** 
  73:Generated_Source\PSoC4/cyfitter_cfg.c **** CY_CFG_UNUSED
  74:Generated_Source\PSoC4/cyfitter_cfg.c **** static void CYMEMZERO(void *s, size_t n);
  75:Generated_Source\PSoC4/cyfitter_cfg.c **** CY_CFG_UNUSED
  76:Generated_Source\PSoC4/cyfitter_cfg.c **** static void CYMEMZERO(void *s, size_t n)
  77:Generated_Source\PSoC4/cyfitter_cfg.c **** {
  78:Generated_Source\PSoC4/cyfitter_cfg.c **** 	(void)memset(s, 0, n);
  79:Generated_Source\PSoC4/cyfitter_cfg.c **** }
  80:Generated_Source\PSoC4/cyfitter_cfg.c **** CY_CFG_UNUSED
  81:Generated_Source\PSoC4/cyfitter_cfg.c **** static void CYCONFIGCPY(void *dest, const void *src, size_t n);
  82:Generated_Source\PSoC4/cyfitter_cfg.c **** CY_CFG_UNUSED
  83:Generated_Source\PSoC4/cyfitter_cfg.c **** static void CYCONFIGCPY(void *dest, const void *src, size_t n)
  84:Generated_Source\PSoC4/cyfitter_cfg.c **** {
  85:Generated_Source\PSoC4/cyfitter_cfg.c **** 	(void)memcpy(dest, src, n);
  86:Generated_Source\PSoC4/cyfitter_cfg.c **** }
  87:Generated_Source\PSoC4/cyfitter_cfg.c **** CY_CFG_UNUSED
  88:Generated_Source\PSoC4/cyfitter_cfg.c **** static void CYCONFIGCPYCODE(void *dest, const void *src, size_t n);
ARM GAS  C:\Users\quint\AppData\Local\Temp\ccuZWbLb.s 			page 3


  89:Generated_Source\PSoC4/cyfitter_cfg.c **** CY_CFG_UNUSED
  90:Generated_Source\PSoC4/cyfitter_cfg.c **** static void CYCONFIGCPYCODE(void *dest, const void *src, size_t n)
  91:Generated_Source\PSoC4/cyfitter_cfg.c **** {
  92:Generated_Source\PSoC4/cyfitter_cfg.c **** 	(void)memcpy(dest, src, n);
  93:Generated_Source\PSoC4/cyfitter_cfg.c **** }
  94:Generated_Source\PSoC4/cyfitter_cfg.c **** 
  95:Generated_Source\PSoC4/cyfitter_cfg.c **** 
  96:Generated_Source\PSoC4/cyfitter_cfg.c **** 
  97:Generated_Source\PSoC4/cyfitter_cfg.c **** 
  98:Generated_Source\PSoC4/cyfitter_cfg.c **** /* Clock startup error codes                                                   */
  99:Generated_Source\PSoC4/cyfitter_cfg.c **** #define CYCLOCKSTART_NO_ERROR    0u
 100:Generated_Source\PSoC4/cyfitter_cfg.c **** #define CYCLOCKSTART_XTAL_ERROR  1u
 101:Generated_Source\PSoC4/cyfitter_cfg.c **** #define CYCLOCKSTART_32KHZ_ERROR 2u
 102:Generated_Source\PSoC4/cyfitter_cfg.c **** #define CYCLOCKSTART_PLL_ERROR   3u
 103:Generated_Source\PSoC4/cyfitter_cfg.c **** #define CYCLOCKSTART_FLL_ERROR   4u
 104:Generated_Source\PSoC4/cyfitter_cfg.c **** #define CYCLOCKSTART_WCO_ERROR   5u
 105:Generated_Source\PSoC4/cyfitter_cfg.c **** 
 106:Generated_Source\PSoC4/cyfitter_cfg.c **** 
 107:Generated_Source\PSoC4/cyfitter_cfg.c **** #ifdef CY_NEED_CYCLOCKSTARTUPERROR
 108:Generated_Source\PSoC4/cyfitter_cfg.c **** /*******************************************************************************
 109:Generated_Source\PSoC4/cyfitter_cfg.c **** * Function Name: CyClockStartupError
 110:Generated_Source\PSoC4/cyfitter_cfg.c **** ********************************************************************************
 111:Generated_Source\PSoC4/cyfitter_cfg.c **** * Summary:
 112:Generated_Source\PSoC4/cyfitter_cfg.c **** *  If an error is encountered during clock configuration (crystal startup error,
 113:Generated_Source\PSoC4/cyfitter_cfg.c **** *  PLL lock error, etc.), the system will end up here.  Unless reimplemented by
 114:Generated_Source\PSoC4/cyfitter_cfg.c **** *  the customer, this function will stop in an infinite loop.
 115:Generated_Source\PSoC4/cyfitter_cfg.c **** *
 116:Generated_Source\PSoC4/cyfitter_cfg.c **** * Parameters:
 117:Generated_Source\PSoC4/cyfitter_cfg.c **** *   void
 118:Generated_Source\PSoC4/cyfitter_cfg.c **** *
 119:Generated_Source\PSoC4/cyfitter_cfg.c **** * Return:
 120:Generated_Source\PSoC4/cyfitter_cfg.c **** *   void
 121:Generated_Source\PSoC4/cyfitter_cfg.c **** *
 122:Generated_Source\PSoC4/cyfitter_cfg.c **** *******************************************************************************/
 123:Generated_Source\PSoC4/cyfitter_cfg.c **** CY_CFG_UNUSED
 124:Generated_Source\PSoC4/cyfitter_cfg.c **** static void CyClockStartupError(uint8 errorCode);
 125:Generated_Source\PSoC4/cyfitter_cfg.c **** CY_CFG_UNUSED
 126:Generated_Source\PSoC4/cyfitter_cfg.c **** static void CyClockStartupError(uint8 errorCode)
 127:Generated_Source\PSoC4/cyfitter_cfg.c **** {
 128:Generated_Source\PSoC4/cyfitter_cfg.c ****     /* To remove the compiler warning if errorCode not used.                */
 129:Generated_Source\PSoC4/cyfitter_cfg.c ****     errorCode = errorCode;
 130:Generated_Source\PSoC4/cyfitter_cfg.c **** 
 131:Generated_Source\PSoC4/cyfitter_cfg.c ****     /* If we have a clock startup error (bad MHz crystal, PLL lock, etc.),  */
 132:Generated_Source\PSoC4/cyfitter_cfg.c ****     /* we will end up here to allow the customer to implement something to  */
 133:Generated_Source\PSoC4/cyfitter_cfg.c ****     /* deal with the clock condition.                                       */
 134:Generated_Source\PSoC4/cyfitter_cfg.c **** 
 135:Generated_Source\PSoC4/cyfitter_cfg.c **** #ifdef CY_CFG_CLOCK_STARTUP_ERROR_CALLBACK
 136:Generated_Source\PSoC4/cyfitter_cfg.c ****     CY_CFG_Clock_Startup_ErrorCallback();
 137:Generated_Source\PSoC4/cyfitter_cfg.c **** #else
 138:Generated_Source\PSoC4/cyfitter_cfg.c ****     /*  If not using CY_CFG_CLOCK_STARTUP_ERROR_CALLBACK, place your clock startup code here. */
 139:Generated_Source\PSoC4/cyfitter_cfg.c ****     /* `#START CyClockStartupError` */
 140:Generated_Source\PSoC4/cyfitter_cfg.c **** 
 141:Generated_Source\PSoC4/cyfitter_cfg.c **** 
 142:Generated_Source\PSoC4/cyfitter_cfg.c **** 
 143:Generated_Source\PSoC4/cyfitter_cfg.c ****     /* `#END` */
 144:Generated_Source\PSoC4/cyfitter_cfg.c **** 
 145:Generated_Source\PSoC4/cyfitter_cfg.c ****     while(1) {}
ARM GAS  C:\Users\quint\AppData\Local\Temp\ccuZWbLb.s 			page 4


 146:Generated_Source\PSoC4/cyfitter_cfg.c **** #endif /* CY_CFG_CLOCK_STARTUP_ERROR_CALLBACK */
 147:Generated_Source\PSoC4/cyfitter_cfg.c **** }
 148:Generated_Source\PSoC4/cyfitter_cfg.c **** #endif
 149:Generated_Source\PSoC4/cyfitter_cfg.c **** 
 150:Generated_Source\PSoC4/cyfitter_cfg.c **** #define CY_CFG_BASE_ADDR_COUNT 9u
 151:Generated_Source\PSoC4/cyfitter_cfg.c **** CYPACKED typedef struct
 152:Generated_Source\PSoC4/cyfitter_cfg.c **** {
 153:Generated_Source\PSoC4/cyfitter_cfg.c **** 	uint8 offset;
 154:Generated_Source\PSoC4/cyfitter_cfg.c **** 	uint8 value;
 155:Generated_Source\PSoC4/cyfitter_cfg.c **** } CYPACKED_ATTR cy_cfg_addrvalue_t;
 156:Generated_Source\PSoC4/cyfitter_cfg.c **** 
 157:Generated_Source\PSoC4/cyfitter_cfg.c **** 
 158:Generated_Source\PSoC4/cyfitter_cfg.c **** 
 159:Generated_Source\PSoC4/cyfitter_cfg.c **** /*******************************************************************************
 160:Generated_Source\PSoC4/cyfitter_cfg.c **** * Function Name: cfg_write_bytes32
 161:Generated_Source\PSoC4/cyfitter_cfg.c **** ********************************************************************************
 162:Generated_Source\PSoC4/cyfitter_cfg.c **** * Summary:
 163:Generated_Source\PSoC4/cyfitter_cfg.c **** *  This function is used for setting up the chip configuration areas that
 164:Generated_Source\PSoC4/cyfitter_cfg.c **** *  contain relatively sparse data.
 165:Generated_Source\PSoC4/cyfitter_cfg.c **** *
 166:Generated_Source\PSoC4/cyfitter_cfg.c **** * Parameters:
 167:Generated_Source\PSoC4/cyfitter_cfg.c **** *   void
 168:Generated_Source\PSoC4/cyfitter_cfg.c **** *
 169:Generated_Source\PSoC4/cyfitter_cfg.c **** * Return:
 170:Generated_Source\PSoC4/cyfitter_cfg.c **** *   void
 171:Generated_Source\PSoC4/cyfitter_cfg.c **** *
 172:Generated_Source\PSoC4/cyfitter_cfg.c **** *******************************************************************************/
 173:Generated_Source\PSoC4/cyfitter_cfg.c **** static void cfg_write_bytes32(const uint32 addr_table[], const cy_cfg_addrvalue_t data_table[]);
 174:Generated_Source\PSoC4/cyfitter_cfg.c **** static void cfg_write_bytes32(const uint32 addr_table[], const cy_cfg_addrvalue_t data_table[])
 175:Generated_Source\PSoC4/cyfitter_cfg.c **** {
  27              		.loc 1 175 0
  28              		.cfi_startproc
  29              		@ args = 0, pretend = 0, frame = 0
  30              		@ frame_needed = 0, uses_anonymous_args = 0
  31              	.LVL0:
  32 0000 F0B5     		push	{r4, r5, r6, r7, lr}
  33              		.cfi_def_cfa_offset 20
  34              		.cfi_offset 4, -20
  35              		.cfi_offset 5, -16
  36              		.cfi_offset 6, -12
  37              		.cfi_offset 7, -8
  38              		.cfi_offset 14, -4
  39              	.LVL1:
 176:Generated_Source\PSoC4/cyfitter_cfg.c **** 	/* For 32-bit little-endian architectures */
 177:Generated_Source\PSoC4/cyfitter_cfg.c **** 	uint32 i, j = 0u;
  40              		.loc 1 177 0
  41 0002 0025     		movs	r5, #0
 178:Generated_Source\PSoC4/cyfitter_cfg.c **** 	for (i = 0u; i < CY_CFG_BASE_ADDR_COUNT; i++)
  42              		.loc 1 178 0
  43 0004 0027     		movs	r7, #0
  44 0006 11E0     		b	.L2
  45              	.LVL2:
  46              	.L5:
  47              	.LBB2:
 179:Generated_Source\PSoC4/cyfitter_cfg.c **** 	{
 180:Generated_Source\PSoC4/cyfitter_cfg.c **** 		uint32 baseAddr = addr_table[i];
  48              		.loc 1 180 0
ARM GAS  C:\Users\quint\AppData\Local\Temp\ccuZWbLb.s 			page 5


  49 0008 BB00     		lsls	r3, r7, #2
  50 000a C658     		ldr	r6, [r0, r3]
  51              	.LVL3:
 181:Generated_Source\PSoC4/cyfitter_cfg.c **** 		uint8 count = (uint8)baseAddr;
  52              		.loc 1 181 0
  53 000c F3B2     		uxtb	r3, r6
  54              	.LVL4:
 182:Generated_Source\PSoC4/cyfitter_cfg.c **** 		baseAddr &= 0xFFFFFF00u;
  55              		.loc 1 182 0
  56 000e FF22     		movs	r2, #255
  57 0010 9643     		bics	r6, r2
  58              	.LVL5:
 183:Generated_Source\PSoC4/cyfitter_cfg.c **** 		while (count != 0u)
  59              		.loc 1 183 0
  60 0012 08E0     		b	.L3
  61              	.L4:
 184:Generated_Source\PSoC4/cyfitter_cfg.c **** 		{
 185:Generated_Source\PSoC4/cyfitter_cfg.c **** 			CY_SET_REG8((void *)(baseAddr + data_table[j].offset), data_table[j].value);
  62              		.loc 1 185 0
  63 0014 6A00     		lsls	r2, r5, #1
  64 0016 8A18     		adds	r2, r1, r2
  65 0018 1478     		ldrb	r4, [r2]
  66 001a A419     		adds	r4, r4, r6
  67 001c 5278     		ldrb	r2, [r2, #1]
  68 001e 2270     		strb	r2, [r4]
 186:Generated_Source\PSoC4/cyfitter_cfg.c **** 			j++;
  69              		.loc 1 186 0
  70 0020 0135     		adds	r5, r5, #1
  71              	.LVL6:
 187:Generated_Source\PSoC4/cyfitter_cfg.c **** 			count--;
  72              		.loc 1 187 0
  73 0022 013B     		subs	r3, r3, #1
  74              	.LVL7:
  75 0024 DBB2     		uxtb	r3, r3
  76              	.LVL8:
  77              	.L3:
 183:Generated_Source\PSoC4/cyfitter_cfg.c **** 		{
  78              		.loc 1 183 0
  79 0026 002B     		cmp	r3, #0
  80 0028 F4D1     		bne	.L4
  81              	.LBE2:
 178:Generated_Source\PSoC4/cyfitter_cfg.c **** 	{
  82              		.loc 1 178 0 discriminator 2
  83 002a 0137     		adds	r7, r7, #1
  84              	.LVL9:
  85              	.L2:
 178:Generated_Source\PSoC4/cyfitter_cfg.c **** 	{
  86              		.loc 1 178 0 is_stmt 0 discriminator 1
  87 002c 082F     		cmp	r7, #8
  88 002e EBD9     		bls	.L5
 188:Generated_Source\PSoC4/cyfitter_cfg.c **** 		}
 189:Generated_Source\PSoC4/cyfitter_cfg.c **** 	}
 190:Generated_Source\PSoC4/cyfitter_cfg.c **** }
  89              		.loc 1 190 0 is_stmt 1
  90              		@ sp needed
  91              	.LVL10:
  92              	.LVL11:
ARM GAS  C:\Users\quint\AppData\Local\Temp\ccuZWbLb.s 			page 6


  93 0030 F0BD     		pop	{r4, r5, r6, r7, pc}
  94              		.cfi_endproc
  95              	.LFE3:
  96              		.size	cfg_write_bytes32, .-cfg_write_bytes32
  97 0032 C046     		.section	.text.CYMEMZERO,"ax",%progbits
  98              		.align	2
  99              		.code	16
 100              		.thumb_func
 101              		.type	CYMEMZERO, %function
 102              	CYMEMZERO:
 103              	.LFB0:
  77:Generated_Source\PSoC4/cyfitter_cfg.c **** 	(void)memset(s, 0, n);
 104              		.loc 1 77 0
 105              		.cfi_startproc
 106              		@ args = 0, pretend = 0, frame = 0
 107              		@ frame_needed = 0, uses_anonymous_args = 0
 108              	.LVL12:
 109 0000 10B5     		push	{r4, lr}
 110              		.cfi_def_cfa_offset 8
 111              		.cfi_offset 4, -8
 112              		.cfi_offset 14, -4
 113 0002 0A00     		movs	r2, r1
  78:Generated_Source\PSoC4/cyfitter_cfg.c **** }
 114              		.loc 1 78 0
 115 0004 0021     		movs	r1, #0
 116              	.LVL13:
 117 0006 FFF7FEFF 		bl	memset
 118              	.LVL14:
  79:Generated_Source\PSoC4/cyfitter_cfg.c **** CY_CFG_UNUSED
 119              		.loc 1 79 0
 120              		@ sp needed
 121 000a 10BD     		pop	{r4, pc}
 122              		.cfi_endproc
 123              	.LFE0:
 124              		.size	CYMEMZERO, .-CYMEMZERO
 125              		.section	.text.CYCONFIGCPYCODE,"ax",%progbits
 126              		.align	2
 127              		.code	16
 128              		.thumb_func
 129              		.type	CYCONFIGCPYCODE, %function
 130              	CYCONFIGCPYCODE:
 131              	.LFB2:
  91:Generated_Source\PSoC4/cyfitter_cfg.c **** 	(void)memcpy(dest, src, n);
 132              		.loc 1 91 0
 133              		.cfi_startproc
 134              		@ args = 0, pretend = 0, frame = 0
 135              		@ frame_needed = 0, uses_anonymous_args = 0
 136              	.LVL15:
 137 0000 10B5     		push	{r4, lr}
 138              		.cfi_def_cfa_offset 8
 139              		.cfi_offset 4, -8
 140              		.cfi_offset 14, -4
  92:Generated_Source\PSoC4/cyfitter_cfg.c **** }
 141              		.loc 1 92 0
 142 0002 FFF7FEFF 		bl	memcpy
 143              	.LVL16:
  93:Generated_Source\PSoC4/cyfitter_cfg.c **** 
ARM GAS  C:\Users\quint\AppData\Local\Temp\ccuZWbLb.s 			page 7


 144              		.loc 1 93 0
 145              		@ sp needed
 146 0006 10BD     		pop	{r4, pc}
 147              		.cfi_endproc
 148              	.LFE2:
 149              		.size	CYCONFIGCPYCODE, .-CYCONFIGCPYCODE
 150              		.section	.psocinit,"ax",%progbits
 151              		.align	2
 152              		.code	16
 153              		.thumb_func
 154              		.type	ClockSetup, %function
 155              	ClockSetup:
 156              	.LFB4:
 191:Generated_Source\PSoC4/cyfitter_cfg.c **** 
 192:Generated_Source\PSoC4/cyfitter_cfg.c **** 
 193:Generated_Source\PSoC4/cyfitter_cfg.c **** /*******************************************************************************
 194:Generated_Source\PSoC4/cyfitter_cfg.c **** * Function Name: ClockSetup
 195:Generated_Source\PSoC4/cyfitter_cfg.c **** ********************************************************************************
 196:Generated_Source\PSoC4/cyfitter_cfg.c **** *
 197:Generated_Source\PSoC4/cyfitter_cfg.c **** * Summary:
 198:Generated_Source\PSoC4/cyfitter_cfg.c **** *   Performs the initialization of all of the clocks in the device based on the
 199:Generated_Source\PSoC4/cyfitter_cfg.c **** *   settings in the Clock tab of the DWR.  This includes enabling the requested
 200:Generated_Source\PSoC4/cyfitter_cfg.c **** *   clocks and setting the necessary dividers to produce the desired frequency. 
 201:Generated_Source\PSoC4/cyfitter_cfg.c **** *
 202:Generated_Source\PSoC4/cyfitter_cfg.c **** * Parameters:
 203:Generated_Source\PSoC4/cyfitter_cfg.c **** *   void
 204:Generated_Source\PSoC4/cyfitter_cfg.c **** *
 205:Generated_Source\PSoC4/cyfitter_cfg.c **** * Return:
 206:Generated_Source\PSoC4/cyfitter_cfg.c **** *   void
 207:Generated_Source\PSoC4/cyfitter_cfg.c **** *
 208:Generated_Source\PSoC4/cyfitter_cfg.c **** *******************************************************************************/
 209:Generated_Source\PSoC4/cyfitter_cfg.c **** static void ClockSetup(void);
 210:Generated_Source\PSoC4/cyfitter_cfg.c **** CY_CFG_SECTION
 211:Generated_Source\PSoC4/cyfitter_cfg.c **** static void ClockSetup(void)
 212:Generated_Source\PSoC4/cyfitter_cfg.c **** {
 157              		.loc 1 212 0
 158              		.cfi_startproc
 159              		@ args = 0, pretend = 0, frame = 0
 160              		@ frame_needed = 0, uses_anonymous_args = 0
 161 0000 70B5     		push	{r4, r5, r6, lr}
 162              		.cfi_def_cfa_offset 16
 163              		.cfi_offset 4, -16
 164              		.cfi_offset 5, -12
 165              		.cfi_offset 6, -8
 166              		.cfi_offset 14, -4
 213:Generated_Source\PSoC4/cyfitter_cfg.c **** 	/* Enable HALF_EN before trimming for the flash accelerator. */
 214:Generated_Source\PSoC4/cyfitter_cfg.c **** 	CY_SET_REG32((void CYXDATA *)(CYREG_CLK_SELECT), (CY_GET_REG32((void *)CYREG_CLK_SELECT) | 0x00040
 167              		.loc 1 214 0
 168 0002 194C     		ldr	r4, .L9
 169 0004 2368     		ldr	r3, [r4]
 170 0006 8022     		movs	r2, #128
 171 0008 D202     		lsls	r2, r2, #11
 172 000a 1343     		orrs	r3, r2
 173 000c 2360     		str	r3, [r4]
 215:Generated_Source\PSoC4/cyfitter_cfg.c **** 
 216:Generated_Source\PSoC4/cyfitter_cfg.c **** 	/* Setup and trim IMO based on desired frequency. */
 217:Generated_Source\PSoC4/cyfitter_cfg.c **** 	CySysClkWriteImoFreq(24u);
ARM GAS  C:\Users\quint\AppData\Local\Temp\ccuZWbLb.s 			page 8


 174              		.loc 1 217 0
 175 000e 1820     		movs	r0, #24
 176 0010 FFF7FEFF 		bl	CySysClkWriteImoFreq
 177              	.LVL17:
 218:Generated_Source\PSoC4/cyfitter_cfg.c **** 
 219:Generated_Source\PSoC4/cyfitter_cfg.c **** 	/* Disable HALF_EN since it is not required at this IMO frequency. */
 220:Generated_Source\PSoC4/cyfitter_cfg.c **** 	CY_SET_REG32((void CYXDATA *)(CYREG_CLK_SELECT), (CY_GET_REG32((void *)CYREG_CLK_SELECT) & 0xFFFBF
 178              		.loc 1 220 0
 179 0014 2268     		ldr	r2, [r4]
 180 0016 154B     		ldr	r3, .L9+4
 181 0018 1340     		ands	r3, r2
 182 001a 2360     		str	r3, [r4]
 221:Generated_Source\PSoC4/cyfitter_cfg.c **** 	/* CYDEV_CLK_ILO_CONFIG Starting address: CYDEV_CLK_ILO_CONFIG */
 222:Generated_Source\PSoC4/cyfitter_cfg.c **** 	CY_SET_REG32((void *)(CYREG_CLK_ILO_CONFIG), 0x80000006u);
 183              		.loc 1 222 0
 184 001c 144A     		ldr	r2, .L9+8
 185 001e 154B     		ldr	r3, .L9+12
 186 0020 1A60     		str	r2, [r3]
 223:Generated_Source\PSoC4/cyfitter_cfg.c **** 
 224:Generated_Source\PSoC4/cyfitter_cfg.c **** 
 225:Generated_Source\PSoC4/cyfitter_cfg.c **** 	/* CYDEV_CLK_SELECT00 Starting address: CYDEV_CLK_SELECT00 */
 226:Generated_Source\PSoC4/cyfitter_cfg.c **** 	CY_SET_REG32((void *)(CYREG_CLK_SELECT02), 0x00000020u);
 187              		.loc 1 226 0
 188 0022 2022     		movs	r2, #32
 189 0024 144B     		ldr	r3, .L9+16
 190 0026 1A60     		str	r2, [r3]
 227:Generated_Source\PSoC4/cyfitter_cfg.c **** 	CY_SET_REG32((void *)(CYREG_CLK_SELECT08), 0x00000030u);
 191              		.loc 1 227 0
 192 0028 1032     		adds	r2, r2, #16
 193 002a 144B     		ldr	r3, .L9+20
 194 002c 1A60     		str	r2, [r3]
 228:Generated_Source\PSoC4/cyfitter_cfg.c **** 	CY_SET_REG32((void *)(CYREG_CLK_SELECT12), 0x00000010u);
 195              		.loc 1 228 0
 196 002e 203A     		subs	r2, r2, #32
 197 0030 134B     		ldr	r3, .L9+24
 198 0032 1A60     		str	r2, [r3]
 229:Generated_Source\PSoC4/cyfitter_cfg.c **** 
 230:Generated_Source\PSoC4/cyfitter_cfg.c **** 	/* CYDEV_CLK_IMO_CONFIG Starting address: CYDEV_CLK_IMO_CONFIG */
 231:Generated_Source\PSoC4/cyfitter_cfg.c **** 	CY_SET_REG32((void *)(CYREG_CLK_IMO_CONFIG), 0x80000000u);
 199              		.loc 1 231 0
 200 0034 8022     		movs	r2, #128
 201 0036 1206     		lsls	r2, r2, #24
 202 0038 124B     		ldr	r3, .L9+28
 203 003a 1A60     		str	r2, [r3]
 232:Generated_Source\PSoC4/cyfitter_cfg.c **** 
 233:Generated_Source\PSoC4/cyfitter_cfg.c **** 	/* CYDEV_CLK_SELECT Starting address: CYDEV_CLK_SELECT */
 234:Generated_Source\PSoC4/cyfitter_cfg.c **** 	CY_SET_REG32((void *)(CYREG_CLK_SELECT), 0x00000000u);
 204              		.loc 1 234 0
 205 003c 0025     		movs	r5, #0
 206 003e 2560     		str	r5, [r4]
 235:Generated_Source\PSoC4/cyfitter_cfg.c **** 
 236:Generated_Source\PSoC4/cyfitter_cfg.c **** 	/* CYDEV_CLK_DIVIDER_A00 Starting address: CYDEV_CLK_DIVIDER_A00 */
 237:Generated_Source\PSoC4/cyfitter_cfg.c **** 	CY_SET_REG32((void *)(CYREG_CLK_DIVIDER_A00), 0x80000001u);
 207              		.loc 1 237 0
 208 0040 114A     		ldr	r2, .L9+32
 209 0042 124B     		ldr	r3, .L9+36
 210 0044 1A60     		str	r2, [r3]
ARM GAS  C:\Users\quint\AppData\Local\Temp\ccuZWbLb.s 			page 9


 238:Generated_Source\PSoC4/cyfitter_cfg.c **** 
 239:Generated_Source\PSoC4/cyfitter_cfg.c **** 	/* CYDEV_CLK_DIVIDER_B00 Starting address: CYDEV_CLK_DIVIDER_B00 */
 240:Generated_Source\PSoC4/cyfitter_cfg.c **** 	CY_SET_REG32((void *)(CYREG_CLK_DIVIDER_B00), 0x8000000Eu);
 211              		.loc 1 240 0
 212 0046 124A     		ldr	r2, .L9+40
 213 0048 124B     		ldr	r3, .L9+44
 214 004a 1A60     		str	r2, [r3]
 241:Generated_Source\PSoC4/cyfitter_cfg.c **** 
 242:Generated_Source\PSoC4/cyfitter_cfg.c **** 	/* CYDEV_CLK_DIVIDER_C00 Starting address: CYDEV_CLK_DIVIDER_C00 */
 243:Generated_Source\PSoC4/cyfitter_cfg.c **** 	CY_SET_REG32((void *)(CYREG_CLK_DIVIDER_C00), 0x8000095Fu);
 215              		.loc 1 243 0
 216 004c 124A     		ldr	r2, .L9+48
 217 004e 134B     		ldr	r3, .L9+52
 218 0050 1A60     		str	r2, [r3]
 244:Generated_Source\PSoC4/cyfitter_cfg.c **** 
 245:Generated_Source\PSoC4/cyfitter_cfg.c **** 	(void)CyIntSetVector(9u, &CySysWdtIsr);
 219              		.loc 1 245 0
 220 0052 1349     		ldr	r1, .L9+56
 221 0054 0920     		movs	r0, #9
 222 0056 FFF7FEFF 		bl	CyIntSetVector
 223              	.LVL18:
 246:Generated_Source\PSoC4/cyfitter_cfg.c **** 	CyIntEnable(9u);
 224              		.loc 1 246 0
 225 005a 0920     		movs	r0, #9
 226 005c FFF7FEFF 		bl	CyIntEnable
 227              	.LVL19:
 247:Generated_Source\PSoC4/cyfitter_cfg.c **** 	CY_SET_REG32((void *)(CYREG_WDT_CONFIG), 0x00000000u);
 228              		.loc 1 247 0
 229 0060 104B     		ldr	r3, .L9+60
 230 0062 1D60     		str	r5, [r3]
 248:Generated_Source\PSoC4/cyfitter_cfg.c **** }
 231              		.loc 1 248 0
 232              		@ sp needed
 233 0064 70BD     		pop	{r4, r5, r6, pc}
 234              	.L10:
 235 0066 C046     		.align	2
 236              	.L9:
 237 0068 00010B40 		.word	1074462976
 238 006c FFFFFBFF 		.word	-262145
 239 0070 06000080 		.word	-2147483642
 240 0074 04010B40 		.word	1074462980
 241 0078 08020240 		.word	1073873416
 242 007c 20020240 		.word	1073873440
 243 0080 30020240 		.word	1073873456
 244 0084 08010B40 		.word	1074462984
 245 0088 01000080 		.word	-2147483647
 246 008c 00000240 		.word	1073872896
 247 0090 0E000080 		.word	-2147483634
 248 0094 40000240 		.word	1073872960
 249 0098 5F090080 		.word	-2147481249
 250 009c 80000240 		.word	1073873024
 251 00a0 00000000 		.word	CySysWdtIsr
 252 00a4 0C020B40 		.word	1074463244
 253              		.cfi_endproc
 254              	.LFE4:
 255              		.size	ClockSetup, .-ClockSetup
 256              		.align	2
ARM GAS  C:\Users\quint\AppData\Local\Temp\ccuZWbLb.s 			page 10


 257              		.global	cyfitter_cfg
 258              		.code	16
 259              		.thumb_func
 260              		.type	cyfitter_cfg, %function
 261              	cyfitter_cfg:
 262              	.LFB6:
 249:Generated_Source\PSoC4/cyfitter_cfg.c **** 
 250:Generated_Source\PSoC4/cyfitter_cfg.c **** 
 251:Generated_Source\PSoC4/cyfitter_cfg.c **** /* Analog API Functions */
 252:Generated_Source\PSoC4/cyfitter_cfg.c **** 
 253:Generated_Source\PSoC4/cyfitter_cfg.c **** 
 254:Generated_Source\PSoC4/cyfitter_cfg.c **** /*******************************************************************************
 255:Generated_Source\PSoC4/cyfitter_cfg.c **** * Function Name: AnalogSetDefault
 256:Generated_Source\PSoC4/cyfitter_cfg.c **** ********************************************************************************
 257:Generated_Source\PSoC4/cyfitter_cfg.c **** *
 258:Generated_Source\PSoC4/cyfitter_cfg.c **** * Summary:
 259:Generated_Source\PSoC4/cyfitter_cfg.c **** *  Sets up the analog portions of the chip to default values based on chip
 260:Generated_Source\PSoC4/cyfitter_cfg.c **** *  configuration options from the project.
 261:Generated_Source\PSoC4/cyfitter_cfg.c **** *
 262:Generated_Source\PSoC4/cyfitter_cfg.c **** * Parameters:
 263:Generated_Source\PSoC4/cyfitter_cfg.c **** *  void
 264:Generated_Source\PSoC4/cyfitter_cfg.c **** *
 265:Generated_Source\PSoC4/cyfitter_cfg.c **** * Return:
 266:Generated_Source\PSoC4/cyfitter_cfg.c **** *  void
 267:Generated_Source\PSoC4/cyfitter_cfg.c **** *
 268:Generated_Source\PSoC4/cyfitter_cfg.c **** *******************************************************************************/
 269:Generated_Source\PSoC4/cyfitter_cfg.c **** static void AnalogSetDefault(void);
 270:Generated_Source\PSoC4/cyfitter_cfg.c **** static void AnalogSetDefault(void)
 271:Generated_Source\PSoC4/cyfitter_cfg.c **** {
 272:Generated_Source\PSoC4/cyfitter_cfg.c **** }
 273:Generated_Source\PSoC4/cyfitter_cfg.c **** 
 274:Generated_Source\PSoC4/cyfitter_cfg.c **** 
 275:Generated_Source\PSoC4/cyfitter_cfg.c **** 
 276:Generated_Source\PSoC4/cyfitter_cfg.c **** 
 277:Generated_Source\PSoC4/cyfitter_cfg.c **** /*******************************************************************************
 278:Generated_Source\PSoC4/cyfitter_cfg.c **** * Function Name: cyfitter_cfg
 279:Generated_Source\PSoC4/cyfitter_cfg.c **** ********************************************************************************
 280:Generated_Source\PSoC4/cyfitter_cfg.c **** * Summary:
 281:Generated_Source\PSoC4/cyfitter_cfg.c **** *  This function is called by the start-up code for the selected device. It
 282:Generated_Source\PSoC4/cyfitter_cfg.c **** *  performs all of the necessary device configuration based on the design
 283:Generated_Source\PSoC4/cyfitter_cfg.c **** *  settings.  This includes settings from the Design Wide Resources (DWR) such
 284:Generated_Source\PSoC4/cyfitter_cfg.c **** *  as Clocks and Pins as well as any component configuration that is necessary.
 285:Generated_Source\PSoC4/cyfitter_cfg.c **** *
 286:Generated_Source\PSoC4/cyfitter_cfg.c **** * Parameters:
 287:Generated_Source\PSoC4/cyfitter_cfg.c **** *   void
 288:Generated_Source\PSoC4/cyfitter_cfg.c **** *
 289:Generated_Source\PSoC4/cyfitter_cfg.c **** * Return:
 290:Generated_Source\PSoC4/cyfitter_cfg.c **** *   void
 291:Generated_Source\PSoC4/cyfitter_cfg.c **** *
 292:Generated_Source\PSoC4/cyfitter_cfg.c **** *******************************************************************************/
 293:Generated_Source\PSoC4/cyfitter_cfg.c **** CY_CFG_SECTION
 294:Generated_Source\PSoC4/cyfitter_cfg.c **** void cyfitter_cfg(void)
 295:Generated_Source\PSoC4/cyfitter_cfg.c **** {
 263              		.loc 1 295 0
 264              		.cfi_startproc
 265              		@ args = 0, pretend = 0, frame = 0
 266              		@ frame_needed = 0, uses_anonymous_args = 0
ARM GAS  C:\Users\quint\AppData\Local\Temp\ccuZWbLb.s 			page 11


 267 00a8 70B5     		push	{r4, r5, r6, lr}
 268              		.cfi_def_cfa_offset 16
 269              		.cfi_offset 4, -16
 270              		.cfi_offset 5, -12
 271              		.cfi_offset 6, -8
 272              		.cfi_offset 14, -4
 296:Generated_Source\PSoC4/cyfitter_cfg.c **** 	/* Disable interrupts by default. Let user enable if/when they want. */
 297:Generated_Source\PSoC4/cyfitter_cfg.c **** 	CyGlobalIntDisable;
 273              		.loc 1 297 0
 274              		.syntax divided
 275              	@ 297 "Generated_Source\PSoC4\cyfitter_cfg.c" 1
 276 00aa 72B6     		CPSID   i
 277              	@ 0 "" 2
 298:Generated_Source\PSoC4/cyfitter_cfg.c **** 
 299:Generated_Source\PSoC4/cyfitter_cfg.c **** 	/* Enable the clock in the interrupt controller for the routed interrupts */
 300:Generated_Source\PSoC4/cyfitter_cfg.c **** 	CY_SET_REG8((void *)CYREG_UDB_UDBIF_INT_CLK_CTL, 0x01u);
 278              		.loc 1 300 0
 279              		.thumb
 280              		.syntax unified
 281 00ac 0122     		movs	r2, #1
 282 00ae 3B4B     		ldr	r3, .L16
 283 00b0 1A70     		strb	r2, [r3]
 284              	.LVL20:
 285              	.LBB3:
 301:Generated_Source\PSoC4/cyfitter_cfg.c **** 	{
 302:Generated_Source\PSoC4/cyfitter_cfg.c **** 		static const uint32 CYCODE cy_cfg_addr_table[] = {
 303:Generated_Source\PSoC4/cyfitter_cfg.c **** 			0x400F0001u, /* Base address: 0x400F0000 Count: 1 */
 304:Generated_Source\PSoC4/cyfitter_cfg.c **** 			0x400F3044u, /* Base address: 0x400F3000 Count: 68 */
 305:Generated_Source\PSoC4/cyfitter_cfg.c **** 			0x400F312Du, /* Base address: 0x400F3100 Count: 45 */
 306:Generated_Source\PSoC4/cyfitter_cfg.c **** 			0x400F321Au, /* Base address: 0x400F3200 Count: 26 */
 307:Generated_Source\PSoC4/cyfitter_cfg.c **** 			0x400F334Du, /* Base address: 0x400F3300 Count: 77 */
 308:Generated_Source\PSoC4/cyfitter_cfg.c **** 			0x400F4006u, /* Base address: 0x400F4000 Count: 6 */
 309:Generated_Source\PSoC4/cyfitter_cfg.c **** 			0x400F4103u, /* Base address: 0x400F4100 Count: 3 */
 310:Generated_Source\PSoC4/cyfitter_cfg.c **** 			0x400F430Du, /* Base address: 0x400F4300 Count: 13 */
 311:Generated_Source\PSoC4/cyfitter_cfg.c **** 			0x400F6002u, /* Base address: 0x400F6000 Count: 2 */
 312:Generated_Source\PSoC4/cyfitter_cfg.c **** 		};
 313:Generated_Source\PSoC4/cyfitter_cfg.c **** 
 314:Generated_Source\PSoC4/cyfitter_cfg.c **** 		static const cy_cfg_addrvalue_t CYCODE cy_cfg_data_table[] = {
 315:Generated_Source\PSoC4/cyfitter_cfg.c **** 			{0x82u, 0x11u},
 316:Generated_Source\PSoC4/cyfitter_cfg.c **** 			{0x00u, 0x02u},
 317:Generated_Source\PSoC4/cyfitter_cfg.c **** 			{0x02u, 0x0Du},
 318:Generated_Source\PSoC4/cyfitter_cfg.c **** 			{0x04u, 0x93u},
 319:Generated_Source\PSoC4/cyfitter_cfg.c **** 			{0x06u, 0x2Cu},
 320:Generated_Source\PSoC4/cyfitter_cfg.c **** 			{0x0Cu, 0x40u},
 321:Generated_Source\PSoC4/cyfitter_cfg.c **** 			{0x18u, 0xC9u},
 322:Generated_Source\PSoC4/cyfitter_cfg.c **** 			{0x1Au, 0x06u},
 323:Generated_Source\PSoC4/cyfitter_cfg.c **** 			{0x28u, 0xE5u},
 324:Generated_Source\PSoC4/cyfitter_cfg.c **** 			{0x2Au, 0x1Au},
 325:Generated_Source\PSoC4/cyfitter_cfg.c **** 			{0x30u, 0x0Fu},
 326:Generated_Source\PSoC4/cyfitter_cfg.c **** 			{0x34u, 0x70u},
 327:Generated_Source\PSoC4/cyfitter_cfg.c **** 			{0x36u, 0x80u},
 328:Generated_Source\PSoC4/cyfitter_cfg.c **** 			{0x3Au, 0x22u},
 329:Generated_Source\PSoC4/cyfitter_cfg.c **** 			{0x3Eu, 0x40u},
 330:Generated_Source\PSoC4/cyfitter_cfg.c **** 			{0x54u, 0x09u},
 331:Generated_Source\PSoC4/cyfitter_cfg.c **** 			{0x58u, 0x04u},
 332:Generated_Source\PSoC4/cyfitter_cfg.c **** 			{0x5Bu, 0x04u},
 333:Generated_Source\PSoC4/cyfitter_cfg.c **** 			{0x5Fu, 0x01u},
ARM GAS  C:\Users\quint\AppData\Local\Temp\ccuZWbLb.s 			page 12


 334:Generated_Source\PSoC4/cyfitter_cfg.c **** 			{0x80u, 0x6Au},
 335:Generated_Source\PSoC4/cyfitter_cfg.c **** 			{0x81u, 0x50u},
 336:Generated_Source\PSoC4/cyfitter_cfg.c **** 			{0x82u, 0x04u},
 337:Generated_Source\PSoC4/cyfitter_cfg.c **** 			{0x84u, 0x02u},
 338:Generated_Source\PSoC4/cyfitter_cfg.c **** 			{0x85u, 0x40u},
 339:Generated_Source\PSoC4/cyfitter_cfg.c **** 			{0x87u, 0x10u},
 340:Generated_Source\PSoC4/cyfitter_cfg.c **** 			{0x88u, 0x0Fu},
 341:Generated_Source\PSoC4/cyfitter_cfg.c **** 			{0x89u, 0x05u},
 342:Generated_Source\PSoC4/cyfitter_cfg.c **** 			{0x8Au, 0x90u},
 343:Generated_Source\PSoC4/cyfitter_cfg.c **** 			{0x8Bu, 0x4Au},
 344:Generated_Source\PSoC4/cyfitter_cfg.c **** 			{0x8Cu, 0x04u},
 345:Generated_Source\PSoC4/cyfitter_cfg.c **** 			{0x8Du, 0x0Eu},
 346:Generated_Source\PSoC4/cyfitter_cfg.c **** 			{0x90u, 0x6Au},
 347:Generated_Source\PSoC4/cyfitter_cfg.c **** 			{0x91u, 0x40u},
 348:Generated_Source\PSoC4/cyfitter_cfg.c **** 			{0x92u, 0x04u},
 349:Generated_Source\PSoC4/cyfitter_cfg.c **** 			{0x93u, 0x10u},
 350:Generated_Source\PSoC4/cyfitter_cfg.c **** 			{0x94u, 0x10u},
 351:Generated_Source\PSoC4/cyfitter_cfg.c **** 			{0x95u, 0x40u},
 352:Generated_Source\PSoC4/cyfitter_cfg.c **** 			{0x96u, 0x68u},
 353:Generated_Source\PSoC4/cyfitter_cfg.c **** 			{0x98u, 0x12u},
 354:Generated_Source\PSoC4/cyfitter_cfg.c **** 			{0x99u, 0x13u},
 355:Generated_Source\PSoC4/cyfitter_cfg.c **** 			{0x9Au, 0xC5u},
 356:Generated_Source\PSoC4/cyfitter_cfg.c **** 			{0x9Bu, 0x24u},
 357:Generated_Source\PSoC4/cyfitter_cfg.c **** 			{0x9Cu, 0x6Eu},
 358:Generated_Source\PSoC4/cyfitter_cfg.c **** 			{0xA1u, 0x50u},
 359:Generated_Source\PSoC4/cyfitter_cfg.c **** 			{0xA4u, 0x91u},
 360:Generated_Source\PSoC4/cyfitter_cfg.c **** 			{0xA5u, 0x64u},
 361:Generated_Source\PSoC4/cyfitter_cfg.c **** 			{0xA6u, 0x22u},
 362:Generated_Source\PSoC4/cyfitter_cfg.c **** 			{0xA7u, 0x19u},
 363:Generated_Source\PSoC4/cyfitter_cfg.c **** 			{0xA8u, 0x6Cu},
 364:Generated_Source\PSoC4/cyfitter_cfg.c **** 			{0xA9u, 0x10u},
 365:Generated_Source\PSoC4/cyfitter_cfg.c **** 			{0xAAu, 0x02u},
 366:Generated_Source\PSoC4/cyfitter_cfg.c **** 			{0xABu, 0x40u},
 367:Generated_Source\PSoC4/cyfitter_cfg.c **** 			{0xACu, 0x6Eu},
 368:Generated_Source\PSoC4/cyfitter_cfg.c **** 			{0xADu, 0x10u},
 369:Generated_Source\PSoC4/cyfitter_cfg.c **** 			{0xB2u, 0x78u},
 370:Generated_Source\PSoC4/cyfitter_cfg.c **** 			{0xB4u, 0x07u},
 371:Generated_Source\PSoC4/cyfitter_cfg.c **** 			{0xB5u, 0x71u},
 372:Generated_Source\PSoC4/cyfitter_cfg.c **** 			{0xB6u, 0x80u},
 373:Generated_Source\PSoC4/cyfitter_cfg.c **** 			{0xB7u, 0x0Fu},
 374:Generated_Source\PSoC4/cyfitter_cfg.c **** 			{0xB8u, 0x02u},
 375:Generated_Source\PSoC4/cyfitter_cfg.c **** 			{0xB9u, 0x80u},
 376:Generated_Source\PSoC4/cyfitter_cfg.c **** 			{0xBAu, 0x08u},
 377:Generated_Source\PSoC4/cyfitter_cfg.c **** 			{0xBBu, 0x20u},
 378:Generated_Source\PSoC4/cyfitter_cfg.c **** 			{0xBEu, 0x41u},
 379:Generated_Source\PSoC4/cyfitter_cfg.c **** 			{0xD4u, 0x40u},
 380:Generated_Source\PSoC4/cyfitter_cfg.c **** 			{0xD8u, 0x04u},
 381:Generated_Source\PSoC4/cyfitter_cfg.c **** 			{0xD9u, 0x04u},
 382:Generated_Source\PSoC4/cyfitter_cfg.c **** 			{0xDBu, 0x04u},
 383:Generated_Source\PSoC4/cyfitter_cfg.c **** 			{0xDFu, 0x01u},
 384:Generated_Source\PSoC4/cyfitter_cfg.c **** 			{0x00u, 0x08u},
 385:Generated_Source\PSoC4/cyfitter_cfg.c **** 			{0x01u, 0x02u},
 386:Generated_Source\PSoC4/cyfitter_cfg.c **** 			{0x02u, 0x01u},
 387:Generated_Source\PSoC4/cyfitter_cfg.c **** 			{0x04u, 0x02u},
 388:Generated_Source\PSoC4/cyfitter_cfg.c **** 			{0x05u, 0x14u},
 389:Generated_Source\PSoC4/cyfitter_cfg.c **** 			{0x06u, 0x01u},
 390:Generated_Source\PSoC4/cyfitter_cfg.c **** 			{0x0Au, 0x04u},
ARM GAS  C:\Users\quint\AppData\Local\Temp\ccuZWbLb.s 			page 13


 391:Generated_Source\PSoC4/cyfitter_cfg.c **** 			{0x0Eu, 0x26u},
 392:Generated_Source\PSoC4/cyfitter_cfg.c **** 			{0x0Fu, 0x80u},
 393:Generated_Source\PSoC4/cyfitter_cfg.c **** 			{0x11u, 0x20u},
 394:Generated_Source\PSoC4/cyfitter_cfg.c **** 			{0x15u, 0x10u},
 395:Generated_Source\PSoC4/cyfitter_cfg.c **** 			{0x16u, 0x02u},
 396:Generated_Source\PSoC4/cyfitter_cfg.c **** 			{0x17u, 0x04u},
 397:Generated_Source\PSoC4/cyfitter_cfg.c **** 			{0x18u, 0x01u},
 398:Generated_Source\PSoC4/cyfitter_cfg.c **** 			{0x19u, 0x02u},
 399:Generated_Source\PSoC4/cyfitter_cfg.c **** 			{0x1Au, 0x04u},
 400:Generated_Source\PSoC4/cyfitter_cfg.c **** 			{0x1Bu, 0x10u},
 401:Generated_Source\PSoC4/cyfitter_cfg.c **** 			{0x1Cu, 0x48u},
 402:Generated_Source\PSoC4/cyfitter_cfg.c **** 			{0x1Du, 0x70u},
 403:Generated_Source\PSoC4/cyfitter_cfg.c **** 			{0x1Eu, 0x20u},
 404:Generated_Source\PSoC4/cyfitter_cfg.c **** 			{0x25u, 0x50u},
 405:Generated_Source\PSoC4/cyfitter_cfg.c **** 			{0x27u, 0x04u},
 406:Generated_Source\PSoC4/cyfitter_cfg.c **** 			{0x2Du, 0x10u},
 407:Generated_Source\PSoC4/cyfitter_cfg.c **** 			{0x2Eu, 0x06u},
 408:Generated_Source\PSoC4/cyfitter_cfg.c **** 			{0x2Fu, 0x02u},
 409:Generated_Source\PSoC4/cyfitter_cfg.c **** 			{0x35u, 0x14u},
 410:Generated_Source\PSoC4/cyfitter_cfg.c **** 			{0x37u, 0x01u},
 411:Generated_Source\PSoC4/cyfitter_cfg.c **** 			{0x3Du, 0xAAu},
 412:Generated_Source\PSoC4/cyfitter_cfg.c **** 			{0x58u, 0x04u},
 413:Generated_Source\PSoC4/cyfitter_cfg.c **** 			{0x59u, 0x40u},
 414:Generated_Source\PSoC4/cyfitter_cfg.c **** 			{0x5Au, 0x01u},
 415:Generated_Source\PSoC4/cyfitter_cfg.c **** 			{0x5Bu, 0x10u},
 416:Generated_Source\PSoC4/cyfitter_cfg.c **** 			{0x60u, 0x01u},
 417:Generated_Source\PSoC4/cyfitter_cfg.c **** 			{0x64u, 0x01u},
 418:Generated_Source\PSoC4/cyfitter_cfg.c **** 			{0x66u, 0x20u},
 419:Generated_Source\PSoC4/cyfitter_cfg.c **** 			{0x67u, 0x20u},
 420:Generated_Source\PSoC4/cyfitter_cfg.c **** 			{0x85u, 0x40u},
 421:Generated_Source\PSoC4/cyfitter_cfg.c **** 			{0xC0u, 0xFDu},
 422:Generated_Source\PSoC4/cyfitter_cfg.c **** 			{0xC2u, 0xF2u},
 423:Generated_Source\PSoC4/cyfitter_cfg.c **** 			{0xC4u, 0xE2u},
 424:Generated_Source\PSoC4/cyfitter_cfg.c **** 			{0xCAu, 0xF0u},
 425:Generated_Source\PSoC4/cyfitter_cfg.c **** 			{0xCCu, 0xE0u},
 426:Generated_Source\PSoC4/cyfitter_cfg.c **** 			{0xCEu, 0xF0u},
 427:Generated_Source\PSoC4/cyfitter_cfg.c **** 			{0xD6u, 0x0Fu},
 428:Generated_Source\PSoC4/cyfitter_cfg.c **** 			{0xD8u, 0x78u},
 429:Generated_Source\PSoC4/cyfitter_cfg.c **** 			{0xC0u, 0x32u},
 430:Generated_Source\PSoC4/cyfitter_cfg.c **** 			{0xC1u, 0x06u},
 431:Generated_Source\PSoC4/cyfitter_cfg.c **** 			{0xC2u, 0x10u},
 432:Generated_Source\PSoC4/cyfitter_cfg.c **** 			{0xC5u, 0xB0u},
 433:Generated_Source\PSoC4/cyfitter_cfg.c **** 			{0xC8u, 0x02u},
 434:Generated_Source\PSoC4/cyfitter_cfg.c **** 			{0xC9u, 0x01u},
 435:Generated_Source\PSoC4/cyfitter_cfg.c **** 			{0xCAu, 0xFFu},
 436:Generated_Source\PSoC4/cyfitter_cfg.c **** 			{0xCBu, 0xFFu},
 437:Generated_Source\PSoC4/cyfitter_cfg.c **** 			{0xCCu, 0x23u},
 438:Generated_Source\PSoC4/cyfitter_cfg.c **** 			{0xCEu, 0x80u},
 439:Generated_Source\PSoC4/cyfitter_cfg.c **** 			{0xCFu, 0x08u},
 440:Generated_Source\PSoC4/cyfitter_cfg.c **** 			{0xD0u, 0x04u},
 441:Generated_Source\PSoC4/cyfitter_cfg.c **** 			{0xDAu, 0x04u},
 442:Generated_Source\PSoC4/cyfitter_cfg.c **** 			{0xDFu, 0x01u},
 443:Generated_Source\PSoC4/cyfitter_cfg.c **** 			{0xE2u, 0xC0u},
 444:Generated_Source\PSoC4/cyfitter_cfg.c **** 			{0xE4u, 0x40u},
 445:Generated_Source\PSoC4/cyfitter_cfg.c **** 			{0xE5u, 0x01u},
 446:Generated_Source\PSoC4/cyfitter_cfg.c **** 			{0xE6u, 0x10u},
 447:Generated_Source\PSoC4/cyfitter_cfg.c **** 			{0xE7u, 0x11u},
ARM GAS  C:\Users\quint\AppData\Local\Temp\ccuZWbLb.s 			page 14


 448:Generated_Source\PSoC4/cyfitter_cfg.c **** 			{0xE8u, 0xC0u},
 449:Generated_Source\PSoC4/cyfitter_cfg.c **** 			{0xE9u, 0x01u},
 450:Generated_Source\PSoC4/cyfitter_cfg.c **** 			{0xEBu, 0x11u},
 451:Generated_Source\PSoC4/cyfitter_cfg.c **** 			{0xECu, 0x40u},
 452:Generated_Source\PSoC4/cyfitter_cfg.c **** 			{0xEDu, 0x01u},
 453:Generated_Source\PSoC4/cyfitter_cfg.c **** 			{0xEEu, 0x40u},
 454:Generated_Source\PSoC4/cyfitter_cfg.c **** 			{0xEFu, 0x01u},
 455:Generated_Source\PSoC4/cyfitter_cfg.c **** 			{0x04u, 0x12u},
 456:Generated_Source\PSoC4/cyfitter_cfg.c **** 			{0x06u, 0x02u},
 457:Generated_Source\PSoC4/cyfitter_cfg.c **** 			{0x07u, 0x10u},
 458:Generated_Source\PSoC4/cyfitter_cfg.c **** 			{0x0Eu, 0x42u},
 459:Generated_Source\PSoC4/cyfitter_cfg.c **** 			{0x0Fu, 0x18u},
 460:Generated_Source\PSoC4/cyfitter_cfg.c **** 			{0x15u, 0x10u},
 461:Generated_Source\PSoC4/cyfitter_cfg.c **** 			{0x16u, 0x80u},
 462:Generated_Source\PSoC4/cyfitter_cfg.c **** 			{0x17u, 0x04u},
 463:Generated_Source\PSoC4/cyfitter_cfg.c **** 			{0x1Cu, 0x10u},
 464:Generated_Source\PSoC4/cyfitter_cfg.c **** 			{0x1Du, 0x84u},
 465:Generated_Source\PSoC4/cyfitter_cfg.c **** 			{0x1Eu, 0x41u},
 466:Generated_Source\PSoC4/cyfitter_cfg.c **** 			{0x1Fu, 0x10u},
 467:Generated_Source\PSoC4/cyfitter_cfg.c **** 			{0x27u, 0x40u},
 468:Generated_Source\PSoC4/cyfitter_cfg.c **** 			{0x2Du, 0x01u},
 469:Generated_Source\PSoC4/cyfitter_cfg.c **** 			{0x2Eu, 0x04u},
 470:Generated_Source\PSoC4/cyfitter_cfg.c **** 			{0x2Fu, 0x08u},
 471:Generated_Source\PSoC4/cyfitter_cfg.c **** 			{0x35u, 0x04u},
 472:Generated_Source\PSoC4/cyfitter_cfg.c **** 			{0x37u, 0x51u},
 473:Generated_Source\PSoC4/cyfitter_cfg.c **** 			{0x3Cu, 0x88u},
 474:Generated_Source\PSoC4/cyfitter_cfg.c **** 			{0x3Du, 0x10u},
 475:Generated_Source\PSoC4/cyfitter_cfg.c **** 			{0x3Eu, 0x02u},
 476:Generated_Source\PSoC4/cyfitter_cfg.c **** 			{0x41u, 0x80u},
 477:Generated_Source\PSoC4/cyfitter_cfg.c **** 			{0x42u, 0x04u},
 478:Generated_Source\PSoC4/cyfitter_cfg.c **** 			{0x43u, 0x0Cu},
 479:Generated_Source\PSoC4/cyfitter_cfg.c **** 			{0x45u, 0xA0u},
 480:Generated_Source\PSoC4/cyfitter_cfg.c **** 			{0x47u, 0x04u},
 481:Generated_Source\PSoC4/cyfitter_cfg.c **** 			{0x48u, 0x40u},
 482:Generated_Source\PSoC4/cyfitter_cfg.c **** 			{0x49u, 0x10u},
 483:Generated_Source\PSoC4/cyfitter_cfg.c **** 			{0x4Bu, 0x10u},
 484:Generated_Source\PSoC4/cyfitter_cfg.c **** 			{0x4Fu, 0x2Cu},
 485:Generated_Source\PSoC4/cyfitter_cfg.c **** 			{0x54u, 0x80u},
 486:Generated_Source\PSoC4/cyfitter_cfg.c **** 			{0x56u, 0x21u},
 487:Generated_Source\PSoC4/cyfitter_cfg.c **** 			{0x57u, 0x02u},
 488:Generated_Source\PSoC4/cyfitter_cfg.c **** 			{0x65u, 0x02u},
 489:Generated_Source\PSoC4/cyfitter_cfg.c **** 			{0x6Cu, 0x01u},
 490:Generated_Source\PSoC4/cyfitter_cfg.c **** 			{0x6Du, 0x1Bu},
 491:Generated_Source\PSoC4/cyfitter_cfg.c **** 			{0x6Eu, 0x02u},
 492:Generated_Source\PSoC4/cyfitter_cfg.c **** 			{0x6Fu, 0x11u},
 493:Generated_Source\PSoC4/cyfitter_cfg.c **** 			{0x76u, 0x02u},
 494:Generated_Source\PSoC4/cyfitter_cfg.c **** 			{0x81u, 0x04u},
 495:Generated_Source\PSoC4/cyfitter_cfg.c **** 			{0x83u, 0x40u},
 496:Generated_Source\PSoC4/cyfitter_cfg.c **** 			{0x88u, 0x01u},
 497:Generated_Source\PSoC4/cyfitter_cfg.c **** 			{0x8Bu, 0x04u},
 498:Generated_Source\PSoC4/cyfitter_cfg.c **** 			{0x8Eu, 0x40u},
 499:Generated_Source\PSoC4/cyfitter_cfg.c **** 			{0x8Fu, 0x40u},
 500:Generated_Source\PSoC4/cyfitter_cfg.c **** 			{0x92u, 0x04u},
 501:Generated_Source\PSoC4/cyfitter_cfg.c **** 			{0x94u, 0x02u},
 502:Generated_Source\PSoC4/cyfitter_cfg.c **** 			{0x95u, 0x10u},
 503:Generated_Source\PSoC4/cyfitter_cfg.c **** 			{0x96u, 0x01u},
 504:Generated_Source\PSoC4/cyfitter_cfg.c **** 			{0x97u, 0x20u},
ARM GAS  C:\Users\quint\AppData\Local\Temp\ccuZWbLb.s 			page 15


 505:Generated_Source\PSoC4/cyfitter_cfg.c **** 			{0x99u, 0x12u},
 506:Generated_Source\PSoC4/cyfitter_cfg.c **** 			{0x9Au, 0x80u},
 507:Generated_Source\PSoC4/cyfitter_cfg.c **** 			{0x9Bu, 0x04u},
 508:Generated_Source\PSoC4/cyfitter_cfg.c **** 			{0x9Cu, 0x01u},
 509:Generated_Source\PSoC4/cyfitter_cfg.c **** 			{0x9Du, 0x04u},
 510:Generated_Source\PSoC4/cyfitter_cfg.c **** 			{0x9Eu, 0x23u},
 511:Generated_Source\PSoC4/cyfitter_cfg.c **** 			{0x9Fu, 0x01u},
 512:Generated_Source\PSoC4/cyfitter_cfg.c **** 			{0xA0u, 0x04u},
 513:Generated_Source\PSoC4/cyfitter_cfg.c **** 			{0xA1u, 0x20u},
 514:Generated_Source\PSoC4/cyfitter_cfg.c **** 			{0xA3u, 0x10u},
 515:Generated_Source\PSoC4/cyfitter_cfg.c **** 			{0xA4u, 0x80u},
 516:Generated_Source\PSoC4/cyfitter_cfg.c **** 			{0xA5u, 0x05u},
 517:Generated_Source\PSoC4/cyfitter_cfg.c **** 			{0xA6u, 0x01u},
 518:Generated_Source\PSoC4/cyfitter_cfg.c **** 			{0xA7u, 0x42u},
 519:Generated_Source\PSoC4/cyfitter_cfg.c **** 			{0xAEu, 0x84u},
 520:Generated_Source\PSoC4/cyfitter_cfg.c **** 			{0xB0u, 0x84u},
 521:Generated_Source\PSoC4/cyfitter_cfg.c **** 			{0xB4u, 0x40u},
 522:Generated_Source\PSoC4/cyfitter_cfg.c **** 			{0xB7u, 0x12u},
 523:Generated_Source\PSoC4/cyfitter_cfg.c **** 			{0xC0u, 0xF0u},
 524:Generated_Source\PSoC4/cyfitter_cfg.c **** 			{0xC2u, 0xF0u},
 525:Generated_Source\PSoC4/cyfitter_cfg.c **** 			{0xC4u, 0x70u},
 526:Generated_Source\PSoC4/cyfitter_cfg.c **** 			{0xCAu, 0xE0u},
 527:Generated_Source\PSoC4/cyfitter_cfg.c **** 			{0xCCu, 0xF0u},
 528:Generated_Source\PSoC4/cyfitter_cfg.c **** 			{0xCEu, 0xF0u},
 529:Generated_Source\PSoC4/cyfitter_cfg.c **** 			{0xD0u, 0x7Eu},
 530:Generated_Source\PSoC4/cyfitter_cfg.c **** 			{0xD2u, 0x24u},
 531:Generated_Source\PSoC4/cyfitter_cfg.c **** 			{0xD8u, 0x80u},
 532:Generated_Source\PSoC4/cyfitter_cfg.c **** 			{0x61u, 0x02u},
 533:Generated_Source\PSoC4/cyfitter_cfg.c **** 			{0x6Fu, 0x20u},
 534:Generated_Source\PSoC4/cyfitter_cfg.c **** 			{0x85u, 0x02u},
 535:Generated_Source\PSoC4/cyfitter_cfg.c **** 			{0xD8u, 0x40u},
 536:Generated_Source\PSoC4/cyfitter_cfg.c **** 			{0xDAu, 0x80u},
 537:Generated_Source\PSoC4/cyfitter_cfg.c **** 			{0xE2u, 0x40u},
 538:Generated_Source\PSoC4/cyfitter_cfg.c **** 			{0x03u, 0x20u},
 539:Generated_Source\PSoC4/cyfitter_cfg.c **** 			{0xA7u, 0x20u},
 540:Generated_Source\PSoC4/cyfitter_cfg.c **** 			{0xC0u, 0x10u},
 541:Generated_Source\PSoC4/cyfitter_cfg.c **** 			{0x50u, 0x01u},
 542:Generated_Source\PSoC4/cyfitter_cfg.c **** 			{0x5Fu, 0x02u},
 543:Generated_Source\PSoC4/cyfitter_cfg.c **** 			{0x66u, 0x01u},
 544:Generated_Source\PSoC4/cyfitter_cfg.c **** 			{0x8Eu, 0x01u},
 545:Generated_Source\PSoC4/cyfitter_cfg.c **** 			{0x8Fu, 0x02u},
 546:Generated_Source\PSoC4/cyfitter_cfg.c **** 			{0x90u, 0x02u},
 547:Generated_Source\PSoC4/cyfitter_cfg.c **** 			{0xB4u, 0x01u},
 548:Generated_Source\PSoC4/cyfitter_cfg.c **** 			{0xD4u, 0x01u},
 549:Generated_Source\PSoC4/cyfitter_cfg.c **** 			{0xD6u, 0x01u},
 550:Generated_Source\PSoC4/cyfitter_cfg.c **** 			{0xD8u, 0x01u},
 551:Generated_Source\PSoC4/cyfitter_cfg.c **** 			{0xE0u, 0x08u},
 552:Generated_Source\PSoC4/cyfitter_cfg.c **** 			{0xE4u, 0x02u},
 553:Generated_Source\PSoC4/cyfitter_cfg.c **** 			{0xE8u, 0x02u},
 554:Generated_Source\PSoC4/cyfitter_cfg.c **** 			{0x01u, 0x01u},
 555:Generated_Source\PSoC4/cyfitter_cfg.c **** 			{0x10u, 0x01u},
 556:Generated_Source\PSoC4/cyfitter_cfg.c **** 		};
 557:Generated_Source\PSoC4/cyfitter_cfg.c **** 
 558:Generated_Source\PSoC4/cyfitter_cfg.c **** 
 559:Generated_Source\PSoC4/cyfitter_cfg.c **** 
 560:Generated_Source\PSoC4/cyfitter_cfg.c **** 		CYPACKED typedef struct {
 561:Generated_Source\PSoC4/cyfitter_cfg.c **** 			void CYFAR *address;
ARM GAS  C:\Users\quint\AppData\Local\Temp\ccuZWbLb.s 			page 16


 562:Generated_Source\PSoC4/cyfitter_cfg.c **** 			uint16 size;
 563:Generated_Source\PSoC4/cyfitter_cfg.c **** 		} CYPACKED_ATTR cfg_memset_t;
 564:Generated_Source\PSoC4/cyfitter_cfg.c **** 
 565:Generated_Source\PSoC4/cyfitter_cfg.c **** 
 566:Generated_Source\PSoC4/cyfitter_cfg.c **** 		CYPACKED typedef struct {
 567:Generated_Source\PSoC4/cyfitter_cfg.c **** 			void CYFAR *dest;
 568:Generated_Source\PSoC4/cyfitter_cfg.c **** 			const void CYCODE *src;
 569:Generated_Source\PSoC4/cyfitter_cfg.c **** 			uint16 size;
 570:Generated_Source\PSoC4/cyfitter_cfg.c **** 		} CYPACKED_ATTR cfg_memcpy_t;
 571:Generated_Source\PSoC4/cyfitter_cfg.c **** 
 572:Generated_Source\PSoC4/cyfitter_cfg.c **** 		static const cfg_memset_t CYCODE cfg_memset_list[] = {
 573:Generated_Source\PSoC4/cyfitter_cfg.c **** 			/* address, size */
 574:Generated_Source\PSoC4/cyfitter_cfg.c **** 			{(void CYFAR *)(CYDEV_UDB_P0_U0_BASE), 512u},
 575:Generated_Source\PSoC4/cyfitter_cfg.c **** 			{(void CYFAR *)(CYDEV_UDB_P1_U1_BASE), 384u},
 576:Generated_Source\PSoC4/cyfitter_cfg.c **** 			{(void CYFAR *)(CYDEV_UDB_DSI0_BASE), 1024u},
 577:Generated_Source\PSoC4/cyfitter_cfg.c **** 		};
 578:Generated_Source\PSoC4/cyfitter_cfg.c **** 
 579:Generated_Source\PSoC4/cyfitter_cfg.c **** 		/* UDB_0_0_1_CONFIG Address: CYDEV_UDB_P1_U0_BASE Size (bytes): 128 */
 580:Generated_Source\PSoC4/cyfitter_cfg.c **** 		static const uint8 CYCODE BS_UDB_0_0_1_CONFIG_VAL[] = {
 581:Generated_Source\PSoC4/cyfitter_cfg.c **** 			0x10u, 0x04u, 0x03u, 0x00u, 0x13u, 0x07u, 0x00u, 0x38u, 0x04u, 0x00u, 0x18u, 0x04u, 0x13u, 0x60u
 582:Generated_Source\PSoC4/cyfitter_cfg.c **** 			0x00u, 0x04u, 0x40u, 0x00u, 0x20u, 0x04u, 0x0Cu, 0x00u, 0x00u, 0x04u, 0x01u, 0x00u, 0x13u, 0x01u
 583:Generated_Source\PSoC4/cyfitter_cfg.c **** 			0x1Cu, 0x04u, 0x60u, 0x00u, 0x04u, 0x56u, 0x78u, 0x09u, 0x03u, 0x0Au, 0x10u, 0x10u, 0x00u, 0x00u
 584:Generated_Source\PSoC4/cyfitter_cfg.c **** 			0x60u, 0x7Fu, 0x1Cu, 0x00u, 0x01u, 0x00u, 0x02u, 0x00u, 0x00u, 0x02u, 0x08u, 0x00u, 0x00u, 0x00u
 585:Generated_Source\PSoC4/cyfitter_cfg.c **** 			0x36u, 0x02u, 0x10u, 0x00u, 0x00u, 0x0Du, 0xFEu, 0xC0u, 0x2Du, 0xFFu, 0xFFu, 0xFFu, 0x02u, 0x00u
 586:Generated_Source\PSoC4/cyfitter_cfg.c **** 			0x04u, 0x00u, 0x00u, 0x00u, 0x00u, 0x00u, 0x02u, 0x2Cu, 0x04u, 0x04u, 0x04u, 0x04u, 0x00u, 0x00u
 587:Generated_Source\PSoC4/cyfitter_cfg.c **** 			0x00u, 0x00u, 0xC0u, 0x00u, 0x40u, 0x01u, 0x10u, 0x11u, 0xC0u, 0x01u, 0x00u, 0x11u, 0x40u, 0x01u
 588:Generated_Source\PSoC4/cyfitter_cfg.c **** 			0x00u, 0x00u, 0x00u, 0x00u, 0x00u, 0x00u, 0x00u, 0x00u, 0x00u, 0x00u, 0x00u, 0x00u, 0x00u, 0x00u
 589:Generated_Source\PSoC4/cyfitter_cfg.c **** 
 590:Generated_Source\PSoC4/cyfitter_cfg.c **** 		static const cfg_memcpy_t CYCODE cfg_memcpy_list [] = {
 591:Generated_Source\PSoC4/cyfitter_cfg.c **** 			/* dest, src, size */
 592:Generated_Source\PSoC4/cyfitter_cfg.c **** 			{(void CYFAR *)(CYDEV_UDB_P1_U0_BASE), BS_UDB_0_0_1_CONFIG_VAL, 128u},
 593:Generated_Source\PSoC4/cyfitter_cfg.c **** 		};
 594:Generated_Source\PSoC4/cyfitter_cfg.c **** 
 595:Generated_Source\PSoC4/cyfitter_cfg.c **** 		uint8 CYDATA i;
 596:Generated_Source\PSoC4/cyfitter_cfg.c **** 
 597:Generated_Source\PSoC4/cyfitter_cfg.c **** 		/* Zero out critical memory blocks before beginning configuration */
 598:Generated_Source\PSoC4/cyfitter_cfg.c **** 		for (i = 0u; i < (sizeof(cfg_memset_list)/sizeof(cfg_memset_list[0])); i++)
 286              		.loc 1 598 0
 287 00b2 0024     		movs	r4, #0
 288 00b4 0FE0     		b	.L12
 289              	.LVL21:
 290              	.L13:
 291              	.LBB4:
 599:Generated_Source\PSoC4/cyfitter_cfg.c **** 		{
 600:Generated_Source\PSoC4/cyfitter_cfg.c **** 			const cfg_memset_t CYCODE * CYDATA ms = &cfg_memset_list[i];
 601:Generated_Source\PSoC4/cyfitter_cfg.c **** 			CYMEMZERO(ms->address, (size_t)(uint32)(ms->size));
 292              		.loc 1 601 0 discriminator 3
 293 00b6 3A48     		ldr	r0, .L16+4
 294 00b8 6200     		lsls	r2, r4, #1
 295 00ba 1319     		adds	r3, r2, r4
 296 00bc 5900     		lsls	r1, r3, #1
 297 00be 0B00     		movs	r3, r1
 298 00c0 4118     		adds	r1, r0, r1
 299 00c2 8988     		ldrh	r1, [r1, #4]
 300 00c4 1A5A     		ldrh	r2, [r3, r0]
 301 00c6 C318     		adds	r3, r0, r3
 302 00c8 5888     		ldrh	r0, [r3, #2]
ARM GAS  C:\Users\quint\AppData\Local\Temp\ccuZWbLb.s 			page 17


 303 00ca 0004     		lsls	r0, r0, #16
 304 00cc 1043     		orrs	r0, r2
 305 00ce FFF7FEFF 		bl	CYMEMZERO
 306              	.LVL22:
 307              	.LBE4:
 598:Generated_Source\PSoC4/cyfitter_cfg.c **** 		{
 308              		.loc 1 598 0 discriminator 3
 309 00d2 0134     		adds	r4, r4, #1
 310              	.LVL23:
 311 00d4 E4B2     		uxtb	r4, r4
 312              	.LVL24:
 313              	.L12:
 598:Generated_Source\PSoC4/cyfitter_cfg.c **** 		{
 314              		.loc 1 598 0 is_stmt 0 discriminator 1
 315 00d6 022C     		cmp	r4, #2
 316 00d8 EDD9     		bls	.L13
 317 00da 0024     		movs	r4, #0
 318              	.LVL25:
 319 00dc 11E0     		b	.L14
 320              	.LVL26:
 321              	.L15:
 322              	.LBB5:
 602:Generated_Source\PSoC4/cyfitter_cfg.c **** 		}
 603:Generated_Source\PSoC4/cyfitter_cfg.c **** 
 604:Generated_Source\PSoC4/cyfitter_cfg.c **** 		/* Copy device configuration data into registers */
 605:Generated_Source\PSoC4/cyfitter_cfg.c **** 		for (i = 0u; i < (sizeof(cfg_memcpy_list)/sizeof(cfg_memcpy_list[0])); i++)
 606:Generated_Source\PSoC4/cyfitter_cfg.c **** 		{
 607:Generated_Source\PSoC4/cyfitter_cfg.c **** 			const cfg_memcpy_t CYCODE * CYDATA mc = &cfg_memcpy_list[i];
 608:Generated_Source\PSoC4/cyfitter_cfg.c **** 			void * CYDATA destPtr = mc->dest;
 323              		.loc 1 608 0 is_stmt 1 discriminator 3
 324 00de 304E     		ldr	r6, .L16+4
 325 00e0 A200     		lsls	r2, r4, #2
 326 00e2 1319     		adds	r3, r2, r4
 327 00e4 5900     		lsls	r1, r3, #1
 328 00e6 7118     		adds	r1, r6, r1
 329 00e8 8D8A     		ldrh	r5, [r1, #20]
 330 00ea C88A     		ldrh	r0, [r1, #22]
 331 00ec 0004     		lsls	r0, r0, #16
 332 00ee 2843     		orrs	r0, r5
 333              	.LVL27:
 609:Generated_Source\PSoC4/cyfitter_cfg.c **** 			const void CYCODE * CYDATA srcPtr = mc->src;
 334              		.loc 1 609 0 discriminator 3
 335 00f0 0A8B     		ldrh	r2, [r1, #24]
 336 00f2 498B     		ldrh	r1, [r1, #26]
 337 00f4 0904     		lsls	r1, r1, #16
 338 00f6 1143     		orrs	r1, r2
 339              	.LVL28:
 610:Generated_Source\PSoC4/cyfitter_cfg.c **** 			uint16 CYDATA numBytes = mc->size;
 611:Generated_Source\PSoC4/cyfitter_cfg.c **** 			CYCONFIGCPYCODE(destPtr, srcPtr, numBytes);
 340              		.loc 1 611 0 discriminator 3
 341 00f8 8022     		movs	r2, #128
 342 00fa FFF7FEFF 		bl	CYCONFIGCPYCODE
 343              	.LVL29:
 344              	.LBE5:
 605:Generated_Source\PSoC4/cyfitter_cfg.c **** 		{
 345              		.loc 1 605 0 discriminator 3
 346 00fe 0134     		adds	r4, r4, #1
ARM GAS  C:\Users\quint\AppData\Local\Temp\ccuZWbLb.s 			page 18


 347              	.LVL30:
 348 0100 E4B2     		uxtb	r4, r4
 349              	.LVL31:
 350              	.L14:
 605:Generated_Source\PSoC4/cyfitter_cfg.c **** 		{
 351              		.loc 1 605 0 is_stmt 0 discriminator 1
 352 0102 002C     		cmp	r4, #0
 353 0104 EBD0     		beq	.L15
 612:Generated_Source\PSoC4/cyfitter_cfg.c **** 		}
 613:Generated_Source\PSoC4/cyfitter_cfg.c **** 
 614:Generated_Source\PSoC4/cyfitter_cfg.c **** 		cfg_write_bytes32(cy_cfg_addr_table, cy_cfg_data_table);
 354              		.loc 1 614 0 is_stmt 1
 355 0106 2649     		ldr	r1, .L16+4
 356 0108 2031     		adds	r1, r1, #32
 357 010a 2648     		ldr	r0, .L16+8
 358 010c 0430     		adds	r0, r0, #4
 359 010e FFF7FEFF 		bl	cfg_write_bytes32
 360              	.LVL32:
 615:Generated_Source\PSoC4/cyfitter_cfg.c **** 
 616:Generated_Source\PSoC4/cyfitter_cfg.c **** 		/* HSIOM Starting address: CYDEV_HSIOM_BASE */
 617:Generated_Source\PSoC4/cyfitter_cfg.c **** 		CY_SET_REG32((void *)(CYDEV_HSIOM_BASE), 0x03000000u);
 361              		.loc 1 617 0
 362 0112 C022     		movs	r2, #192
 363 0114 9204     		lsls	r2, r2, #18
 364 0116 244B     		ldr	r3, .L16+12
 365 0118 1A60     		str	r2, [r3]
 618:Generated_Source\PSoC4/cyfitter_cfg.c **** 		CY_SET_REG32((void *)(CYREG_HSIOM_PORT_SEL3), 0x0303EE03u);
 366              		.loc 1 618 0
 367 011a 244A     		ldr	r2, .L16+16
 368 011c 244B     		ldr	r3, .L16+20
 369 011e 1A60     		str	r2, [r3]
 619:Generated_Source\PSoC4/cyfitter_cfg.c **** 		CY_SET_REG32((void *)(CYREG_HSIOM_PORT_SEL4), 0x000000EEu);
 370              		.loc 1 619 0
 371 0120 EE22     		movs	r2, #238
 372 0122 244B     		ldr	r3, .L16+24
 373 0124 1A60     		str	r2, [r3]
 620:Generated_Source\PSoC4/cyfitter_cfg.c **** 
 621:Generated_Source\PSoC4/cyfitter_cfg.c **** 		/* UDB_PA_0 Starting address: CYDEV_UDB_PA0_BASE */
 622:Generated_Source\PSoC4/cyfitter_cfg.c **** 		CY_SET_REG32((void *)(CYDEV_UDB_PA0_BASE), 0x00990000u);
 374              		.loc 1 622 0
 375 0126 9923     		movs	r3, #153
 376 0128 1B04     		lsls	r3, r3, #16
 377 012a 234A     		ldr	r2, .L16+28
 378 012c 1360     		str	r3, [r2]
 623:Generated_Source\PSoC4/cyfitter_cfg.c **** 		CY_SET_REG32((void *)(CYREG_UDB_PA0_CFG8), 0x20000000u);
 379              		.loc 1 623 0
 380 012e 8021     		movs	r1, #128
 381 0130 8905     		lsls	r1, r1, #22
 382 0132 224A     		ldr	r2, .L16+32
 383 0134 1160     		str	r1, [r2]
 624:Generated_Source\PSoC4/cyfitter_cfg.c **** 
 625:Generated_Source\PSoC4/cyfitter_cfg.c **** 		/* UDB_PA_1 Starting address: CYDEV_UDB_PA1_BASE */
 626:Generated_Source\PSoC4/cyfitter_cfg.c **** 		CY_SET_REG32((void *)(CYDEV_UDB_PA1_BASE), 0x00990000u);
 384              		.loc 1 626 0
 385 0136 224A     		ldr	r2, .L16+36
 386 0138 1360     		str	r3, [r2]
 627:Generated_Source\PSoC4/cyfitter_cfg.c **** 
ARM GAS  C:\Users\quint\AppData\Local\Temp\ccuZWbLb.s 			page 19


 628:Generated_Source\PSoC4/cyfitter_cfg.c **** 		/* UDB_PA_3 Starting address: CYDEV_UDB_PA3_BASE */
 629:Generated_Source\PSoC4/cyfitter_cfg.c **** 		CY_SET_REG32((void *)(CYDEV_UDB_PA3_BASE), 0x00990000u);
 387              		.loc 1 629 0
 388 013a 224A     		ldr	r2, .L16+40
 389 013c 1360     		str	r3, [r2]
 630:Generated_Source\PSoC4/cyfitter_cfg.c **** 		CY_SET_REG32((void *)(CYREG_UDB_PA3_CFG8), 0x31020000u);
 390              		.loc 1 630 0
 391 013e 224A     		ldr	r2, .L16+44
 392 0140 224B     		ldr	r3, .L16+48
 393 0142 1A60     		str	r2, [r3]
 631:Generated_Source\PSoC4/cyfitter_cfg.c **** 
 632:Generated_Source\PSoC4/cyfitter_cfg.c **** 		/* INT_SELECT Starting address: CYDEV_CPUSS_INTR_SELECT */
 633:Generated_Source\PSoC4/cyfitter_cfg.c **** 		CY_SET_REG32((void *)(CYREG_CPUSS_INTR_SELECT), 0x00000001u);
 394              		.loc 1 633 0
 395 0144 0122     		movs	r2, #1
 396 0146 224B     		ldr	r3, .L16+52
 397 0148 1A60     		str	r2, [r3]
 634:Generated_Source\PSoC4/cyfitter_cfg.c **** 
 635:Generated_Source\PSoC4/cyfitter_cfg.c **** 		/* INT_CONFIG Starting address: CYDEV_UDB_INT_CFG */
 636:Generated_Source\PSoC4/cyfitter_cfg.c **** 		CY_SET_REG32((void *)(CYREG_UDB_INT_CFG), 0x00000002u);
 398              		.loc 1 636 0
 399 014a 0132     		adds	r2, r2, #1
 400 014c 214B     		ldr	r3, .L16+56
 401 014e 1A60     		str	r2, [r3]
 637:Generated_Source\PSoC4/cyfitter_cfg.c **** 
 638:Generated_Source\PSoC4/cyfitter_cfg.c **** 		/* Enable UDB array and digital routing */
 639:Generated_Source\PSoC4/cyfitter_cfg.c **** 		CY_SET_XTND_REG8((void *)CYREG_UDB_UDBIF_WAIT_CFG, (uint8)((CY_GET_XTND_REG8((void *)CYREG_UDB_UD
 402              		.loc 1 639 0
 403 0150 2149     		ldr	r1, .L16+60
 404 0152 0B78     		ldrb	r3, [r1]
 405 0154 3A32     		adds	r2, r2, #58
 406 0156 9343     		bics	r3, r2
 407 0158 1422     		movs	r2, #20
 408 015a 1343     		orrs	r3, r2
 409 015c DBB2     		uxtb	r3, r3
 410 015e 0B70     		strb	r3, [r1]
 640:Generated_Source\PSoC4/cyfitter_cfg.c **** 		CY_SET_XTND_REG8((void *)CYREG_UDB_UDBIF_BANK_CTL, (uint8)(CY_GET_XTND_REG8((void *)CYREG_UDB_UDB
 411              		.loc 1 640 0
 412 0160 1E4A     		ldr	r2, .L16+64
 413 0162 1178     		ldrb	r1, [r2]
 414 0164 1623     		movs	r3, #22
 415 0166 0B43     		orrs	r3, r1
 416 0168 DBB2     		uxtb	r3, r3
 417 016a 1370     		strb	r3, [r2]
 418              	.LBE3:
 641:Generated_Source\PSoC4/cyfitter_cfg.c **** 	}
 642:Generated_Source\PSoC4/cyfitter_cfg.c **** 
 643:Generated_Source\PSoC4/cyfitter_cfg.c **** 	/* Perform second pass device configuration. These items must be configured in specific order afte
 644:Generated_Source\PSoC4/cyfitter_cfg.c **** 	/* IOPINS0_0 Starting address: CYDEV_PRT0_BASE */
 645:Generated_Source\PSoC4/cyfitter_cfg.c **** 	CY_SET_REG32((void *)(CYDEV_PRT0_BASE), 0x00000040u);
 419              		.loc 1 645 0
 420 016c 4022     		movs	r2, #64
 421 016e 1C4B     		ldr	r3, .L16+68
 422 0170 1A60     		str	r2, [r3]
 646:Generated_Source\PSoC4/cyfitter_cfg.c **** 	CY_SET_REG32((void *)(CYREG_PRT0_PC), 0x00180D80u);
 423              		.loc 1 646 0
 424 0172 1C4A     		ldr	r2, .L16+72
ARM GAS  C:\Users\quint\AppData\Local\Temp\ccuZWbLb.s 			page 20


 425 0174 1C4B     		ldr	r3, .L16+76
 426 0176 1A60     		str	r2, [r3]
 647:Generated_Source\PSoC4/cyfitter_cfg.c **** 
 648:Generated_Source\PSoC4/cyfitter_cfg.c **** 	/* IOPINS0_1 Starting address: CYDEV_PRT1_BASE */
 649:Generated_Source\PSoC4/cyfitter_cfg.c **** 	CY_SET_REG32((void *)(CYREG_PRT1_PC), 0x00180001u);
 427              		.loc 1 649 0
 428 0178 1C4A     		ldr	r2, .L16+80
 429 017a 1D4B     		ldr	r3, .L16+84
 430 017c 1A60     		str	r2, [r3]
 650:Generated_Source\PSoC4/cyfitter_cfg.c **** 
 651:Generated_Source\PSoC4/cyfitter_cfg.c **** 	/* IOPINS0_3 Starting address: CYDEV_PRT3_BASE */
 652:Generated_Source\PSoC4/cyfitter_cfg.c **** 	CY_SET_REG32((void *)(CYDEV_PRT3_BASE), 0x00000051u);
 431              		.loc 1 652 0
 432 017e 5122     		movs	r2, #81
 433 0180 1C4B     		ldr	r3, .L16+88
 434 0182 1A60     		str	r2, [r3]
 653:Generated_Source\PSoC4/cyfitter_cfg.c **** 	CY_SET_REG32((void *)(CYREG_PRT3_PC), 0x00186DB6u);
 435              		.loc 1 653 0
 436 0184 1C4A     		ldr	r2, .L16+92
 437 0186 1D4B     		ldr	r3, .L16+96
 438 0188 1A60     		str	r2, [r3]
 654:Generated_Source\PSoC4/cyfitter_cfg.c **** 
 655:Generated_Source\PSoC4/cyfitter_cfg.c **** 	/* IOPINS0_4 Starting address: CYDEV_PRT4_BASE */
 656:Generated_Source\PSoC4/cyfitter_cfg.c **** 	CY_SET_REG32((void *)(CYDEV_PRT4_BASE), 0x00000003u);
 439              		.loc 1 656 0
 440 018a 0322     		movs	r2, #3
 441 018c 1C4B     		ldr	r3, .L16+100
 442 018e 1A60     		str	r2, [r3]
 657:Generated_Source\PSoC4/cyfitter_cfg.c **** 	CY_SET_REG32((void *)(CYREG_PRT4_PC), 0x00000024u);
 443              		.loc 1 657 0
 444 0190 2132     		adds	r2, r2, #33
 445 0192 1C4B     		ldr	r3, .L16+104
 446 0194 1A60     		str	r2, [r3]
 658:Generated_Source\PSoC4/cyfitter_cfg.c **** 
 659:Generated_Source\PSoC4/cyfitter_cfg.c **** 
 660:Generated_Source\PSoC4/cyfitter_cfg.c **** 	/* Setup clocks based on selections from Clock DWR */
 661:Generated_Source\PSoC4/cyfitter_cfg.c **** 	ClockSetup();
 447              		.loc 1 661 0
 448 0196 FFF733FF 		bl	ClockSetup
 449              	.LVL33:
 662:Generated_Source\PSoC4/cyfitter_cfg.c **** 
 663:Generated_Source\PSoC4/cyfitter_cfg.c **** 	/* Perform basic analog initialization to defaults */
 664:Generated_Source\PSoC4/cyfitter_cfg.c **** 	AnalogSetDefault();
 665:Generated_Source\PSoC4/cyfitter_cfg.c **** 
 666:Generated_Source\PSoC4/cyfitter_cfg.c **** }
 450              		.loc 1 666 0
 451              		@ sp needed
 452              	.LVL34:
 453 019a 70BD     		pop	{r4, r5, r6, pc}
 454              	.L17:
 455              		.align	2
 456              	.L16:
 457 019c 1C700F40 		.word	1074753564
 458 01a0 00000000 		.word	.LANCHOR0
 459 01a4 00020000 		.word	.LANCHOR1
 460 01a8 00000140 		.word	1073807360
 461 01ac 03EE0303 		.word	50589187
ARM GAS  C:\Users\quint\AppData\Local\Temp\ccuZWbLb.s 			page 21


 462 01b0 0C000140 		.word	1073807372
 463 01b4 10000140 		.word	1073807376
 464 01b8 00500F40 		.word	1074745344
 465 01bc 08500F40 		.word	1074745352
 466 01c0 10500F40 		.word	1074745360
 467 01c4 30500F40 		.word	1074745392
 468 01c8 00000231 		.word	822214656
 469 01cc 38500F40 		.word	1074745400
 470 01d0 20000040 		.word	1073741856
 471 01d4 00800F40 		.word	1074757632
 472 01d8 01700F40 		.word	1074753537
 473 01dc 00700F40 		.word	1074753536
 474 01e0 00000440 		.word	1074003968
 475 01e4 800D1800 		.word	1576320
 476 01e8 08000440 		.word	1074003976
 477 01ec 01001800 		.word	1572865
 478 01f0 08010440 		.word	1074004232
 479 01f4 00030440 		.word	1074004736
 480 01f8 B66D1800 		.word	1600950
 481 01fc 08030440 		.word	1074004744
 482 0200 00040440 		.word	1074004992
 483 0204 08040440 		.word	1074005000
 484              		.cfi_endproc
 485              	.LFE6:
 486              		.size	cyfitter_cfg, .-cyfitter_cfg
 487              		.section	.rodata
 488              		.align	2
 489              		.set	.LANCHOR0,. + 0
 490              		.set	.LANCHOR1,. + 512
 491              		.type	cfg_memset_list.4875, %object
 492              		.size	cfg_memset_list.4875, 18
 493              	cfg_memset_list.4875:
 494 0000 00300F40 		.word	1074737152
 495 0004 0002     		.short	512
 496 0006 80320F40 		.4byte	1074737792
 497 000a 8001     		.short	384
 498 000c 00400F40 		.word	1074741248
 499 0010 0004     		.short	1024
 500 0012 0000     		.space	2
 501              		.type	cfg_memcpy_list.4877, %object
 502              		.size	cfg_memcpy_list.4877, 10
 503              	cfg_memcpy_list.4877:
 504 0014 00320F40 		.word	1074737664
 505 0018 28020000 		.word	BS_UDB_0_0_1_CONFIG_VAL.4876
 506 001c 8000     		.short	128
 507 001e 0000     		.space	2
 508              		.type	cy_cfg_data_table.4865, %object
 509              		.size	cy_cfg_data_table.4865, 482
 510              	cy_cfg_data_table.4865:
 511 0020 82       		.byte	-126
 512 0021 11       		.byte	17
 513 0022 00       		.byte	0
 514 0023 02       		.byte	2
 515 0024 02       		.byte	2
 516 0025 0D       		.byte	13
 517 0026 04       		.byte	4
 518 0027 93       		.byte	-109
ARM GAS  C:\Users\quint\AppData\Local\Temp\ccuZWbLb.s 			page 22


 519 0028 06       		.byte	6
 520 0029 2C       		.byte	44
 521 002a 0C       		.byte	12
 522 002b 40       		.byte	64
 523 002c 18       		.byte	24
 524 002d C9       		.byte	-55
 525 002e 1A       		.byte	26
 526 002f 06       		.byte	6
 527 0030 28       		.byte	40
 528 0031 E5       		.byte	-27
 529 0032 2A       		.byte	42
 530 0033 1A       		.byte	26
 531 0034 30       		.byte	48
 532 0035 0F       		.byte	15
 533 0036 34       		.byte	52
 534 0037 70       		.byte	112
 535 0038 36       		.byte	54
 536 0039 80       		.byte	-128
 537 003a 3A       		.byte	58
 538 003b 22       		.byte	34
 539 003c 3E       		.byte	62
 540 003d 40       		.byte	64
 541 003e 54       		.byte	84
 542 003f 09       		.byte	9
 543 0040 58       		.byte	88
 544 0041 04       		.byte	4
 545 0042 5B       		.byte	91
 546 0043 04       		.byte	4
 547 0044 5F       		.byte	95
 548 0045 01       		.byte	1
 549 0046 80       		.byte	-128
 550 0047 6A       		.byte	106
 551 0048 81       		.byte	-127
 552 0049 50       		.byte	80
 553 004a 82       		.byte	-126
 554 004b 04       		.byte	4
 555 004c 84       		.byte	-124
 556 004d 02       		.byte	2
 557 004e 85       		.byte	-123
 558 004f 40       		.byte	64
 559 0050 87       		.byte	-121
 560 0051 10       		.byte	16
 561 0052 88       		.byte	-120
 562 0053 0F       		.byte	15
 563 0054 89       		.byte	-119
 564 0055 05       		.byte	5
 565 0056 8A       		.byte	-118
 566 0057 90       		.byte	-112
 567 0058 8B       		.byte	-117
 568 0059 4A       		.byte	74
 569 005a 8C       		.byte	-116
 570 005b 04       		.byte	4
 571 005c 8D       		.byte	-115
 572 005d 0E       		.byte	14
 573 005e 90       		.byte	-112
 574 005f 6A       		.byte	106
 575 0060 91       		.byte	-111
ARM GAS  C:\Users\quint\AppData\Local\Temp\ccuZWbLb.s 			page 23


 576 0061 40       		.byte	64
 577 0062 92       		.byte	-110
 578 0063 04       		.byte	4
 579 0064 93       		.byte	-109
 580 0065 10       		.byte	16
 581 0066 94       		.byte	-108
 582 0067 10       		.byte	16
 583 0068 95       		.byte	-107
 584 0069 40       		.byte	64
 585 006a 96       		.byte	-106
 586 006b 68       		.byte	104
 587 006c 98       		.byte	-104
 588 006d 12       		.byte	18
 589 006e 99       		.byte	-103
 590 006f 13       		.byte	19
 591 0070 9A       		.byte	-102
 592 0071 C5       		.byte	-59
 593 0072 9B       		.byte	-101
 594 0073 24       		.byte	36
 595 0074 9C       		.byte	-100
 596 0075 6E       		.byte	110
 597 0076 A1       		.byte	-95
 598 0077 50       		.byte	80
 599 0078 A4       		.byte	-92
 600 0079 91       		.byte	-111
 601 007a A5       		.byte	-91
 602 007b 64       		.byte	100
 603 007c A6       		.byte	-90
 604 007d 22       		.byte	34
 605 007e A7       		.byte	-89
 606 007f 19       		.byte	25
 607 0080 A8       		.byte	-88
 608 0081 6C       		.byte	108
 609 0082 A9       		.byte	-87
 610 0083 10       		.byte	16
 611 0084 AA       		.byte	-86
 612 0085 02       		.byte	2
 613 0086 AB       		.byte	-85
 614 0087 40       		.byte	64
 615 0088 AC       		.byte	-84
 616 0089 6E       		.byte	110
 617 008a AD       		.byte	-83
 618 008b 10       		.byte	16
 619 008c B2       		.byte	-78
 620 008d 78       		.byte	120
 621 008e B4       		.byte	-76
 622 008f 07       		.byte	7
 623 0090 B5       		.byte	-75
 624 0091 71       		.byte	113
 625 0092 B6       		.byte	-74
 626 0093 80       		.byte	-128
 627 0094 B7       		.byte	-73
 628 0095 0F       		.byte	15
 629 0096 B8       		.byte	-72
 630 0097 02       		.byte	2
 631 0098 B9       		.byte	-71
 632 0099 80       		.byte	-128
ARM GAS  C:\Users\quint\AppData\Local\Temp\ccuZWbLb.s 			page 24


 633 009a BA       		.byte	-70
 634 009b 08       		.byte	8
 635 009c BB       		.byte	-69
 636 009d 20       		.byte	32
 637 009e BE       		.byte	-66
 638 009f 41       		.byte	65
 639 00a0 D4       		.byte	-44
 640 00a1 40       		.byte	64
 641 00a2 D8       		.byte	-40
 642 00a3 04       		.byte	4
 643 00a4 D9       		.byte	-39
 644 00a5 04       		.byte	4
 645 00a6 DB       		.byte	-37
 646 00a7 04       		.byte	4
 647 00a8 DF       		.byte	-33
 648 00a9 01       		.byte	1
 649 00aa 00       		.byte	0
 650 00ab 08       		.byte	8
 651 00ac 01       		.byte	1
 652 00ad 02       		.byte	2
 653 00ae 02       		.byte	2
 654 00af 01       		.byte	1
 655 00b0 04       		.byte	4
 656 00b1 02       		.byte	2
 657 00b2 05       		.byte	5
 658 00b3 14       		.byte	20
 659 00b4 06       		.byte	6
 660 00b5 01       		.byte	1
 661 00b6 0A       		.byte	10
 662 00b7 04       		.byte	4
 663 00b8 0E       		.byte	14
 664 00b9 26       		.byte	38
 665 00ba 0F       		.byte	15
 666 00bb 80       		.byte	-128
 667 00bc 11       		.byte	17
 668 00bd 20       		.byte	32
 669 00be 15       		.byte	21
 670 00bf 10       		.byte	16
 671 00c0 16       		.byte	22
 672 00c1 02       		.byte	2
 673 00c2 17       		.byte	23
 674 00c3 04       		.byte	4
 675 00c4 18       		.byte	24
 676 00c5 01       		.byte	1
 677 00c6 19       		.byte	25
 678 00c7 02       		.byte	2
 679 00c8 1A       		.byte	26
 680 00c9 04       		.byte	4
 681 00ca 1B       		.byte	27
 682 00cb 10       		.byte	16
 683 00cc 1C       		.byte	28
 684 00cd 48       		.byte	72
 685 00ce 1D       		.byte	29
 686 00cf 70       		.byte	112
 687 00d0 1E       		.byte	30
 688 00d1 20       		.byte	32
 689 00d2 25       		.byte	37
ARM GAS  C:\Users\quint\AppData\Local\Temp\ccuZWbLb.s 			page 25


 690 00d3 50       		.byte	80
 691 00d4 27       		.byte	39
 692 00d5 04       		.byte	4
 693 00d6 2D       		.byte	45
 694 00d7 10       		.byte	16
 695 00d8 2E       		.byte	46
 696 00d9 06       		.byte	6
 697 00da 2F       		.byte	47
 698 00db 02       		.byte	2
 699 00dc 35       		.byte	53
 700 00dd 14       		.byte	20
 701 00de 37       		.byte	55
 702 00df 01       		.byte	1
 703 00e0 3D       		.byte	61
 704 00e1 AA       		.byte	-86
 705 00e2 58       		.byte	88
 706 00e3 04       		.byte	4
 707 00e4 59       		.byte	89
 708 00e5 40       		.byte	64
 709 00e6 5A       		.byte	90
 710 00e7 01       		.byte	1
 711 00e8 5B       		.byte	91
 712 00e9 10       		.byte	16
 713 00ea 60       		.byte	96
 714 00eb 01       		.byte	1
 715 00ec 64       		.byte	100
 716 00ed 01       		.byte	1
 717 00ee 66       		.byte	102
 718 00ef 20       		.byte	32
 719 00f0 67       		.byte	103
 720 00f1 20       		.byte	32
 721 00f2 85       		.byte	-123
 722 00f3 40       		.byte	64
 723 00f4 C0       		.byte	-64
 724 00f5 FD       		.byte	-3
 725 00f6 C2       		.byte	-62
 726 00f7 F2       		.byte	-14
 727 00f8 C4       		.byte	-60
 728 00f9 E2       		.byte	-30
 729 00fa CA       		.byte	-54
 730 00fb F0       		.byte	-16
 731 00fc CC       		.byte	-52
 732 00fd E0       		.byte	-32
 733 00fe CE       		.byte	-50
 734 00ff F0       		.byte	-16
 735 0100 D6       		.byte	-42
 736 0101 0F       		.byte	15
 737 0102 D8       		.byte	-40
 738 0103 78       		.byte	120
 739 0104 C0       		.byte	-64
 740 0105 32       		.byte	50
 741 0106 C1       		.byte	-63
 742 0107 06       		.byte	6
 743 0108 C2       		.byte	-62
 744 0109 10       		.byte	16
 745 010a C5       		.byte	-59
 746 010b B0       		.byte	-80
ARM GAS  C:\Users\quint\AppData\Local\Temp\ccuZWbLb.s 			page 26


 747 010c C8       		.byte	-56
 748 010d 02       		.byte	2
 749 010e C9       		.byte	-55
 750 010f 01       		.byte	1
 751 0110 CA       		.byte	-54
 752 0111 FF       		.byte	-1
 753 0112 CB       		.byte	-53
 754 0113 FF       		.byte	-1
 755 0114 CC       		.byte	-52
 756 0115 23       		.byte	35
 757 0116 CE       		.byte	-50
 758 0117 80       		.byte	-128
 759 0118 CF       		.byte	-49
 760 0119 08       		.byte	8
 761 011a D0       		.byte	-48
 762 011b 04       		.byte	4
 763 011c DA       		.byte	-38
 764 011d 04       		.byte	4
 765 011e DF       		.byte	-33
 766 011f 01       		.byte	1
 767 0120 E2       		.byte	-30
 768 0121 C0       		.byte	-64
 769 0122 E4       		.byte	-28
 770 0123 40       		.byte	64
 771 0124 E5       		.byte	-27
 772 0125 01       		.byte	1
 773 0126 E6       		.byte	-26
 774 0127 10       		.byte	16
 775 0128 E7       		.byte	-25
 776 0129 11       		.byte	17
 777 012a E8       		.byte	-24
 778 012b C0       		.byte	-64
 779 012c E9       		.byte	-23
 780 012d 01       		.byte	1
 781 012e EB       		.byte	-21
 782 012f 11       		.byte	17
 783 0130 EC       		.byte	-20
 784 0131 40       		.byte	64
 785 0132 ED       		.byte	-19
 786 0133 01       		.byte	1
 787 0134 EE       		.byte	-18
 788 0135 40       		.byte	64
 789 0136 EF       		.byte	-17
 790 0137 01       		.byte	1
 791 0138 04       		.byte	4
 792 0139 12       		.byte	18
 793 013a 06       		.byte	6
 794 013b 02       		.byte	2
 795 013c 07       		.byte	7
 796 013d 10       		.byte	16
 797 013e 0E       		.byte	14
 798 013f 42       		.byte	66
 799 0140 0F       		.byte	15
 800 0141 18       		.byte	24
 801 0142 15       		.byte	21
 802 0143 10       		.byte	16
 803 0144 16       		.byte	22
ARM GAS  C:\Users\quint\AppData\Local\Temp\ccuZWbLb.s 			page 27


 804 0145 80       		.byte	-128
 805 0146 17       		.byte	23
 806 0147 04       		.byte	4
 807 0148 1C       		.byte	28
 808 0149 10       		.byte	16
 809 014a 1D       		.byte	29
 810 014b 84       		.byte	-124
 811 014c 1E       		.byte	30
 812 014d 41       		.byte	65
 813 014e 1F       		.byte	31
 814 014f 10       		.byte	16
 815 0150 27       		.byte	39
 816 0151 40       		.byte	64
 817 0152 2D       		.byte	45
 818 0153 01       		.byte	1
 819 0154 2E       		.byte	46
 820 0155 04       		.byte	4
 821 0156 2F       		.byte	47
 822 0157 08       		.byte	8
 823 0158 35       		.byte	53
 824 0159 04       		.byte	4
 825 015a 37       		.byte	55
 826 015b 51       		.byte	81
 827 015c 3C       		.byte	60
 828 015d 88       		.byte	-120
 829 015e 3D       		.byte	61
 830 015f 10       		.byte	16
 831 0160 3E       		.byte	62
 832 0161 02       		.byte	2
 833 0162 41       		.byte	65
 834 0163 80       		.byte	-128
 835 0164 42       		.byte	66
 836 0165 04       		.byte	4
 837 0166 43       		.byte	67
 838 0167 0C       		.byte	12
 839 0168 45       		.byte	69
 840 0169 A0       		.byte	-96
 841 016a 47       		.byte	71
 842 016b 04       		.byte	4
 843 016c 48       		.byte	72
 844 016d 40       		.byte	64
 845 016e 49       		.byte	73
 846 016f 10       		.byte	16
 847 0170 4B       		.byte	75
 848 0171 10       		.byte	16
 849 0172 4F       		.byte	79
 850 0173 2C       		.byte	44
 851 0174 54       		.byte	84
 852 0175 80       		.byte	-128
 853 0176 56       		.byte	86
 854 0177 21       		.byte	33
 855 0178 57       		.byte	87
 856 0179 02       		.byte	2
 857 017a 65       		.byte	101
 858 017b 02       		.byte	2
 859 017c 6C       		.byte	108
 860 017d 01       		.byte	1
ARM GAS  C:\Users\quint\AppData\Local\Temp\ccuZWbLb.s 			page 28


 861 017e 6D       		.byte	109
 862 017f 1B       		.byte	27
 863 0180 6E       		.byte	110
 864 0181 02       		.byte	2
 865 0182 6F       		.byte	111
 866 0183 11       		.byte	17
 867 0184 76       		.byte	118
 868 0185 02       		.byte	2
 869 0186 81       		.byte	-127
 870 0187 04       		.byte	4
 871 0188 83       		.byte	-125
 872 0189 40       		.byte	64
 873 018a 88       		.byte	-120
 874 018b 01       		.byte	1
 875 018c 8B       		.byte	-117
 876 018d 04       		.byte	4
 877 018e 8E       		.byte	-114
 878 018f 40       		.byte	64
 879 0190 8F       		.byte	-113
 880 0191 40       		.byte	64
 881 0192 92       		.byte	-110
 882 0193 04       		.byte	4
 883 0194 94       		.byte	-108
 884 0195 02       		.byte	2
 885 0196 95       		.byte	-107
 886 0197 10       		.byte	16
 887 0198 96       		.byte	-106
 888 0199 01       		.byte	1
 889 019a 97       		.byte	-105
 890 019b 20       		.byte	32
 891 019c 99       		.byte	-103
 892 019d 12       		.byte	18
 893 019e 9A       		.byte	-102
 894 019f 80       		.byte	-128
 895 01a0 9B       		.byte	-101
 896 01a1 04       		.byte	4
 897 01a2 9C       		.byte	-100
 898 01a3 01       		.byte	1
 899 01a4 9D       		.byte	-99
 900 01a5 04       		.byte	4
 901 01a6 9E       		.byte	-98
 902 01a7 23       		.byte	35
 903 01a8 9F       		.byte	-97
 904 01a9 01       		.byte	1
 905 01aa A0       		.byte	-96
 906 01ab 04       		.byte	4
 907 01ac A1       		.byte	-95
 908 01ad 20       		.byte	32
 909 01ae A3       		.byte	-93
 910 01af 10       		.byte	16
 911 01b0 A4       		.byte	-92
 912 01b1 80       		.byte	-128
 913 01b2 A5       		.byte	-91
 914 01b3 05       		.byte	5
 915 01b4 A6       		.byte	-90
 916 01b5 01       		.byte	1
 917 01b6 A7       		.byte	-89
ARM GAS  C:\Users\quint\AppData\Local\Temp\ccuZWbLb.s 			page 29


 918 01b7 42       		.byte	66
 919 01b8 AE       		.byte	-82
 920 01b9 84       		.byte	-124
 921 01ba B0       		.byte	-80
 922 01bb 84       		.byte	-124
 923 01bc B4       		.byte	-76
 924 01bd 40       		.byte	64
 925 01be B7       		.byte	-73
 926 01bf 12       		.byte	18
 927 01c0 C0       		.byte	-64
 928 01c1 F0       		.byte	-16
 929 01c2 C2       		.byte	-62
 930 01c3 F0       		.byte	-16
 931 01c4 C4       		.byte	-60
 932 01c5 70       		.byte	112
 933 01c6 CA       		.byte	-54
 934 01c7 E0       		.byte	-32
 935 01c8 CC       		.byte	-52
 936 01c9 F0       		.byte	-16
 937 01ca CE       		.byte	-50
 938 01cb F0       		.byte	-16
 939 01cc D0       		.byte	-48
 940 01cd 7E       		.byte	126
 941 01ce D2       		.byte	-46
 942 01cf 24       		.byte	36
 943 01d0 D8       		.byte	-40
 944 01d1 80       		.byte	-128
 945 01d2 61       		.byte	97
 946 01d3 02       		.byte	2
 947 01d4 6F       		.byte	111
 948 01d5 20       		.byte	32
 949 01d6 85       		.byte	-123
 950 01d7 02       		.byte	2
 951 01d8 D8       		.byte	-40
 952 01d9 40       		.byte	64
 953 01da DA       		.byte	-38
 954 01db 80       		.byte	-128
 955 01dc E2       		.byte	-30
 956 01dd 40       		.byte	64
 957 01de 03       		.byte	3
 958 01df 20       		.byte	32
 959 01e0 A7       		.byte	-89
 960 01e1 20       		.byte	32
 961 01e2 C0       		.byte	-64
 962 01e3 10       		.byte	16
 963 01e4 50       		.byte	80
 964 01e5 01       		.byte	1
 965 01e6 5F       		.byte	95
 966 01e7 02       		.byte	2
 967 01e8 66       		.byte	102
 968 01e9 01       		.byte	1
 969 01ea 8E       		.byte	-114
 970 01eb 01       		.byte	1
 971 01ec 8F       		.byte	-113
 972 01ed 02       		.byte	2
 973 01ee 90       		.byte	-112
 974 01ef 02       		.byte	2
ARM GAS  C:\Users\quint\AppData\Local\Temp\ccuZWbLb.s 			page 30


 975 01f0 B4       		.byte	-76
 976 01f1 01       		.byte	1
 977 01f2 D4       		.byte	-44
 978 01f3 01       		.byte	1
 979 01f4 D6       		.byte	-42
 980 01f5 01       		.byte	1
 981 01f6 D8       		.byte	-40
 982 01f7 01       		.byte	1
 983 01f8 E0       		.byte	-32
 984 01f9 08       		.byte	8
 985 01fa E4       		.byte	-28
 986 01fb 02       		.byte	2
 987 01fc E8       		.byte	-24
 988 01fd 02       		.byte	2
 989 01fe 01       		.byte	1
 990 01ff 01       		.byte	1
 991 0200 10       		.byte	16
 992 0201 01       		.byte	1
 993 0202 0000     		.space	2
 994              		.type	cy_cfg_addr_table.4864, %object
 995              		.size	cy_cfg_addr_table.4864, 36
 996              	cy_cfg_addr_table.4864:
 997 0204 01000F40 		.word	1074724865
 998 0208 44300F40 		.word	1074737220
 999 020c 2D310F40 		.word	1074737453
 1000 0210 1A320F40 		.word	1074737690
 1001 0214 4D330F40 		.word	1074737997
 1002 0218 06400F40 		.word	1074741254
 1003 021c 03410F40 		.word	1074741507
 1004 0220 0D430F40 		.word	1074742029
 1005 0224 02600F40 		.word	1074749442
 1006              		.type	BS_UDB_0_0_1_CONFIG_VAL.4876, %object
 1007              		.size	BS_UDB_0_0_1_CONFIG_VAL.4876, 128
 1008              	BS_UDB_0_0_1_CONFIG_VAL.4876:
 1009 0228 10       		.byte	16
 1010 0229 04       		.byte	4
 1011 022a 03       		.byte	3
 1012 022b 00       		.byte	0
 1013 022c 13       		.byte	19
 1014 022d 07       		.byte	7
 1015 022e 00       		.byte	0
 1016 022f 38       		.byte	56
 1017 0230 04       		.byte	4
 1018 0231 00       		.byte	0
 1019 0232 18       		.byte	24
 1020 0233 04       		.byte	4
 1021 0234 13       		.byte	19
 1022 0235 60       		.byte	96
 1023 0236 00       		.byte	0
 1024 0237 00       		.byte	0
 1025 0238 00       		.byte	0
 1026 0239 04       		.byte	4
 1027 023a 40       		.byte	64
 1028 023b 00       		.byte	0
 1029 023c 20       		.byte	32
 1030 023d 04       		.byte	4
 1031 023e 0C       		.byte	12
ARM GAS  C:\Users\quint\AppData\Local\Temp\ccuZWbLb.s 			page 31


 1032 023f 00       		.byte	0
 1033 0240 00       		.byte	0
 1034 0241 04       		.byte	4
 1035 0242 01       		.byte	1
 1036 0243 00       		.byte	0
 1037 0244 13       		.byte	19
 1038 0245 01       		.byte	1
 1039 0246 00       		.byte	0
 1040 0247 00       		.byte	0
 1041 0248 1C       		.byte	28
 1042 0249 04       		.byte	4
 1043 024a 60       		.byte	96
 1044 024b 00       		.byte	0
 1045 024c 04       		.byte	4
 1046 024d 56       		.byte	86
 1047 024e 78       		.byte	120
 1048 024f 09       		.byte	9
 1049 0250 03       		.byte	3
 1050 0251 0A       		.byte	10
 1051 0252 10       		.byte	16
 1052 0253 10       		.byte	16
 1053 0254 00       		.byte	0
 1054 0255 00       		.byte	0
 1055 0256 00       		.byte	0
 1056 0257 00       		.byte	0
 1057 0258 60       		.byte	96
 1058 0259 7F       		.byte	127
 1059 025a 1C       		.byte	28
 1060 025b 00       		.byte	0
 1061 025c 01       		.byte	1
 1062 025d 00       		.byte	0
 1063 025e 02       		.byte	2
 1064 025f 00       		.byte	0
 1065 0260 00       		.byte	0
 1066 0261 02       		.byte	2
 1067 0262 08       		.byte	8
 1068 0263 00       		.byte	0
 1069 0264 00       		.byte	0
 1070 0265 00       		.byte	0
 1071 0266 50       		.byte	80
 1072 0267 00       		.byte	0
 1073 0268 36       		.byte	54
 1074 0269 02       		.byte	2
 1075 026a 10       		.byte	16
 1076 026b 00       		.byte	0
 1077 026c 00       		.byte	0
 1078 026d 0D       		.byte	13
 1079 026e FE       		.byte	-2
 1080 026f C0       		.byte	-64
 1081 0270 2D       		.byte	45
 1082 0271 FF       		.byte	-1
 1083 0272 FF       		.byte	-1
 1084 0273 FF       		.byte	-1
 1085 0274 02       		.byte	2
 1086 0275 00       		.byte	0
 1087 0276 70       		.byte	112
 1088 0277 08       		.byte	8
ARM GAS  C:\Users\quint\AppData\Local\Temp\ccuZWbLb.s 			page 32


 1089 0278 04       		.byte	4
 1090 0279 00       		.byte	0
 1091 027a 00       		.byte	0
 1092 027b 00       		.byte	0
 1093 027c 00       		.byte	0
 1094 027d 00       		.byte	0
 1095 027e 02       		.byte	2
 1096 027f 2C       		.byte	44
 1097 0280 04       		.byte	4
 1098 0281 04       		.byte	4
 1099 0282 04       		.byte	4
 1100 0283 04       		.byte	4
 1101 0284 00       		.byte	0
 1102 0285 00       		.byte	0
 1103 0286 00       		.byte	0
 1104 0287 01       		.byte	1
 1105 0288 00       		.byte	0
 1106 0289 00       		.byte	0
 1107 028a C0       		.byte	-64
 1108 028b 00       		.byte	0
 1109 028c 40       		.byte	64
 1110 028d 01       		.byte	1
 1111 028e 10       		.byte	16
 1112 028f 11       		.byte	17
 1113 0290 C0       		.byte	-64
 1114 0291 01       		.byte	1
 1115 0292 00       		.byte	0
 1116 0293 11       		.byte	17
 1117 0294 40       		.byte	64
 1118 0295 01       		.byte	1
 1119 0296 40       		.byte	64
 1120 0297 01       		.byte	1
 1121 0298 00       		.byte	0
 1122 0299 00       		.byte	0
 1123 029a 00       		.byte	0
 1124 029b 00       		.byte	0
 1125 029c 00       		.byte	0
 1126 029d 00       		.byte	0
 1127 029e 00       		.byte	0
 1128 029f 00       		.byte	0
 1129 02a0 00       		.byte	0
 1130 02a1 00       		.byte	0
 1131 02a2 00       		.byte	0
 1132 02a3 00       		.byte	0
 1133 02a4 00       		.byte	0
 1134 02a5 00       		.byte	0
 1135 02a6 00       		.byte	0
 1136 02a7 00       		.byte	0
 1137              		.text
 1138              	.Letext0:
 1139              		.file 2 "c:\\program files (x86)\\cypress\\psoc creator\\4.2\\psoc creator\\import\\gnu\\arm\\5.4.
 1140              		.file 3 "Generated_Source\\PSoC4\\cytypes.h"
 1141              		.file 4 "Generated_Source\\PSoC4\\CyLib.h"