ARM GAS  C:\Users\quint\AppData\Local\Temp\ccf3jmQ8.s 			page 1


   1              		.syntax unified
   2              		.cpu cortex-m0
   3              		.fpu softvfp
   4              		.eabi_attribute 20, 1
   5              		.eabi_attribute 21, 1
   6              		.eabi_attribute 23, 3
   7              		.eabi_attribute 24, 1
   8              		.eabi_attribute 25, 1
   9              		.eabi_attribute 26, 1
  10              		.eabi_attribute 30, 1
  11              		.eabi_attribute 34, 0
  12              		.eabi_attribute 18, 4
  13              		.thumb
  14              		.syntax unified
  15              		.file	"main.c"
  16              		.text
  17              	.Ltext0:
  18              		.cfi_sections	.debug_frame
  19              		.section	.text.drawStars,"ax",%progbits
  20              		.align	2
  21              		.global	drawStars
  22              		.code	16
  23              		.thumb_func
  24              		.type	drawStars, %function
  25              	drawStars:
  26              	.LFB33:
  27              		.file 1 "main.c"
   1:main.c        **** /* ========================================
   2:main.c        ****  *
   3:main.c        ****  * Copyright YOUR COMPANY, THE YEAR
   4:main.c        ****  * All Rights Reserved
   5:main.c        ****  * UNPUBLISHED, LICENSED SOFTWARE.
   6:main.c        ****  *
   7:main.c        ****  * CONFIDENTIAL AND PROPRIETARY INFORMATION
   8:main.c        ****  * WHICH IS THE PROPERTY OF your company.
   9:main.c        ****  *
  10:main.c        ****  * ========================================
  11:main.c        **** */
  12:main.c        **** #include "project.h"
  13:main.c        **** #include "stdlib.h"
  14:main.c        **** #include  "stdbool.h"
  15:main.c        **** #include "stdio.h"
  16:main.c        **** 
  17:main.c        **** 
  18:main.c        **** 
  19:main.c        **** //Function that is used to draw the stars from the array
  20:main.c        **** void drawStars(int16 starArray[])
  21:main.c        **** {
  28              		.loc 1 21 0
  29              		.cfi_startproc
  30              		@ args = 0, pretend = 0, frame = 0
  31              		@ frame_needed = 0, uses_anonymous_args = 0
  32              	.LVL0:
  33 0000 30B5     		push	{r4, r5, lr}
  34              		.cfi_def_cfa_offset 12
  35              		.cfi_offset 4, -12
  36              		.cfi_offset 5, -8
ARM GAS  C:\Users\quint\AppData\Local\Temp\ccf3jmQ8.s 			page 2


  37              		.cfi_offset 14, -4
  38 0002 83B0     		sub	sp, sp, #12
  39              		.cfi_def_cfa_offset 24
  40 0004 0500     		movs	r5, r0
  22:main.c        ****     CyGlobalIntDisable; 
  41              		.loc 1 22 0
  42              		.syntax divided
  43              	@ 22 "main.c" 1
  44 0006 72B6     		CPSID   i
  45              	@ 0 "" 2
  46              	.LVL1:
  23:main.c        ****    int16 i=0;
  24:main.c        ****     for(i=0;i<300;i++)
  47              		.loc 1 24 0
  48              		.thumb
  49              		.syntax unified
  50 0008 0024     		movs	r4, #0
  51 000a 0CE0     		b	.L2
  52              	.LVL2:
  53              	.L3:
  25:main.c        ****     {
  26:main.c        ****         GLCD_DrawLine(starArray[i],starArray[i+1],starArray[i],starArray[i+1],GLCD_WHITE);
  54              		.loc 1 26 0 discriminator 3
  55 000c 6300     		lsls	r3, r4, #1
  56 000e 585F     		ldrsh	r0, [r3, r5]
  57 0010 631C     		adds	r3, r4, #1
  58 0012 5B00     		lsls	r3, r3, #1
  59 0014 595F     		ldrsh	r1, [r3, r5]
  60 0016 074B     		ldr	r3, .L4
  61 0018 0093     		str	r3, [sp]
  62 001a 0B00     		movs	r3, r1
  63 001c 0200     		movs	r2, r0
  64 001e FFF7FEFF 		bl	GLCD_DrawLine
  65              	.LVL3:
  24:main.c        ****     {
  66              		.loc 1 24 0 discriminator 3
  67 0022 0134     		adds	r4, r4, #1
  68              	.LVL4:
  69 0024 24B2     		sxth	r4, r4
  70              	.LVL5:
  71              	.L2:
  24:main.c        ****     {
  72              		.loc 1 24 0 is_stmt 0 discriminator 1
  73 0026 2C23     		movs	r3, #44
  74 0028 FF33     		adds	r3, r3, #255
  75 002a 9C42     		cmp	r4, r3
  76 002c EEDD     		ble	.L3
  27:main.c        ****     }
  28:main.c        ****     CyGlobalIntEnable; 
  77              		.loc 1 28 0 is_stmt 1
  78              		.syntax divided
  79              	@ 28 "main.c" 1
  80 002e 62B6     		CPSIE   i
  81              	@ 0 "" 2
  29:main.c        **** }
  82              		.loc 1 29 0
  83              		.thumb
ARM GAS  C:\Users\quint\AppData\Local\Temp\ccf3jmQ8.s 			page 3


  84              		.syntax unified
  85 0030 03B0     		add	sp, sp, #12
  86              		@ sp needed
  87              	.LVL6:
  88              	.LVL7:
  89 0032 30BD     		pop	{r4, r5, pc}
  90              	.L5:
  91              		.align	2
  92              	.L4:
  93 0034 FF0F0000 		.word	4095
  94              		.cfi_endproc
  95              	.LFE33:
  96              		.size	drawStars, .-drawStars
  97              		.section	.text.drawScope,"ax",%progbits
  98              		.align	2
  99              		.global	drawScope
 100              		.code	16
 101              		.thumb_func
 102              		.type	drawScope, %function
 103              	drawScope:
 104              	.LFB34:
  30:main.c        **** 
  31:main.c        **** //Draws the scope 
  32:main.c        **** //X and Y is the center of the circle
  33:main.c        **** //Color is the color of the scope
  34:main.c        **** void  drawScope(int16 x,int16 y,int32 color)
  35:main.c        **** {
 105              		.loc 1 35 0
 106              		.cfi_startproc
 107              		@ args = 0, pretend = 0, frame = 0
 108              		@ frame_needed = 0, uses_anonymous_args = 0
 109              	.LVL8:
 110 0000 70B5     		push	{r4, r5, r6, lr}
 111              		.cfi_def_cfa_offset 16
 112              		.cfi_offset 4, -16
 113              		.cfi_offset 5, -12
 114              		.cfi_offset 6, -8
 115              		.cfi_offset 14, -4
 116 0002 82B0     		sub	sp, sp, #8
 117              		.cfi_def_cfa_offset 24
 118 0004 0500     		movs	r5, r0
 119 0006 0C00     		movs	r4, r1
 120 0008 1600     		movs	r6, r2
  36:main.c        ****     CyGlobalIntDisable; 
 121              		.loc 1 36 0
 122              		.syntax divided
 123              	@ 36 "main.c" 1
 124 000a 72B6     		CPSID   i
 125              	@ 0 "" 2
  37:main.c        ****     GLCD_DrawCircle(x,y,8,color);
 126              		.loc 1 37 0
 127              		.thumb
 128              		.syntax unified
 129 000c 1300     		movs	r3, r2
 130 000e 0822     		movs	r2, #8
 131              	.LVL9:
 132 0010 FFF7FEFF 		bl	GLCD_DrawCircle
ARM GAS  C:\Users\quint\AppData\Local\Temp\ccf3jmQ8.s 			page 4


 133              	.LVL10:
  38:main.c        ****     GLCD_DrawLine((x-15),(y),(x+15),y,color);
 134              		.loc 1 38 0
 135 0014 2800     		movs	r0, r5
 136 0016 0F38     		subs	r0, r0, #15
 137 0018 2A00     		movs	r2, r5
 138 001a 0F32     		adds	r2, r2, #15
 139 001c 0096     		str	r6, [sp]
 140 001e 2300     		movs	r3, r4
 141 0020 2100     		movs	r1, r4
 142 0022 FFF7FEFF 		bl	GLCD_DrawLine
 143              	.LVL11:
  39:main.c        ****     GLCD_DrawLine(x,(y-15),x,(y+15),color);
 144              		.loc 1 39 0
 145 0026 2100     		movs	r1, r4
 146 0028 0F39     		subs	r1, r1, #15
 147 002a 2300     		movs	r3, r4
 148 002c 0F33     		adds	r3, r3, #15
 149 002e 0096     		str	r6, [sp]
 150 0030 2A00     		movs	r2, r5
 151 0032 2800     		movs	r0, r5
 152 0034 FFF7FEFF 		bl	GLCD_DrawLine
 153              	.LVL12:
  40:main.c        ****     CyGlobalIntEnable; 
 154              		.loc 1 40 0
 155              		.syntax divided
 156              	@ 40 "main.c" 1
 157 0038 62B6     		CPSIE   i
 158              	@ 0 "" 2
  41:main.c        ****      
  42:main.c        **** }
 159              		.loc 1 42 0
 160              		.thumb
 161              		.syntax unified
 162 003a 02B0     		add	sp, sp, #8
 163              		@ sp needed
 164              	.LVL13:
 165 003c 70BD     		pop	{r4, r5, r6, pc}
 166              		.cfi_endproc
 167              	.LFE34:
 168              		.size	drawScope, .-drawScope
 169 003e C046     		.section	.text.drawBlast,"ax",%progbits
 170              		.align	2
 171              		.global	drawBlast
 172              		.code	16
 173              		.thumb_func
 174              		.type	drawBlast, %function
 175              	drawBlast:
 176              	.LFB35:
  43:main.c        **** 
  44:main.c        **** //Draws the blast 
  45:main.c        **** //X and Y is the center of the circle
  46:main.c        **** //Size for normal is 0 and bigger is a greater specified number
  47:main.c        **** void drawBlast(int16 x,int16 y,int16 size,int32 color,int16 starArray[])
  48:main.c        **** {
 177              		.loc 1 48 0
 178              		.cfi_startproc
ARM GAS  C:\Users\quint\AppData\Local\Temp\ccf3jmQ8.s 			page 5


 179              		@ args = 4, pretend = 0, frame = 8
 180              		@ frame_needed = 0, uses_anonymous_args = 0
 181              	.LVL14:
 182 0000 F0B5     		push	{r4, r5, r6, r7, lr}
 183              		.cfi_def_cfa_offset 20
 184              		.cfi_offset 4, -20
 185              		.cfi_offset 5, -16
 186              		.cfi_offset 6, -12
 187              		.cfi_offset 7, -8
 188              		.cfi_offset 14, -4
 189 0002 83B0     		sub	sp, sp, #12
 190              		.cfi_def_cfa_offset 32
 191 0004 0090     		str	r0, [sp]
 192 0006 0E00     		movs	r6, r1
 193 0008 1500     		movs	r5, r2
 194 000a 0193     		str	r3, [sp, #4]
  49:main.c        ****    CyGlobalIntDisable; 
 195              		.loc 1 49 0
 196              		.syntax divided
 197              	@ 49 "main.c" 1
 198 000c 72B6     		CPSID   i
 199              	@ 0 "" 2
 200              	.LVL15:
  50:main.c        ****     //Draws the disired color blast
  51:main.c        ****     int16 i=0;
  52:main.c        ****     for(i=0;i<(40+size);i++)
 201              		.loc 1 52 0
 202              		.thumb
 203              		.syntax unified
 204 000e 0024     		movs	r4, #0
 205 0010 07E0     		b	.L8
 206              	.LVL16:
 207              	.L9:
  53:main.c        ****     {
  54:main.c        ****      GLCD_DrawCircle(x,y,i,color);
 208              		.loc 1 54 0 discriminator 3
 209 0012 019B     		ldr	r3, [sp, #4]
 210 0014 2200     		movs	r2, r4
 211 0016 3100     		movs	r1, r6
 212 0018 0098     		ldr	r0, [sp]
 213 001a FFF7FEFF 		bl	GLCD_DrawCircle
 214              	.LVL17:
  52:main.c        ****     {
 215              		.loc 1 52 0 discriminator 3
 216 001e 0134     		adds	r4, r4, #1
 217              	.LVL18:
 218 0020 24B2     		sxth	r4, r4
 219              	.LVL19:
 220              	.L8:
  52:main.c        ****     {
 221              		.loc 1 52 0 is_stmt 0 discriminator 1
 222 0022 2F00     		movs	r7, r5
 223 0024 2837     		adds	r7, r7, #40
 224 0026 BC42     		cmp	r4, r7
 225 0028 F3DB     		blt	.L9
 226 002a 0024     		movs	r4, #0
 227              	.LVL20:
ARM GAS  C:\Users\quint\AppData\Local\Temp\ccf3jmQ8.s 			page 6


 228 002c 07E0     		b	.L10
 229              	.LVL21:
 230              	.L11:
  55:main.c        ****     }
  56:main.c        ****     //Draws over in black
  57:main.c        ****      for(i=0;i<(40+size);i++)
  58:main.c        ****     {
  59:main.c        ****      GLCD_DrawCircle(x,y,i,GLCD_BLACK);
 231              		.loc 1 59 0 is_stmt 1 discriminator 3
 232 002e 0023     		movs	r3, #0
 233 0030 2200     		movs	r2, r4
 234 0032 3100     		movs	r1, r6
 235 0034 0098     		ldr	r0, [sp]
 236 0036 FFF7FEFF 		bl	GLCD_DrawCircle
 237              	.LVL22:
  57:main.c        ****     {
 238              		.loc 1 57 0 discriminator 3
 239 003a 0134     		adds	r4, r4, #1
 240              	.LVL23:
 241 003c 24B2     		sxth	r4, r4
 242              	.LVL24:
 243              	.L10:
  57:main.c        ****     {
 244              		.loc 1 57 0 is_stmt 0 discriminator 1
 245 003e A742     		cmp	r7, r4
 246 0040 F5DC     		bgt	.L11
  60:main.c        ****     }
  61:main.c        ****     //Put stars back
  62:main.c        ****        drawStars(starArray);
 247              		.loc 1 62 0 is_stmt 1
 248 0042 0898     		ldr	r0, [sp, #32]
 249 0044 FFF7FEFF 		bl	drawStars
 250              	.LVL25:
  63:main.c        ****     //Put back the scope
  64:main.c        ****     drawScope(x,y,GLCD_YELLOW);
 251              		.loc 1 64 0
 252 0048 FF22     		movs	r2, #255
 253 004a 1201     		lsls	r2, r2, #4
 254 004c 3100     		movs	r1, r6
 255 004e 0098     		ldr	r0, [sp]
 256 0050 FFF7FEFF 		bl	drawScope
 257              	.LVL26:
  65:main.c        ****     CyGlobalIntEnable; 
 258              		.loc 1 65 0
 259              		.syntax divided
 260              	@ 65 "main.c" 1
 261 0054 62B6     		CPSIE   i
 262              	@ 0 "" 2
  66:main.c        ****  
  67:main.c        **** }
 263              		.loc 1 67 0
 264              		.thumb
 265              		.syntax unified
 266 0056 03B0     		add	sp, sp, #12
 267              		@ sp needed
 268              	.LVL27:
 269 0058 F0BD     		pop	{r4, r5, r6, r7, pc}
ARM GAS  C:\Users\quint\AppData\Local\Temp\ccf3jmQ8.s 			page 7


 270              		.cfi_endproc
 271              	.LFE35:
 272              		.size	drawBlast, .-drawBlast
 273 005a C046     		.section	.text.ledSet,"ax",%progbits
 274              		.align	2
 275              		.global	ledSet
 276              		.code	16
 277              		.thumb_func
 278              		.type	ledSet, %function
 279              	ledSet:
 280              	.LFB36:
  68:main.c        **** 
  69:main.c        **** //Function to set the led color with r,g,b values
  70:main.c        **** void ledSet(int16 r,int16 g, int16 b)
  71:main.c        **** {
 281              		.loc 1 71 0
 282              		.cfi_startproc
 283              		@ args = 0, pretend = 0, frame = 0
 284              		@ frame_needed = 0, uses_anonymous_args = 0
 285              	.LVL28:
 286 0000 70B5     		push	{r4, r5, r6, lr}
 287              		.cfi_def_cfa_offset 16
 288              		.cfi_offset 4, -16
 289              		.cfi_offset 5, -12
 290              		.cfi_offset 6, -8
 291              		.cfi_offset 14, -4
 292 0002 0D00     		movs	r5, r1
 293 0004 1400     		movs	r4, r2
  72:main.c        ****     R_LED_Write(r);
 294              		.loc 1 72 0
 295 0006 C0B2     		uxtb	r0, r0
 296              	.LVL29:
 297 0008 FFF7FEFF 		bl	R_LED_Write
 298              	.LVL30:
  73:main.c        ****     G_LED_Write(g);
 299              		.loc 1 73 0
 300 000c E8B2     		uxtb	r0, r5
 301 000e FFF7FEFF 		bl	G_LED_Write
 302              	.LVL31:
  74:main.c        ****     B_LED_Write(b);
 303              		.loc 1 74 0
 304 0012 E0B2     		uxtb	r0, r4
 305 0014 FFF7FEFF 		bl	B_LED_Write
 306              	.LVL32:
  75:main.c        **** }
 307              		.loc 1 75 0
 308              		@ sp needed
 309 0018 70BD     		pop	{r4, r5, r6, pc}
 310              		.cfi_endproc
 311              	.LFE36:
 312              		.size	ledSet, .-ledSet
 313 001a C046     		.section	.text.WriteSensor,"ax",%progbits
 314              		.align	2
 315              		.global	WriteSensor
 316              		.code	16
 317              		.thumb_func
 318              		.type	WriteSensor, %function
ARM GAS  C:\Users\quint\AppData\Local\Temp\ccf3jmQ8.s 			page 8


 319              	WriteSensor:
 320              	.LFB37:
  76:main.c        **** 
  77:main.c        **** void WriteSensor(uint8 *WriteBuffer, int numvals)
  78:main.c        **** {
 321              		.loc 1 78 0
 322              		.cfi_startproc
 323              		@ args = 0, pretend = 0, frame = 0
 324              		@ frame_needed = 0, uses_anonymous_args = 0
 325              	.LVL33:
 326 0000 70B5     		push	{r4, r5, r6, lr}
 327              		.cfi_def_cfa_offset 16
 328              		.cfi_offset 4, -16
 329              		.cfi_offset 5, -12
 330              		.cfi_offset 6, -8
 331              		.cfi_offset 14, -4
 332 0002 0400     		movs	r4, r0
 333 0004 0D00     		movs	r5, r1
  79:main.c        ****     I2C_I2CMasterClearStatus(); 
 334              		.loc 1 79 0
 335 0006 FFF7FEFF 		bl	I2C_I2CMasterClearStatus
 336              	.LVL34:
  80:main.c        ****     I2C_I2CMasterWriteBuf(0x53,WriteBuffer,numvals,I2C_I2C_WRITE_XFER_MODE);
 337              		.loc 1 80 0
 338 000a 0023     		movs	r3, #0
 339 000c 2A00     		movs	r2, r5
 340 000e 2100     		movs	r1, r4
 341 0010 5320     		movs	r0, #83
 342 0012 FFF7FEFF 		bl	I2C_I2CMasterWriteBuf
 343              	.LVL35:
 344              	.L14:
  81:main.c        ****     while(!(I2C_I2CMasterStatus()&I2C_I2C_MSTAT_WR_CMPLT));
 345              		.loc 1 81 0 discriminator 1
 346 0016 FFF7FEFF 		bl	I2C_I2CMasterStatus
 347              	.LVL36:
 348 001a 8307     		lsls	r3, r0, #30
 349 001c FBD5     		bpl	.L14
  82:main.c        ****    
  83:main.c        **** }
 350              		.loc 1 83 0
 351              		@ sp needed
 352              	.LVL37:
 353              	.LVL38:
 354 001e 70BD     		pop	{r4, r5, r6, pc}
 355              		.cfi_endproc
 356              	.LFE37:
 357              		.size	WriteSensor, .-WriteSensor
 358              		.section	.text.ReadSensor,"ax",%progbits
 359              		.align	2
 360              		.global	ReadSensor
 361              		.code	16
 362              		.thumb_func
 363              		.type	ReadSensor, %function
 364              	ReadSensor:
 365              	.LFB38:
  84:main.c        **** 
  85:main.c        **** void ReadSensor(uint8 *ReadBuffer, int numvals)  
ARM GAS  C:\Users\quint\AppData\Local\Temp\ccf3jmQ8.s 			page 9


  86:main.c        **** {
 366              		.loc 1 86 0
 367              		.cfi_startproc
 368              		@ args = 0, pretend = 0, frame = 0
 369              		@ frame_needed = 0, uses_anonymous_args = 0
 370              	.LVL39:
 371 0000 70B5     		push	{r4, r5, r6, lr}
 372              		.cfi_def_cfa_offset 16
 373              		.cfi_offset 4, -16
 374              		.cfi_offset 5, -12
 375              		.cfi_offset 6, -8
 376              		.cfi_offset 14, -4
 377 0002 0400     		movs	r4, r0
 378 0004 0D00     		movs	r5, r1
  87:main.c        ****   I2C_I2CMasterClearStatus(); 
 379              		.loc 1 87 0
 380 0006 FFF7FEFF 		bl	I2C_I2CMasterClearStatus
 381              	.LVL40:
  88:main.c        **** I2C_I2CMasterReadBuf(0x53,ReadBuffer,numvals,I2C_I2C_READ_XFER_MODE);
 382              		.loc 1 88 0
 383 000a 0123     		movs	r3, #1
 384 000c 2A00     		movs	r2, r5
 385 000e 2100     		movs	r1, r4
 386 0010 5320     		movs	r0, #83
 387 0012 FFF7FEFF 		bl	I2C_I2CMasterReadBuf
 388              	.LVL41:
 389              	.L16:
  89:main.c        **** while(!(I2C_I2CMasterStatus()&I2C_I2C_MSTAT_RD_CMPLT));
 390              		.loc 1 89 0 discriminator 1
 391 0016 FFF7FEFF 		bl	I2C_I2CMasterStatus
 392              	.LVL42:
 393 001a C307     		lsls	r3, r0, #31
 394 001c FBD5     		bpl	.L16
  90:main.c        ****     
  91:main.c        **** }
 395              		.loc 1 91 0
 396              		@ sp needed
 397              	.LVL43:
 398              	.LVL44:
 399 001e 70BD     		pop	{r4, r5, r6, pc}
 400              		.cfi_endproc
 401              	.LFE38:
 402              		.size	ReadSensor, .-ReadSensor
 403              		.global	__aeabi_idivmod
 404              		.section	.text.main,"ax",%progbits
 405              		.align	2
 406              		.global	main
 407              		.code	16
 408              		.thumb_func
 409              		.type	main, %function
 410              	main:
 411              	.LFB39:
  92:main.c        ****     int16 stars [300]={0}; 
  93:main.c        ****     int16 twinkleStars=0;
  94:main.c        ****     int16 i=0;
  95:main.c        ****     int16 x=62;
  96:main.c        ****     int16 y=62;
ARM GAS  C:\Users\quint\AppData\Local\Temp\ccf3jmQ8.s 			page 10


  97:main.c        ****     int16 xOld=62;
  98:main.c        ****     int16 yOld=62;
  99:main.c        ****     uint32 counter=0;
 100:main.c        ****     bool blasterReady=true;
 101:main.c        ****     bool hyperblasterReady=true;
 102:main.c        ****     
 103:main.c        ****     //For accel setup
 104:main.c        ****     uint8 PWR_CTL=0x2D; 
 105:main.c        ****     uint8 DATA_FORMAT=0x31; 
 106:main.c        ****     uint8 TAP_AXES=0x2A; 
 107:main.c        ****     uint8 INT_ENABLE=0x2E;
 108:main.c        ****     uint8 INT_MAP=0x2F;
 109:main.c        ****     uint8 INT_SOURCE=0x30;
 110:main.c        ****     uint8 DATAX0=0x32; 
 111:main.c        ****     uint8 DATAX1=0x33;
 112:main.c        ****     uint8 DATAY0=0x34; 
 113:main.c        ****     uint8 DATAY1=0x35;
 114:main.c        ****     uint8 DATAZ0=0x36; 
 115:main.c        ****     uint8 DATAZ1=0x37;
 116:main.c        ****     
 117:main.c        ****     //For accel tap
 118:main.c        ****     uint8 THRESH_TAP=0x1D;
 119:main.c        ****     uint8 DUR=0x21;    
 120:main.c        ****     uint8 Latent=0x22;
 121:main.c        ****     uint8 Window=0x23;
 122:main.c        ****     
 123:main.c        ****     
 124:main.c        ****     //Buffers for i2C
 125:main.c        ****     uint8 ReadBuffer[10];
 126:main.c        ****     uint8 WriteBuffer[10];
 127:main.c        ****     
 128:main.c        ****     //Variables for the strings for testing
 129:main.c        ****     char stringX[10]; 
 130:main.c        ****     char stringY[10]; 
 131:main.c        ****     char stringZ[10]; 
 132:main.c        **** 
 133:main.c        **** int main(void)
 134:main.c        **** {
 412              		.loc 1 134 0
 413              		.cfi_startproc
 414              		@ Volatile: function does not return.
 415              		@ args = 0, pretend = 0, frame = 0
 416              		@ frame_needed = 0, uses_anonymous_args = 0
 417 0000 F8B5     		push	{r3, r4, r5, r6, r7, lr}
 418              		.cfi_def_cfa_offset 24
 419              		.cfi_offset 3, -24
 420              		.cfi_offset 4, -20
 421              		.cfi_offset 5, -16
 422              		.cfi_offset 6, -12
 423              		.cfi_offset 7, -8
 424              		.cfi_offset 14, -4
 135:main.c        ****     CyGlobalIntEnable;
 425              		.loc 1 135 0
 426              		.syntax divided
 427              	@ 135 "main.c" 1
 428 0002 62B6     		CPSIE   i
 429              	@ 0 "" 2
ARM GAS  C:\Users\quint\AppData\Local\Temp\ccf3jmQ8.s 			page 11


 136:main.c        ****        Timer_Start(); 
 430              		.loc 1 136 0
 431              		.thumb
 432              		.syntax unified
 433 0004 FFF7FEFF 		bl	Timer_Start
 434              	.LVL45:
 137:main.c        ****        I2C_Start(); 
 435              		.loc 1 137 0
 436 0008 FFF7FEFF 		bl	I2C_Start
 437              	.LVL46:
 138:main.c        ****        Clock_1_Start(); 
 438              		.loc 1 138 0
 439 000c FFF7FEFF 		bl	Clock_1_Start
 440              	.LVL47:
 139:main.c        ****      GLCD_Start(); 
 441              		.loc 1 139 0
 442 0010 FFF7FEFF 		bl	GLCD_Start
 443              	.LVL48:
 140:main.c        ****      Backlight_Write(1);
 444              		.loc 1 140 0
 445 0014 0120     		movs	r0, #1
 446 0016 FFF7FEFF 		bl	Backlight_Write
 447              	.LVL49:
 141:main.c        ****     GLCD_Clear(GLCD_BLACK);
 448              		.loc 1 141 0
 449 001a 0020     		movs	r0, #0
 450 001c FFF7FEFF 		bl	GLCD_Clear
 451              	.LVL50:
 142:main.c        ****     //tapInterrupt_Start(); 
 143:main.c        ****     //I2C_Start(); 
 144:main.c        ****     
 145:main.c        ****     drawStars(stars);
 452              		.loc 1 145 0
 453 0020 3D48     		ldr	r0, .L21
 454 0022 FFF7FEFF 		bl	drawStars
 455              	.LVL51:
 146:main.c        ****     drawScope(x,y,GLCD_YELLOW);
 456              		.loc 1 146 0
 457 0026 3D4D     		ldr	r5, .L21+4
 458 0028 0023     		movs	r3, #0
 459 002a E95E     		ldrsh	r1, [r5, r3]
 460 002c 0223     		movs	r3, #2
 461 002e E85E     		ldrsh	r0, [r5, r3]
 462 0030 FF22     		movs	r2, #255
 463 0032 1201     		lsls	r2, r2, #4
 464 0034 FFF7FEFF 		bl	drawScope
 465              	.LVL52:
 147:main.c        ****     ledSet(1,1,0); //Set to blue
 466              		.loc 1 147 0
 467 0038 0022     		movs	r2, #0
 468 003a 0121     		movs	r1, #1
 469 003c 0120     		movs	r0, #1
 470 003e FFF7FEFF 		bl	ledSet
 471              	.LVL53:
 148:main.c        ****  
 149:main.c        ****     
 150:main.c        ****    //Turns on the accel
ARM GAS  C:\Users\quint\AppData\Local\Temp\ccf3jmQ8.s 			page 12


 151:main.c        ****     WriteBuffer[0] = PWR_CTL;
 472              		.loc 1 151 0
 473 0042 374C     		ldr	r4, .L21+8
 474 0044 2B79     		ldrb	r3, [r5, #4]
 475 0046 2370     		strb	r3, [r4]
 152:main.c        ****     WriteBuffer[1] = 0b00001000;
 476              		.loc 1 152 0
 477 0048 0823     		movs	r3, #8
 478 004a 6370     		strb	r3, [r4, #1]
 153:main.c        ****     WriteSensor(WriteBuffer,2); //Write two bytes of data
 479              		.loc 1 153 0
 480 004c 0221     		movs	r1, #2
 481 004e 2000     		movs	r0, r4
 482 0050 FFF7FEFF 		bl	WriteSensor
 483              	.LVL54:
 154:main.c        ****     
 155:main.c        ****     WriteBuffer[0] = DATA_FORMAT;
 484              		.loc 1 155 0
 485 0054 6B79     		ldrb	r3, [r5, #5]
 486 0056 2370     		strb	r3, [r4]
 156:main.c        ****     WriteBuffer[1] = 0b00000011; 
 487              		.loc 1 156 0
 488 0058 0323     		movs	r3, #3
 489 005a 6370     		strb	r3, [r4, #1]
 157:main.c        ****     WriteSensor(WriteBuffer,2); //Write two bytes of data
 490              		.loc 1 157 0
 491 005c 0221     		movs	r1, #2
 492 005e 2000     		movs	r0, r4
 493 0060 FFF7FEFF 		bl	WriteSensor
 494              	.LVL55:
 158:main.c        **** 
 159:main.c        ****     WriteBuffer[0] = INT_ENABLE;
 495              		.loc 1 159 0
 496 0064 AB79     		ldrb	r3, [r5, #6]
 497 0066 2370     		strb	r3, [r4]
 160:main.c        ****     WriteBuffer[1] = 0b01110000;
 498              		.loc 1 160 0
 499 0068 7023     		movs	r3, #112
 500 006a 6370     		strb	r3, [r4, #1]
 161:main.c        ****     WriteSensor(WriteBuffer,2); //Write two bytes of data
 501              		.loc 1 161 0
 502 006c 0221     		movs	r1, #2
 503 006e 2000     		movs	r0, r4
 504 0070 FFF7FEFF 		bl	WriteSensor
 505              	.LVL56:
 162:main.c        ****     
 163:main.c        ****     WriteBuffer[0] = INT_MAP;
 506              		.loc 1 163 0
 507 0074 EB79     		ldrb	r3, [r5, #7]
 508 0076 2370     		strb	r3, [r4]
 164:main.c        ****     WriteBuffer[1] = 0b00000000;
 509              		.loc 1 164 0
 510 0078 0026     		movs	r6, #0
 511 007a 6670     		strb	r6, [r4, #1]
 165:main.c        ****     WriteSensor(WriteBuffer,2); //Write two bytes of data
 512              		.loc 1 165 0
 513 007c 0221     		movs	r1, #2
ARM GAS  C:\Users\quint\AppData\Local\Temp\ccf3jmQ8.s 			page 13


 514 007e 2000     		movs	r0, r4
 515 0080 FFF7FEFF 		bl	WriteSensor
 516              	.LVL57:
 166:main.c        ****     
 167:main.c        **** //    WriteBuffer[0] = INT_SOURCE;
 168:main.c        **** //    WriteBuffer[1] = 0b;
 169:main.c        **** //    WriteSensor(WriteBuffer,2); //Write two bytes of data
 170:main.c        ****     
 171:main.c        ****      WriteBuffer[0] = THRESH_TAP;
 517              		.loc 1 171 0
 518 0084 2B7A     		ldrb	r3, [r5, #8]
 519 0086 2370     		strb	r3, [r4]
 172:main.c        ****     WriteBuffer[1] = 0xc0;
 520              		.loc 1 172 0
 521 0088 C023     		movs	r3, #192
 522 008a 6370     		strb	r3, [r4, #1]
 173:main.c        ****     WriteSensor(WriteBuffer,2); //Write two bytes of data
 523              		.loc 1 173 0
 524 008c 0221     		movs	r1, #2
 525 008e 2000     		movs	r0, r4
 526 0090 FFF7FEFF 		bl	WriteSensor
 527              	.LVL58:
 174:main.c        ****     
 175:main.c        ****     //Sets the tap threshold 
 176:main.c        ****     WriteBuffer[0] = TAP_AXES;
 528              		.loc 1 176 0
 529 0094 6B7A     		ldrb	r3, [r5, #9]
 530 0096 2370     		strb	r3, [r4]
 177:main.c        ****     WriteBuffer[1] = 0b00000111;
 531              		.loc 1 177 0
 532 0098 0723     		movs	r3, #7
 533 009a 6370     		strb	r3, [r4, #1]
 178:main.c        ****     WriteSensor(WriteBuffer,2); //Write two bytes of data
 534              		.loc 1 178 0
 535 009c 0221     		movs	r1, #2
 536 009e 2000     		movs	r0, r4
 537 00a0 FFF7FEFF 		bl	WriteSensor
 538              	.LVL59:
 179:main.c        ****     
 180:main.c        ****     //Sets the tap duration 
 181:main.c        ****     WriteBuffer[0] = DUR;
 539              		.loc 1 181 0
 540 00a4 AB7A     		ldrb	r3, [r5, #10]
 541 00a6 2370     		strb	r3, [r4]
 182:main.c        ****     WriteBuffer[1] = 0x20;
 542              		.loc 1 182 0
 543 00a8 2027     		movs	r7, #32
 544 00aa 6770     		strb	r7, [r4, #1]
 183:main.c        ****     WriteSensor(WriteBuffer,2); //Write two bytes of data
 545              		.loc 1 183 0
 546 00ac 0221     		movs	r1, #2
 547 00ae 2000     		movs	r0, r4
 548 00b0 FFF7FEFF 		bl	WriteSensor
 549              	.LVL60:
 184:main.c        ****     
 185:main.c        ****     WriteBuffer[0] = Latent;
 550              		.loc 1 185 0
ARM GAS  C:\Users\quint\AppData\Local\Temp\ccf3jmQ8.s 			page 14


 551 00b4 EB7A     		ldrb	r3, [r5, #11]
 552 00b6 2370     		strb	r3, [r4]
 186:main.c        ****     WriteBuffer[1] = 0x20;
 553              		.loc 1 186 0
 554 00b8 6770     		strb	r7, [r4, #1]
 187:main.c        ****     WriteSensor(WriteBuffer,2); //Write two bytes of data
 555              		.loc 1 187 0
 556 00ba 0221     		movs	r1, #2
 557 00bc 2000     		movs	r0, r4
 558 00be FFF7FEFF 		bl	WriteSensor
 559              	.LVL61:
 188:main.c        ****     
 189:main.c        ****     WriteBuffer[0] = Window;
 560              		.loc 1 189 0
 561 00c2 2B7B     		ldrb	r3, [r5, #12]
 562 00c4 2370     		strb	r3, [r4]
 190:main.c        ****     WriteBuffer[1] = 0x80;
 563              		.loc 1 190 0
 564 00c6 8023     		movs	r3, #128
 565 00c8 6370     		strb	r3, [r4, #1]
 191:main.c        ****     WriteSensor(WriteBuffer,2); //Write two bytes of data
 566              		.loc 1 191 0
 567 00ca 0221     		movs	r1, #2
 568 00cc 2000     		movs	r0, r4
 569 00ce FFF7FEFF 		bl	WriteSensor
 570              	.LVL62:
 192:main.c        ****     
 193:main.c        ****     accData_Start(); 
 571              		.loc 1 193 0
 572 00d2 FFF7FEFF 		bl	accData_Start
 573              	.LVL63:
 194:main.c        ****     tapInterrupt_Start();
 574              		.loc 1 194 0
 575 00d6 FFF7FEFF 		bl	tapInterrupt_Start
 576              	.LVL64:
 195:main.c        ****     accData_ClearPending(); 
 577              		.loc 1 195 0
 578 00da FFF7FEFF 		bl	accData_ClearPending
 579              	.LVL65:
 196:main.c        ****     
 197:main.c        ****    
 198:main.c        ****     
 199:main.c        ****     //Loads the array with x,y for the stars
 200:main.c        ****     for(i=0;i<300;i++)
 580              		.loc 1 200 0
 581 00de 5823     		movs	r3, #88
 582 00e0 104A     		ldr	r2, .L21+12
 583 00e2 D652     		strh	r6, [r2, r3]
 584 00e4 0CE0     		b	.L18
 585              	.L19:
 201:main.c        ****     {
 202:main.c        ****         stars[i]=rand()%132;  
 586              		.loc 1 202 0 discriminator 3
 587 00e6 FFF7FEFF 		bl	rand
 588              	.LVL66:
 589 00ea 8421     		movs	r1, #132
 590 00ec FFF7FEFF 		bl	__aeabi_idivmod
ARM GAS  C:\Users\quint\AppData\Local\Temp\ccf3jmQ8.s 			page 15


 591              	.LVL67:
 592 00f0 6400     		lsls	r4, r4, #1
 593 00f2 094B     		ldr	r3, .L21
 594 00f4 E152     		strh	r1, [r4, r3]
 200:main.c        ****     {
 595              		.loc 1 200 0 discriminator 3
 596 00f6 0B49     		ldr	r1, .L21+12
 597 00f8 5822     		movs	r2, #88
 598 00fa 8B5A     		ldrh	r3, [r1, r2]
 599 00fc 0133     		adds	r3, r3, #1
 600 00fe 8B52     		strh	r3, [r1, r2]
 601              	.L18:
 200:main.c        ****     {
 602              		.loc 1 200 0 is_stmt 0 discriminator 1
 603 0100 5823     		movs	r3, #88
 604 0102 084A     		ldr	r2, .L21+12
 605 0104 D45E     		ldrsh	r4, [r2, r3]
 606 0106 2C23     		movs	r3, #44
 607 0108 FF33     		adds	r3, r3, #255
 608 010a 9C42     		cmp	r4, r3
 609 010c EBDD     		ble	.L19
 203:main.c        ****     }
 204:main.c        ****     
 205:main.c        ****    
 206:main.c        **** 
 207:main.c        ****     /* Place your initialization/startup code here (e.g. MyInst_Start()) */
 208:main.c        ****    
 209:main.c        **** 
 210:main.c        **** 
 211:main.c        ****     
 212:main.c        ****  //Draws the stars
 213:main.c        ****           drawStars(stars);
 610              		.loc 1 213 0 is_stmt 1
 611 010e 0248     		ldr	r0, .L21
 612 0110 FFF7FEFF 		bl	drawStars
 613              	.LVL68:
 214:main.c        ****  CyGlobalIntEnable; /* Enable global interrupts. */
 614              		.loc 1 214 0
 615              		.syntax divided
 616              	@ 214 "main.c" 1
 617 0114 62B6     		CPSIE   i
 618              	@ 0 "" 2
 619              		.thumb
 620              		.syntax unified
 621              	.L20:
 622 0116 FEE7     		b	.L20
 623              	.L22:
 624              		.align	2
 625              	.L21:
 626 0118 00000000 		.word	.LANCHOR0
 627 011c 00000000 		.word	.LANCHOR1
 628 0120 00000000 		.word	WriteBuffer
 629 0124 00020000 		.word	.LANCHOR2
 630              		.cfi_endproc
 631              	.LFE39:
 632              		.size	main, .-main
 633              		.comm	stringZ,10,4
ARM GAS  C:\Users\quint\AppData\Local\Temp\ccf3jmQ8.s 			page 16


 634              		.comm	stringY,10,4
 635              		.comm	stringX,10,4
 636              		.comm	WriteBuffer,10,4
 637              		.comm	ReadBuffer,10,4
 638              		.global	Window
 639              		.global	Latent
 640              		.global	DUR
 641              		.global	THRESH_TAP
 642              		.global	DATAZ1
 643              		.global	DATAZ0
 644              		.global	DATAY1
 645              		.global	DATAY0
 646              		.global	DATAX1
 647              		.global	DATAX0
 648              		.global	INT_SOURCE
 649              		.global	INT_MAP
 650              		.global	INT_ENABLE
 651              		.global	TAP_AXES
 652              		.global	DATA_FORMAT
 653              		.global	PWR_CTL
 654              		.global	hyperblasterReady
 655              		.global	blasterReady
 656              		.global	counter
 657              		.global	yOld
 658              		.global	xOld
 659              		.global	y
 660              		.global	x
 661              		.global	i
 662              		.global	twinkleStars
 663              		.global	stars
 664              		.comm	GLCD_FONT8x16,1552,4
 665              		.data
 666              		.align	1
 667              		.set	.LANCHOR1,. + 0
 668              		.type	y, %object
 669              		.size	y, 2
 670              	y:
 671 0000 3E00     		.short	62
 672              		.type	x, %object
 673              		.size	x, 2
 674              	x:
 675 0002 3E00     		.short	62
 676              		.type	PWR_CTL, %object
 677              		.size	PWR_CTL, 1
 678              	PWR_CTL:
 679 0004 2D       		.byte	45
 680              		.type	DATA_FORMAT, %object
 681              		.size	DATA_FORMAT, 1
 682              	DATA_FORMAT:
 683 0005 31       		.byte	49
 684              		.type	INT_ENABLE, %object
 685              		.size	INT_ENABLE, 1
 686              	INT_ENABLE:
 687 0006 2E       		.byte	46
 688              		.type	INT_MAP, %object
 689              		.size	INT_MAP, 1
 690              	INT_MAP:
ARM GAS  C:\Users\quint\AppData\Local\Temp\ccf3jmQ8.s 			page 17


 691 0007 2F       		.byte	47
 692              		.type	THRESH_TAP, %object
 693              		.size	THRESH_TAP, 1
 694              	THRESH_TAP:
 695 0008 1D       		.byte	29
 696              		.type	TAP_AXES, %object
 697              		.size	TAP_AXES, 1
 698              	TAP_AXES:
 699 0009 2A       		.byte	42
 700              		.type	DUR, %object
 701              		.size	DUR, 1
 702              	DUR:
 703 000a 21       		.byte	33
 704              		.type	Latent, %object
 705              		.size	Latent, 1
 706              	Latent:
 707 000b 22       		.byte	34
 708              		.type	Window, %object
 709              		.size	Window, 1
 710              	Window:
 711 000c 23       		.byte	35
 712              		.type	DATAZ1, %object
 713              		.size	DATAZ1, 1
 714              	DATAZ1:
 715 000d 37       		.byte	55
 716              		.type	DATAZ0, %object
 717              		.size	DATAZ0, 1
 718              	DATAZ0:
 719 000e 36       		.byte	54
 720              		.type	DATAY1, %object
 721              		.size	DATAY1, 1
 722              	DATAY1:
 723 000f 35       		.byte	53
 724              		.type	DATAY0, %object
 725              		.size	DATAY0, 1
 726              	DATAY0:
 727 0010 34       		.byte	52
 728              		.type	DATAX1, %object
 729              		.size	DATAX1, 1
 730              	DATAX1:
 731 0011 33       		.byte	51
 732              		.type	DATAX0, %object
 733              		.size	DATAX0, 1
 734              	DATAX0:
 735 0012 32       		.byte	50
 736              		.type	INT_SOURCE, %object
 737              		.size	INT_SOURCE, 1
 738              	INT_SOURCE:
 739 0013 30       		.byte	48
 740              		.type	hyperblasterReady, %object
 741              		.size	hyperblasterReady, 1
 742              	hyperblasterReady:
 743 0014 01       		.byte	1
 744              		.type	blasterReady, %object
 745              		.size	blasterReady, 1
 746              	blasterReady:
 747 0015 01       		.byte	1
ARM GAS  C:\Users\quint\AppData\Local\Temp\ccf3jmQ8.s 			page 18


 748              		.type	yOld, %object
 749              		.size	yOld, 2
 750              	yOld:
 751 0016 3E00     		.short	62
 752              		.type	xOld, %object
 753              		.size	xOld, 2
 754              	xOld:
 755 0018 3E00     		.short	62
 756              		.bss
 757              		.align	2
 758              		.set	.LANCHOR0,. + 0
 759              		.set	.LANCHOR2,. + 512
 760              		.type	stars, %object
 761              		.size	stars, 600
 762              	stars:
 763 0000 00000000 		.space	600
 763      00000000 
 763      00000000 
 763      00000000 
 763      00000000 
 764              		.type	i, %object
 765              		.size	i, 2
 766              	i:
 767 0258 0000     		.space	2
 768 025a 0000     		.space	2
 769              		.type	counter, %object
 770              		.size	counter, 4
 771              	counter:
 772 025c 00000000 		.space	4
 773              		.type	twinkleStars, %object
 774              		.size	twinkleStars, 2
 775              	twinkleStars:
 776 0260 0000     		.space	2
 777              		.text
 778              	.Letext0:
 779              		.file 2 "Generated_Source\\PSoC4/cytypes.h"
 780              		.file 3 "Generated_Source\\PSoC4/GLCD.h"
 781              		.file 4 "Generated_Source\\PSoC4/R_LED.h"
 782              		.file 5 "Generated_Source\\PSoC4/G_LED.h"
 783              		.file 6 "Generated_Source\\PSoC4/B_LED.h"
 784              		.file 7 "Generated_Source\\PSoC4/I2C_I2C.h"
 785              		.file 8 "Generated_Source\\PSoC4/Timer.h"
 786              		.file 9 "Generated_Source\\PSoC4/I2C.h"
 787              		.file 10 "Generated_Source\\PSoC4/Clock_1.h"
 788              		.file 11 "Generated_Source\\PSoC4/Backlight.h"
 789              		.file 12 "Generated_Source\\PSoC4/accData.h"
 790              		.file 13 "Generated_Source\\PSoC4/tapInterrupt.h"
 791              		.file 14 "c:\\program files (x86)\\cypress\\psoc creator\\4.2\\psoc creator\\import\\gnu\\arm\\5.4