ARM GAS  C:\Users\quint\AppData\Local\Temp\ccEa6Uwb.s 			page 1


   1              		.syntax unified
   2              		.cpu cortex-m0
   3              		.fpu softvfp
   4              		.eabi_attribute 20, 1
   5              		.eabi_attribute 21, 1
   6              		.eabi_attribute 23, 3
   7              		.eabi_attribute 24, 1
   8              		.eabi_attribute 25, 1
   9              		.eabi_attribute 26, 1
  10              		.eabi_attribute 30, 1
  11              		.eabi_attribute 34, 0
  12              		.eabi_attribute 18, 4
  13              		.thumb
  14              		.syntax unified
  15              		.file	"A_Interrupt.c"
  16              		.text
  17              	.Ltext0:
  18              		.cfi_sections	.debug_frame
  19              		.section	.text.A_Interrupt_SetVector,"ax",%progbits
  20              		.align	2
  21              		.global	A_Interrupt_SetVector
  22              		.code	16
  23              		.thumb_func
  24              		.type	A_Interrupt_SetVector, %function
  25              	A_Interrupt_SetVector:
  26              	.LFB37:
  27              		.file 1 "Generated_Source\\PSoC4\\A_Interrupt.c"
   1:Generated_Source\PSoC4/A_Interrupt.c **** /*******************************************************************************
   2:Generated_Source\PSoC4/A_Interrupt.c **** * File Name: A_Interrupt.c  
   3:Generated_Source\PSoC4/A_Interrupt.c **** * Version 1.70
   4:Generated_Source\PSoC4/A_Interrupt.c **** *
   5:Generated_Source\PSoC4/A_Interrupt.c **** *  Description:
   6:Generated_Source\PSoC4/A_Interrupt.c **** *   API for controlling the state of an interrupt.
   7:Generated_Source\PSoC4/A_Interrupt.c **** *
   8:Generated_Source\PSoC4/A_Interrupt.c **** *
   9:Generated_Source\PSoC4/A_Interrupt.c **** *  Note:
  10:Generated_Source\PSoC4/A_Interrupt.c **** *
  11:Generated_Source\PSoC4/A_Interrupt.c **** ********************************************************************************
  12:Generated_Source\PSoC4/A_Interrupt.c **** * Copyright 2008-2015, Cypress Semiconductor Corporation.  All rights reserved.
  13:Generated_Source\PSoC4/A_Interrupt.c **** * You may use this file only in accordance with the license, terms, conditions, 
  14:Generated_Source\PSoC4/A_Interrupt.c **** * disclaimers, and limitations in the end user license agreement accompanying 
  15:Generated_Source\PSoC4/A_Interrupt.c **** * the software package with which this file was provided.
  16:Generated_Source\PSoC4/A_Interrupt.c **** *******************************************************************************/
  17:Generated_Source\PSoC4/A_Interrupt.c **** 
  18:Generated_Source\PSoC4/A_Interrupt.c **** 
  19:Generated_Source\PSoC4/A_Interrupt.c **** #include <cydevice_trm.h>
  20:Generated_Source\PSoC4/A_Interrupt.c **** #include <CyLib.h>
  21:Generated_Source\PSoC4/A_Interrupt.c **** #include <A_Interrupt.h>
  22:Generated_Source\PSoC4/A_Interrupt.c **** #include "cyapicallbacks.h"
  23:Generated_Source\PSoC4/A_Interrupt.c **** 
  24:Generated_Source\PSoC4/A_Interrupt.c **** #if !defined(A_Interrupt__REMOVED) /* Check for removal by optimization */
  25:Generated_Source\PSoC4/A_Interrupt.c **** 
  26:Generated_Source\PSoC4/A_Interrupt.c **** /*******************************************************************************
  27:Generated_Source\PSoC4/A_Interrupt.c **** *  Place your includes, defines and code here 
  28:Generated_Source\PSoC4/A_Interrupt.c **** ********************************************************************************/
  29:Generated_Source\PSoC4/A_Interrupt.c **** /* `#START A_Interrupt_intc` */
  30:Generated_Source\PSoC4/A_Interrupt.c ****     
ARM GAS  C:\Users\quint\AppData\Local\Temp\ccEa6Uwb.s 			page 2


  31:Generated_Source\PSoC4/A_Interrupt.c **** #include "project.h"
  32:Generated_Source\PSoC4/A_Interrupt.c **** #include <stdio.h>
  33:Generated_Source\PSoC4/A_Interrupt.c **** #define PUSHED 0
  34:Generated_Source\PSoC4/A_Interrupt.c **** extern int count; 
  35:Generated_Source\PSoC4/A_Interrupt.c **** extern char mystring[20];
  36:Generated_Source\PSoC4/A_Interrupt.c **** 
  37:Generated_Source\PSoC4/A_Interrupt.c **** /* `#END` */
  38:Generated_Source\PSoC4/A_Interrupt.c **** 
  39:Generated_Source\PSoC4/A_Interrupt.c **** extern cyisraddress CyRamVectors[CYINT_IRQ_BASE + CY_NUM_INTERRUPTS];
  40:Generated_Source\PSoC4/A_Interrupt.c **** 
  41:Generated_Source\PSoC4/A_Interrupt.c **** /* Declared in startup, used to set unused interrupts to. */
  42:Generated_Source\PSoC4/A_Interrupt.c **** CY_ISR_PROTO(IntDefaultHandler);
  43:Generated_Source\PSoC4/A_Interrupt.c **** 
  44:Generated_Source\PSoC4/A_Interrupt.c **** 
  45:Generated_Source\PSoC4/A_Interrupt.c **** /*******************************************************************************
  46:Generated_Source\PSoC4/A_Interrupt.c **** * Function Name: A_Interrupt_Start
  47:Generated_Source\PSoC4/A_Interrupt.c **** ********************************************************************************
  48:Generated_Source\PSoC4/A_Interrupt.c **** *
  49:Generated_Source\PSoC4/A_Interrupt.c **** * Summary:
  50:Generated_Source\PSoC4/A_Interrupt.c **** *  Set up the interrupt and enable it. This function disables the interrupt, 
  51:Generated_Source\PSoC4/A_Interrupt.c **** *  sets the default interrupt vector, sets the priority from the value in the
  52:Generated_Source\PSoC4/A_Interrupt.c **** *  Design Wide Resources Interrupt Editor, then enables the interrupt to the 
  53:Generated_Source\PSoC4/A_Interrupt.c **** *  interrupt controller.
  54:Generated_Source\PSoC4/A_Interrupt.c **** *
  55:Generated_Source\PSoC4/A_Interrupt.c **** * Parameters:  
  56:Generated_Source\PSoC4/A_Interrupt.c **** *   None
  57:Generated_Source\PSoC4/A_Interrupt.c **** *
  58:Generated_Source\PSoC4/A_Interrupt.c **** * Return:
  59:Generated_Source\PSoC4/A_Interrupt.c **** *   None
  60:Generated_Source\PSoC4/A_Interrupt.c **** *
  61:Generated_Source\PSoC4/A_Interrupt.c **** *******************************************************************************/
  62:Generated_Source\PSoC4/A_Interrupt.c **** void A_Interrupt_Start(void)
  63:Generated_Source\PSoC4/A_Interrupt.c **** {
  64:Generated_Source\PSoC4/A_Interrupt.c ****     /* For all we know the interrupt is active. */
  65:Generated_Source\PSoC4/A_Interrupt.c ****     A_Interrupt_Disable();
  66:Generated_Source\PSoC4/A_Interrupt.c **** 
  67:Generated_Source\PSoC4/A_Interrupt.c ****     /* Set the ISR to point to the A_Interrupt Interrupt. */
  68:Generated_Source\PSoC4/A_Interrupt.c ****     A_Interrupt_SetVector(&A_Interrupt_Interrupt);
  69:Generated_Source\PSoC4/A_Interrupt.c **** 
  70:Generated_Source\PSoC4/A_Interrupt.c ****     /* Set the priority. */
  71:Generated_Source\PSoC4/A_Interrupt.c ****     A_Interrupt_SetPriority((uint8)A_Interrupt_INTC_PRIOR_NUMBER);
  72:Generated_Source\PSoC4/A_Interrupt.c **** 
  73:Generated_Source\PSoC4/A_Interrupt.c ****     /* Enable it. */
  74:Generated_Source\PSoC4/A_Interrupt.c ****     A_Interrupt_Enable();
  75:Generated_Source\PSoC4/A_Interrupt.c **** }
  76:Generated_Source\PSoC4/A_Interrupt.c **** 
  77:Generated_Source\PSoC4/A_Interrupt.c **** 
  78:Generated_Source\PSoC4/A_Interrupt.c **** /*******************************************************************************
  79:Generated_Source\PSoC4/A_Interrupt.c **** * Function Name: A_Interrupt_StartEx
  80:Generated_Source\PSoC4/A_Interrupt.c **** ********************************************************************************
  81:Generated_Source\PSoC4/A_Interrupt.c **** *
  82:Generated_Source\PSoC4/A_Interrupt.c **** * Summary:
  83:Generated_Source\PSoC4/A_Interrupt.c **** *  Sets up the interrupt and enables it. This function disables the interrupt,
  84:Generated_Source\PSoC4/A_Interrupt.c **** *  sets the interrupt vector based on the address passed in, sets the priority 
  85:Generated_Source\PSoC4/A_Interrupt.c **** *  from the value in the Design Wide Resources Interrupt Editor, then enables 
  86:Generated_Source\PSoC4/A_Interrupt.c **** *  the interrupt to the interrupt controller.
  87:Generated_Source\PSoC4/A_Interrupt.c **** *  
ARM GAS  C:\Users\quint\AppData\Local\Temp\ccEa6Uwb.s 			page 3


  88:Generated_Source\PSoC4/A_Interrupt.c **** *  When defining ISR functions, the CY_ISR and CY_ISR_PROTO macros should be 
  89:Generated_Source\PSoC4/A_Interrupt.c **** *  used to provide consistent definition across compilers:
  90:Generated_Source\PSoC4/A_Interrupt.c **** *  
  91:Generated_Source\PSoC4/A_Interrupt.c **** *  Function definition example:
  92:Generated_Source\PSoC4/A_Interrupt.c **** *   CY_ISR(MyISR)
  93:Generated_Source\PSoC4/A_Interrupt.c **** *   {
  94:Generated_Source\PSoC4/A_Interrupt.c **** *   }
  95:Generated_Source\PSoC4/A_Interrupt.c **** *   Function prototype example:
  96:Generated_Source\PSoC4/A_Interrupt.c **** *   CY_ISR_PROTO(MyISR);
  97:Generated_Source\PSoC4/A_Interrupt.c **** *
  98:Generated_Source\PSoC4/A_Interrupt.c **** * Parameters:  
  99:Generated_Source\PSoC4/A_Interrupt.c **** *   address: Address of the ISR to set in the interrupt vector table.
 100:Generated_Source\PSoC4/A_Interrupt.c **** *
 101:Generated_Source\PSoC4/A_Interrupt.c **** * Return:
 102:Generated_Source\PSoC4/A_Interrupt.c **** *   None
 103:Generated_Source\PSoC4/A_Interrupt.c **** *
 104:Generated_Source\PSoC4/A_Interrupt.c **** *******************************************************************************/
 105:Generated_Source\PSoC4/A_Interrupt.c **** void A_Interrupt_StartEx(cyisraddress address)
 106:Generated_Source\PSoC4/A_Interrupt.c **** {
 107:Generated_Source\PSoC4/A_Interrupt.c ****     /* For all we know the interrupt is active. */
 108:Generated_Source\PSoC4/A_Interrupt.c ****     A_Interrupt_Disable();
 109:Generated_Source\PSoC4/A_Interrupt.c **** 
 110:Generated_Source\PSoC4/A_Interrupt.c ****     /* Set the ISR to point to the A_Interrupt Interrupt. */
 111:Generated_Source\PSoC4/A_Interrupt.c ****     A_Interrupt_SetVector(address);
 112:Generated_Source\PSoC4/A_Interrupt.c **** 
 113:Generated_Source\PSoC4/A_Interrupt.c ****     /* Set the priority. */
 114:Generated_Source\PSoC4/A_Interrupt.c ****     A_Interrupt_SetPriority((uint8)A_Interrupt_INTC_PRIOR_NUMBER);
 115:Generated_Source\PSoC4/A_Interrupt.c **** 
 116:Generated_Source\PSoC4/A_Interrupt.c ****     /* Enable it. */
 117:Generated_Source\PSoC4/A_Interrupt.c ****     A_Interrupt_Enable();
 118:Generated_Source\PSoC4/A_Interrupt.c **** }
 119:Generated_Source\PSoC4/A_Interrupt.c **** 
 120:Generated_Source\PSoC4/A_Interrupt.c **** 
 121:Generated_Source\PSoC4/A_Interrupt.c **** /*******************************************************************************
 122:Generated_Source\PSoC4/A_Interrupt.c **** * Function Name: A_Interrupt_Stop
 123:Generated_Source\PSoC4/A_Interrupt.c **** ********************************************************************************
 124:Generated_Source\PSoC4/A_Interrupt.c **** *
 125:Generated_Source\PSoC4/A_Interrupt.c **** * Summary:
 126:Generated_Source\PSoC4/A_Interrupt.c **** *   Disables and removes the interrupt.
 127:Generated_Source\PSoC4/A_Interrupt.c **** *
 128:Generated_Source\PSoC4/A_Interrupt.c **** * Parameters:  
 129:Generated_Source\PSoC4/A_Interrupt.c **** *   None
 130:Generated_Source\PSoC4/A_Interrupt.c **** *
 131:Generated_Source\PSoC4/A_Interrupt.c **** * Return:
 132:Generated_Source\PSoC4/A_Interrupt.c **** *   None
 133:Generated_Source\PSoC4/A_Interrupt.c **** *
 134:Generated_Source\PSoC4/A_Interrupt.c **** *******************************************************************************/
 135:Generated_Source\PSoC4/A_Interrupt.c **** void A_Interrupt_Stop(void)
 136:Generated_Source\PSoC4/A_Interrupt.c **** {
 137:Generated_Source\PSoC4/A_Interrupt.c ****     /* Disable this interrupt. */
 138:Generated_Source\PSoC4/A_Interrupt.c ****     A_Interrupt_Disable();
 139:Generated_Source\PSoC4/A_Interrupt.c **** 
 140:Generated_Source\PSoC4/A_Interrupt.c ****     /* Set the ISR to point to the passive one. */
 141:Generated_Source\PSoC4/A_Interrupt.c ****     A_Interrupt_SetVector(&IntDefaultHandler);
 142:Generated_Source\PSoC4/A_Interrupt.c **** }
 143:Generated_Source\PSoC4/A_Interrupt.c **** 
 144:Generated_Source\PSoC4/A_Interrupt.c **** 
ARM GAS  C:\Users\quint\AppData\Local\Temp\ccEa6Uwb.s 			page 4


 145:Generated_Source\PSoC4/A_Interrupt.c **** /*******************************************************************************
 146:Generated_Source\PSoC4/A_Interrupt.c **** * Function Name: A_Interrupt_Interrupt
 147:Generated_Source\PSoC4/A_Interrupt.c **** ********************************************************************************
 148:Generated_Source\PSoC4/A_Interrupt.c **** *
 149:Generated_Source\PSoC4/A_Interrupt.c **** * Summary:
 150:Generated_Source\PSoC4/A_Interrupt.c **** *   The default Interrupt Service Routine for A_Interrupt.
 151:Generated_Source\PSoC4/A_Interrupt.c **** *
 152:Generated_Source\PSoC4/A_Interrupt.c **** *   Add custom code between the START and END comments to keep the next version
 153:Generated_Source\PSoC4/A_Interrupt.c **** *   of this file from over-writing your code.
 154:Generated_Source\PSoC4/A_Interrupt.c **** *
 155:Generated_Source\PSoC4/A_Interrupt.c **** *   Note You may use either the default ISR by using this API, or you may define
 156:Generated_Source\PSoC4/A_Interrupt.c **** *   your own separate ISR through ISR_StartEx().
 157:Generated_Source\PSoC4/A_Interrupt.c **** *
 158:Generated_Source\PSoC4/A_Interrupt.c **** * Parameters:  
 159:Generated_Source\PSoC4/A_Interrupt.c **** *   None
 160:Generated_Source\PSoC4/A_Interrupt.c **** *
 161:Generated_Source\PSoC4/A_Interrupt.c **** * Return:
 162:Generated_Source\PSoC4/A_Interrupt.c **** *   None
 163:Generated_Source\PSoC4/A_Interrupt.c **** *
 164:Generated_Source\PSoC4/A_Interrupt.c **** *******************************************************************************/
 165:Generated_Source\PSoC4/A_Interrupt.c **** CY_ISR(A_Interrupt_Interrupt)
 166:Generated_Source\PSoC4/A_Interrupt.c **** {
 167:Generated_Source\PSoC4/A_Interrupt.c ****     #ifdef A_Interrupt_INTERRUPT_INTERRUPT_CALLBACK
 168:Generated_Source\PSoC4/A_Interrupt.c ****         A_Interrupt_Interrupt_InterruptCallback();
 169:Generated_Source\PSoC4/A_Interrupt.c ****     #endif /* A_Interrupt_INTERRUPT_INTERRUPT_CALLBACK */ 
 170:Generated_Source\PSoC4/A_Interrupt.c **** 
 171:Generated_Source\PSoC4/A_Interrupt.c ****     /*  Place your Interrupt code here. */
 172:Generated_Source\PSoC4/A_Interrupt.c ****     /* `#START A_Interrupt_Interrupt` */
 173:Generated_Source\PSoC4/A_Interrupt.c ****     
 174:Generated_Source\PSoC4/A_Interrupt.c ****     while (A_Button_Read() == !PUSHED);
 175:Generated_Source\PSoC4/A_Interrupt.c ****             
 176:Generated_Source\PSoC4/A_Interrupt.c ****             count++;
 177:Generated_Source\PSoC4/A_Interrupt.c ****             sprintf(mystring, "%5d", count);
 178:Generated_Source\PSoC4/A_Interrupt.c ****             GLCD_PrintString(mystring, 10, 10, GLCD_WHITE, GLCD_BLACK);
 179:Generated_Source\PSoC4/A_Interrupt.c ****             //CyDelay(25);
 180:Generated_Source\PSoC4/A_Interrupt.c **** 	
 181:Generated_Source\PSoC4/A_Interrupt.c ****             while (A_Button_Read() == PUSHED);
 182:Generated_Source\PSoC4/A_Interrupt.c ****             CyDelay(25);
 183:Generated_Source\PSoC4/A_Interrupt.c ****             A_Interrupt_ClearPending(); 
 184:Generated_Source\PSoC4/A_Interrupt.c ****     
 185:Generated_Source\PSoC4/A_Interrupt.c **** 
 186:Generated_Source\PSoC4/A_Interrupt.c ****     /* `#END` */
 187:Generated_Source\PSoC4/A_Interrupt.c **** }
 188:Generated_Source\PSoC4/A_Interrupt.c **** 
 189:Generated_Source\PSoC4/A_Interrupt.c **** 
 190:Generated_Source\PSoC4/A_Interrupt.c **** /*******************************************************************************
 191:Generated_Source\PSoC4/A_Interrupt.c **** * Function Name: A_Interrupt_SetVector
 192:Generated_Source\PSoC4/A_Interrupt.c **** ********************************************************************************
 193:Generated_Source\PSoC4/A_Interrupt.c **** *
 194:Generated_Source\PSoC4/A_Interrupt.c **** * Summary:
 195:Generated_Source\PSoC4/A_Interrupt.c **** *   Change the ISR vector for the Interrupt. Note calling A_Interrupt_Start
 196:Generated_Source\PSoC4/A_Interrupt.c **** *   will override any effect this method would have had. To set the vector 
 197:Generated_Source\PSoC4/A_Interrupt.c **** *   before the component has been started use A_Interrupt_StartEx instead.
 198:Generated_Source\PSoC4/A_Interrupt.c **** * 
 199:Generated_Source\PSoC4/A_Interrupt.c **** *   When defining ISR functions, the CY_ISR and CY_ISR_PROTO macros should be 
 200:Generated_Source\PSoC4/A_Interrupt.c **** *   used to provide consistent definition across compilers:
 201:Generated_Source\PSoC4/A_Interrupt.c **** *
ARM GAS  C:\Users\quint\AppData\Local\Temp\ccEa6Uwb.s 			page 5


 202:Generated_Source\PSoC4/A_Interrupt.c **** *   Function definition example:
 203:Generated_Source\PSoC4/A_Interrupt.c **** *   CY_ISR(MyISR)
 204:Generated_Source\PSoC4/A_Interrupt.c **** *   {
 205:Generated_Source\PSoC4/A_Interrupt.c **** *   }
 206:Generated_Source\PSoC4/A_Interrupt.c **** *
 207:Generated_Source\PSoC4/A_Interrupt.c **** *   Function prototype example:
 208:Generated_Source\PSoC4/A_Interrupt.c **** *     CY_ISR_PROTO(MyISR);
 209:Generated_Source\PSoC4/A_Interrupt.c **** *
 210:Generated_Source\PSoC4/A_Interrupt.c **** * Parameters:
 211:Generated_Source\PSoC4/A_Interrupt.c **** *   address: Address of the ISR to set in the interrupt vector table.
 212:Generated_Source\PSoC4/A_Interrupt.c **** *
 213:Generated_Source\PSoC4/A_Interrupt.c **** * Return:
 214:Generated_Source\PSoC4/A_Interrupt.c **** *   None
 215:Generated_Source\PSoC4/A_Interrupt.c **** *
 216:Generated_Source\PSoC4/A_Interrupt.c **** *******************************************************************************/
 217:Generated_Source\PSoC4/A_Interrupt.c **** void A_Interrupt_SetVector(cyisraddress address)
 218:Generated_Source\PSoC4/A_Interrupt.c **** {
  28              		.loc 1 218 0
  29              		.cfi_startproc
  30              		@ args = 0, pretend = 0, frame = 0
  31              		@ frame_needed = 0, uses_anonymous_args = 0
  32              		@ link register save eliminated.
  33              	.LVL0:
 219:Generated_Source\PSoC4/A_Interrupt.c ****     CyRamVectors[CYINT_IRQ_BASE + A_Interrupt__INTC_NUMBER] = address;
  34              		.loc 1 219 0
  35 0000 014B     		ldr	r3, .L2
  36 0002 1864     		str	r0, [r3, #64]
 220:Generated_Source\PSoC4/A_Interrupt.c **** }
  37              		.loc 1 220 0
  38              		@ sp needed
  39 0004 7047     		bx	lr
  40              	.L3:
  41 0006 C046     		.align	2
  42              	.L2:
  43 0008 00000000 		.word	CyRamVectors
  44              		.cfi_endproc
  45              	.LFE37:
  46              		.size	A_Interrupt_SetVector, .-A_Interrupt_SetVector
  47              		.section	.text.A_Interrupt_GetVector,"ax",%progbits
  48              		.align	2
  49              		.global	A_Interrupt_GetVector
  50              		.code	16
  51              		.thumb_func
  52              		.type	A_Interrupt_GetVector, %function
  53              	A_Interrupt_GetVector:
  54              	.LFB38:
 221:Generated_Source\PSoC4/A_Interrupt.c **** 
 222:Generated_Source\PSoC4/A_Interrupt.c **** 
 223:Generated_Source\PSoC4/A_Interrupt.c **** /*******************************************************************************
 224:Generated_Source\PSoC4/A_Interrupt.c **** * Function Name: A_Interrupt_GetVector
 225:Generated_Source\PSoC4/A_Interrupt.c **** ********************************************************************************
 226:Generated_Source\PSoC4/A_Interrupt.c **** *
 227:Generated_Source\PSoC4/A_Interrupt.c **** * Summary:
 228:Generated_Source\PSoC4/A_Interrupt.c **** *   Gets the "address" of the current ISR vector for the Interrupt.
 229:Generated_Source\PSoC4/A_Interrupt.c **** *
 230:Generated_Source\PSoC4/A_Interrupt.c **** * Parameters:
 231:Generated_Source\PSoC4/A_Interrupt.c **** *   None
ARM GAS  C:\Users\quint\AppData\Local\Temp\ccEa6Uwb.s 			page 6


 232:Generated_Source\PSoC4/A_Interrupt.c **** *
 233:Generated_Source\PSoC4/A_Interrupt.c **** * Return:
 234:Generated_Source\PSoC4/A_Interrupt.c **** *   Address of the ISR in the interrupt vector table.
 235:Generated_Source\PSoC4/A_Interrupt.c **** *
 236:Generated_Source\PSoC4/A_Interrupt.c **** *******************************************************************************/
 237:Generated_Source\PSoC4/A_Interrupt.c **** cyisraddress A_Interrupt_GetVector(void)
 238:Generated_Source\PSoC4/A_Interrupt.c **** {
  55              		.loc 1 238 0
  56              		.cfi_startproc
  57              		@ args = 0, pretend = 0, frame = 0
  58              		@ frame_needed = 0, uses_anonymous_args = 0
  59              		@ link register save eliminated.
 239:Generated_Source\PSoC4/A_Interrupt.c ****     return CyRamVectors[CYINT_IRQ_BASE + A_Interrupt__INTC_NUMBER];
  60              		.loc 1 239 0
  61 0000 014B     		ldr	r3, .L5
  62 0002 186C     		ldr	r0, [r3, #64]
 240:Generated_Source\PSoC4/A_Interrupt.c **** }
  63              		.loc 1 240 0
  64              		@ sp needed
  65 0004 7047     		bx	lr
  66              	.L6:
  67 0006 C046     		.align	2
  68              	.L5:
  69 0008 00000000 		.word	CyRamVectors
  70              		.cfi_endproc
  71              	.LFE38:
  72              		.size	A_Interrupt_GetVector, .-A_Interrupt_GetVector
  73              		.section	.text.A_Interrupt_SetPriority,"ax",%progbits
  74              		.align	2
  75              		.global	A_Interrupt_SetPriority
  76              		.code	16
  77              		.thumb_func
  78              		.type	A_Interrupt_SetPriority, %function
  79              	A_Interrupt_SetPriority:
  80              	.LFB39:
 241:Generated_Source\PSoC4/A_Interrupt.c **** 
 242:Generated_Source\PSoC4/A_Interrupt.c **** 
 243:Generated_Source\PSoC4/A_Interrupt.c **** /*******************************************************************************
 244:Generated_Source\PSoC4/A_Interrupt.c **** * Function Name: A_Interrupt_SetPriority
 245:Generated_Source\PSoC4/A_Interrupt.c **** ********************************************************************************
 246:Generated_Source\PSoC4/A_Interrupt.c **** *
 247:Generated_Source\PSoC4/A_Interrupt.c **** * Summary:
 248:Generated_Source\PSoC4/A_Interrupt.c **** *   Sets the Priority of the Interrupt. 
 249:Generated_Source\PSoC4/A_Interrupt.c **** *
 250:Generated_Source\PSoC4/A_Interrupt.c **** *   Note calling A_Interrupt_Start or A_Interrupt_StartEx will 
 251:Generated_Source\PSoC4/A_Interrupt.c **** *   override any effect this API would have had. This API should only be called
 252:Generated_Source\PSoC4/A_Interrupt.c **** *   after A_Interrupt_Start or A_Interrupt_StartEx has been called. 
 253:Generated_Source\PSoC4/A_Interrupt.c **** *   To set the initial priority for the component, use the Design-Wide Resources
 254:Generated_Source\PSoC4/A_Interrupt.c **** *   Interrupt Editor.
 255:Generated_Source\PSoC4/A_Interrupt.c **** *
 256:Generated_Source\PSoC4/A_Interrupt.c **** *   Note This API has no effect on Non-maskable interrupt NMI).
 257:Generated_Source\PSoC4/A_Interrupt.c **** *
 258:Generated_Source\PSoC4/A_Interrupt.c **** * Parameters:
 259:Generated_Source\PSoC4/A_Interrupt.c **** *   priority: Priority of the interrupt, 0 being the highest priority
 260:Generated_Source\PSoC4/A_Interrupt.c **** *             PSoC 3 and PSoC 5LP: Priority is from 0 to 7.
 261:Generated_Source\PSoC4/A_Interrupt.c **** *             PSoC 4: Priority is from 0 to 3.
 262:Generated_Source\PSoC4/A_Interrupt.c **** *
ARM GAS  C:\Users\quint\AppData\Local\Temp\ccEa6Uwb.s 			page 7


 263:Generated_Source\PSoC4/A_Interrupt.c **** * Return:
 264:Generated_Source\PSoC4/A_Interrupt.c **** *   None
 265:Generated_Source\PSoC4/A_Interrupt.c **** *
 266:Generated_Source\PSoC4/A_Interrupt.c **** *******************************************************************************/
 267:Generated_Source\PSoC4/A_Interrupt.c **** void A_Interrupt_SetPriority(uint8 priority)
 268:Generated_Source\PSoC4/A_Interrupt.c **** {
  81              		.loc 1 268 0
  82              		.cfi_startproc
  83              		@ args = 0, pretend = 0, frame = 0
  84              		@ frame_needed = 0, uses_anonymous_args = 0
  85              	.LVL1:
  86 0000 10B5     		push	{r4, lr}
  87              		.cfi_def_cfa_offset 8
  88              		.cfi_offset 4, -8
  89              		.cfi_offset 14, -4
  90 0002 0400     		movs	r4, r0
  91              	.LVL2:
 269:Generated_Source\PSoC4/A_Interrupt.c **** 	uint8 interruptState;
 270:Generated_Source\PSoC4/A_Interrupt.c ****     uint32 priorityOffset = ((A_Interrupt__INTC_NUMBER % 4u) * 8u) + 6u;
 271:Generated_Source\PSoC4/A_Interrupt.c ****     
 272:Generated_Source\PSoC4/A_Interrupt.c **** 	interruptState = CyEnterCriticalSection();
  92              		.loc 1 272 0
  93 0004 FFF7FEFF 		bl	CyEnterCriticalSection
  94              	.LVL3:
 273:Generated_Source\PSoC4/A_Interrupt.c ****     *A_Interrupt_INTC_PRIOR = (*A_Interrupt_INTC_PRIOR & (uint32)(~A_Interrupt__INTC_PRIOR_MASK)) |
  95              		.loc 1 273 0
  96 0008 044A     		ldr	r2, .L8
  97 000a 1368     		ldr	r3, [r2]
  98 000c C021     		movs	r1, #192
  99 000e 8B43     		bics	r3, r1
 274:Generated_Source\PSoC4/A_Interrupt.c ****                                     ((uint32)priority << priorityOffset);
 100              		.loc 1 274 0
 101 0010 A401     		lsls	r4, r4, #6
 273:Generated_Source\PSoC4/A_Interrupt.c ****     *A_Interrupt_INTC_PRIOR = (*A_Interrupt_INTC_PRIOR & (uint32)(~A_Interrupt__INTC_PRIOR_MASK)) |
 102              		.loc 1 273 0
 103 0012 1C43     		orrs	r4, r3
 104 0014 1460     		str	r4, [r2]
 275:Generated_Source\PSoC4/A_Interrupt.c **** 	CyExitCriticalSection(interruptState);
 105              		.loc 1 275 0
 106 0016 FFF7FEFF 		bl	CyExitCriticalSection
 107              	.LVL4:
 276:Generated_Source\PSoC4/A_Interrupt.c **** }
 108              		.loc 1 276 0
 109              		@ sp needed
 110 001a 10BD     		pop	{r4, pc}
 111              	.L9:
 112              		.align	2
 113              	.L8:
 114 001c 00E400E0 		.word	-536812544
 115              		.cfi_endproc
 116              	.LFE39:
 117              		.size	A_Interrupt_SetPriority, .-A_Interrupt_SetPriority
 118              		.section	.text.A_Interrupt_GetPriority,"ax",%progbits
 119              		.align	2
 120              		.global	A_Interrupt_GetPriority
 121              		.code	16
 122              		.thumb_func
ARM GAS  C:\Users\quint\AppData\Local\Temp\ccEa6Uwb.s 			page 8


 123              		.type	A_Interrupt_GetPriority, %function
 124              	A_Interrupt_GetPriority:
 125              	.LFB40:
 277:Generated_Source\PSoC4/A_Interrupt.c **** 
 278:Generated_Source\PSoC4/A_Interrupt.c **** 
 279:Generated_Source\PSoC4/A_Interrupt.c **** /*******************************************************************************
 280:Generated_Source\PSoC4/A_Interrupt.c **** * Function Name: A_Interrupt_GetPriority
 281:Generated_Source\PSoC4/A_Interrupt.c **** ********************************************************************************
 282:Generated_Source\PSoC4/A_Interrupt.c **** *
 283:Generated_Source\PSoC4/A_Interrupt.c **** * Summary:
 284:Generated_Source\PSoC4/A_Interrupt.c **** *   Gets the Priority of the Interrupt.
 285:Generated_Source\PSoC4/A_Interrupt.c **** *
 286:Generated_Source\PSoC4/A_Interrupt.c **** * Parameters:
 287:Generated_Source\PSoC4/A_Interrupt.c **** *   None
 288:Generated_Source\PSoC4/A_Interrupt.c **** *
 289:Generated_Source\PSoC4/A_Interrupt.c **** * Return:
 290:Generated_Source\PSoC4/A_Interrupt.c **** *   Priority of the interrupt, 0 being the highest priority
 291:Generated_Source\PSoC4/A_Interrupt.c **** *    PSoC 3 and PSoC 5LP: Priority is from 0 to 7.
 292:Generated_Source\PSoC4/A_Interrupt.c **** *    PSoC 4: Priority is from 0 to 3.
 293:Generated_Source\PSoC4/A_Interrupt.c **** *
 294:Generated_Source\PSoC4/A_Interrupt.c **** *******************************************************************************/
 295:Generated_Source\PSoC4/A_Interrupt.c **** uint8 A_Interrupt_GetPriority(void)
 296:Generated_Source\PSoC4/A_Interrupt.c **** {
 126              		.loc 1 296 0
 127              		.cfi_startproc
 128              		@ args = 0, pretend = 0, frame = 0
 129              		@ frame_needed = 0, uses_anonymous_args = 0
 130              		@ link register save eliminated.
 131              	.LVL5:
 297:Generated_Source\PSoC4/A_Interrupt.c ****     uint32 priority;
 298:Generated_Source\PSoC4/A_Interrupt.c **** 	uint32 priorityOffset = ((A_Interrupt__INTC_NUMBER % 4u) * 8u) + 6u;
 299:Generated_Source\PSoC4/A_Interrupt.c **** 
 300:Generated_Source\PSoC4/A_Interrupt.c ****     priority = (*A_Interrupt_INTC_PRIOR & A_Interrupt__INTC_PRIOR_MASK) >> priorityOffset;
 132              		.loc 1 300 0
 133 0000 024B     		ldr	r3, .L11
 134 0002 1868     		ldr	r0, [r3]
 135 0004 8009     		lsrs	r0, r0, #6
 136              	.LVL6:
 301:Generated_Source\PSoC4/A_Interrupt.c **** 
 302:Generated_Source\PSoC4/A_Interrupt.c ****     return (uint8)priority;
 137              		.loc 1 302 0
 138 0006 0323     		movs	r3, #3
 139 0008 1840     		ands	r0, r3
 140              	.LVL7:
 303:Generated_Source\PSoC4/A_Interrupt.c **** }
 141              		.loc 1 303 0
 142              		@ sp needed
 143 000a 7047     		bx	lr
 144              	.L12:
 145              		.align	2
 146              	.L11:
 147 000c 00E400E0 		.word	-536812544
 148              		.cfi_endproc
 149              	.LFE40:
 150              		.size	A_Interrupt_GetPriority, .-A_Interrupt_GetPriority
 151              		.section	.text.A_Interrupt_Enable,"ax",%progbits
 152              		.align	2
ARM GAS  C:\Users\quint\AppData\Local\Temp\ccEa6Uwb.s 			page 9


 153              		.global	A_Interrupt_Enable
 154              		.code	16
 155              		.thumb_func
 156              		.type	A_Interrupt_Enable, %function
 157              	A_Interrupt_Enable:
 158              	.LFB41:
 304:Generated_Source\PSoC4/A_Interrupt.c **** 
 305:Generated_Source\PSoC4/A_Interrupt.c **** 
 306:Generated_Source\PSoC4/A_Interrupt.c **** /*******************************************************************************
 307:Generated_Source\PSoC4/A_Interrupt.c **** * Function Name: A_Interrupt_Enable
 308:Generated_Source\PSoC4/A_Interrupt.c **** ********************************************************************************
 309:Generated_Source\PSoC4/A_Interrupt.c **** *
 310:Generated_Source\PSoC4/A_Interrupt.c **** * Summary:
 311:Generated_Source\PSoC4/A_Interrupt.c **** *   Enables the interrupt to the interrupt controller. Do not call this function
 312:Generated_Source\PSoC4/A_Interrupt.c **** *   unless ISR_Start() has been called or the functionality of the ISR_Start() 
 313:Generated_Source\PSoC4/A_Interrupt.c **** *   function, which sets the vector and the priority, has been called.
 314:Generated_Source\PSoC4/A_Interrupt.c **** *
 315:Generated_Source\PSoC4/A_Interrupt.c **** * Parameters:
 316:Generated_Source\PSoC4/A_Interrupt.c **** *   None
 317:Generated_Source\PSoC4/A_Interrupt.c **** *
 318:Generated_Source\PSoC4/A_Interrupt.c **** * Return:
 319:Generated_Source\PSoC4/A_Interrupt.c **** *   None
 320:Generated_Source\PSoC4/A_Interrupt.c **** *
 321:Generated_Source\PSoC4/A_Interrupt.c **** *******************************************************************************/
 322:Generated_Source\PSoC4/A_Interrupt.c **** void A_Interrupt_Enable(void)
 323:Generated_Source\PSoC4/A_Interrupt.c **** {
 159              		.loc 1 323 0
 160              		.cfi_startproc
 161              		@ args = 0, pretend = 0, frame = 0
 162              		@ frame_needed = 0, uses_anonymous_args = 0
 163              		@ link register save eliminated.
 324:Generated_Source\PSoC4/A_Interrupt.c ****     /* Enable the general interrupt. */
 325:Generated_Source\PSoC4/A_Interrupt.c ****     *A_Interrupt_INTC_SET_EN = A_Interrupt__INTC_MASK;
 164              		.loc 1 325 0
 165 0000 0122     		movs	r2, #1
 166 0002 014B     		ldr	r3, .L14
 167 0004 1A60     		str	r2, [r3]
 326:Generated_Source\PSoC4/A_Interrupt.c **** }
 168              		.loc 1 326 0
 169              		@ sp needed
 170 0006 7047     		bx	lr
 171              	.L15:
 172              		.align	2
 173              	.L14:
 174 0008 00E100E0 		.word	-536813312
 175              		.cfi_endproc
 176              	.LFE41:
 177              		.size	A_Interrupt_Enable, .-A_Interrupt_Enable
 178              		.section	.text.A_Interrupt_GetState,"ax",%progbits
 179              		.align	2
 180              		.global	A_Interrupt_GetState
 181              		.code	16
 182              		.thumb_func
 183              		.type	A_Interrupt_GetState, %function
 184              	A_Interrupt_GetState:
 185              	.LFB42:
 327:Generated_Source\PSoC4/A_Interrupt.c **** 
ARM GAS  C:\Users\quint\AppData\Local\Temp\ccEa6Uwb.s 			page 10


 328:Generated_Source\PSoC4/A_Interrupt.c **** 
 329:Generated_Source\PSoC4/A_Interrupt.c **** /*******************************************************************************
 330:Generated_Source\PSoC4/A_Interrupt.c **** * Function Name: A_Interrupt_GetState
 331:Generated_Source\PSoC4/A_Interrupt.c **** ********************************************************************************
 332:Generated_Source\PSoC4/A_Interrupt.c **** *
 333:Generated_Source\PSoC4/A_Interrupt.c **** * Summary:
 334:Generated_Source\PSoC4/A_Interrupt.c **** *   Gets the state (enabled, disabled) of the Interrupt.
 335:Generated_Source\PSoC4/A_Interrupt.c **** *
 336:Generated_Source\PSoC4/A_Interrupt.c **** * Parameters:
 337:Generated_Source\PSoC4/A_Interrupt.c **** *   None
 338:Generated_Source\PSoC4/A_Interrupt.c **** *
 339:Generated_Source\PSoC4/A_Interrupt.c **** * Return:
 340:Generated_Source\PSoC4/A_Interrupt.c **** *   1 if enabled, 0 if disabled.
 341:Generated_Source\PSoC4/A_Interrupt.c **** *
 342:Generated_Source\PSoC4/A_Interrupt.c **** *******************************************************************************/
 343:Generated_Source\PSoC4/A_Interrupt.c **** uint8 A_Interrupt_GetState(void)
 344:Generated_Source\PSoC4/A_Interrupt.c **** {
 186              		.loc 1 344 0
 187              		.cfi_startproc
 188              		@ args = 0, pretend = 0, frame = 0
 189              		@ frame_needed = 0, uses_anonymous_args = 0
 190              		@ link register save eliminated.
 345:Generated_Source\PSoC4/A_Interrupt.c ****     /* Get the state of the general interrupt. */
 346:Generated_Source\PSoC4/A_Interrupt.c ****     return ((*A_Interrupt_INTC_SET_EN & (uint32)A_Interrupt__INTC_MASK) != 0u) ? 1u:0u;
 191              		.loc 1 346 0
 192 0000 024B     		ldr	r3, .L17
 193 0002 1B68     		ldr	r3, [r3]
 194 0004 0120     		movs	r0, #1
 195 0006 1840     		ands	r0, r3
 347:Generated_Source\PSoC4/A_Interrupt.c **** }
 196              		.loc 1 347 0
 197              		@ sp needed
 198 0008 7047     		bx	lr
 199              	.L18:
 200 000a C046     		.align	2
 201              	.L17:
 202 000c 00E100E0 		.word	-536813312
 203              		.cfi_endproc
 204              	.LFE42:
 205              		.size	A_Interrupt_GetState, .-A_Interrupt_GetState
 206              		.section	.text.A_Interrupt_Disable,"ax",%progbits
 207              		.align	2
 208              		.global	A_Interrupt_Disable
 209              		.code	16
 210              		.thumb_func
 211              		.type	A_Interrupt_Disable, %function
 212              	A_Interrupt_Disable:
 213              	.LFB43:
 348:Generated_Source\PSoC4/A_Interrupt.c **** 
 349:Generated_Source\PSoC4/A_Interrupt.c **** 
 350:Generated_Source\PSoC4/A_Interrupt.c **** /*******************************************************************************
 351:Generated_Source\PSoC4/A_Interrupt.c **** * Function Name: A_Interrupt_Disable
 352:Generated_Source\PSoC4/A_Interrupt.c **** ********************************************************************************
 353:Generated_Source\PSoC4/A_Interrupt.c **** *
 354:Generated_Source\PSoC4/A_Interrupt.c **** * Summary:
 355:Generated_Source\PSoC4/A_Interrupt.c **** *   Disables the Interrupt in the interrupt controller.
 356:Generated_Source\PSoC4/A_Interrupt.c **** *
ARM GAS  C:\Users\quint\AppData\Local\Temp\ccEa6Uwb.s 			page 11


 357:Generated_Source\PSoC4/A_Interrupt.c **** * Parameters:
 358:Generated_Source\PSoC4/A_Interrupt.c **** *   None
 359:Generated_Source\PSoC4/A_Interrupt.c **** *
 360:Generated_Source\PSoC4/A_Interrupt.c **** * Return:
 361:Generated_Source\PSoC4/A_Interrupt.c **** *   None
 362:Generated_Source\PSoC4/A_Interrupt.c **** *
 363:Generated_Source\PSoC4/A_Interrupt.c **** *******************************************************************************/
 364:Generated_Source\PSoC4/A_Interrupt.c **** void A_Interrupt_Disable(void)
 365:Generated_Source\PSoC4/A_Interrupt.c **** {
 214              		.loc 1 365 0
 215              		.cfi_startproc
 216              		@ args = 0, pretend = 0, frame = 0
 217              		@ frame_needed = 0, uses_anonymous_args = 0
 218              		@ link register save eliminated.
 366:Generated_Source\PSoC4/A_Interrupt.c ****     /* Disable the general interrupt. */
 367:Generated_Source\PSoC4/A_Interrupt.c ****     *A_Interrupt_INTC_CLR_EN = A_Interrupt__INTC_MASK;
 219              		.loc 1 367 0
 220 0000 0122     		movs	r2, #1
 221 0002 014B     		ldr	r3, .L20
 222 0004 1A60     		str	r2, [r3]
 368:Generated_Source\PSoC4/A_Interrupt.c **** }
 223              		.loc 1 368 0
 224              		@ sp needed
 225 0006 7047     		bx	lr
 226              	.L21:
 227              		.align	2
 228              	.L20:
 229 0008 80E100E0 		.word	-536813184
 230              		.cfi_endproc
 231              	.LFE43:
 232              		.size	A_Interrupt_Disable, .-A_Interrupt_Disable
 233              		.section	.text.A_Interrupt_Start,"ax",%progbits
 234              		.align	2
 235              		.global	A_Interrupt_Start
 236              		.code	16
 237              		.thumb_func
 238              		.type	A_Interrupt_Start, %function
 239              	A_Interrupt_Start:
 240              	.LFB33:
  63:Generated_Source\PSoC4/A_Interrupt.c ****     /* For all we know the interrupt is active. */
 241              		.loc 1 63 0
 242              		.cfi_startproc
 243              		@ args = 0, pretend = 0, frame = 0
 244              		@ frame_needed = 0, uses_anonymous_args = 0
 245 0000 10B5     		push	{r4, lr}
 246              		.cfi_def_cfa_offset 8
 247              		.cfi_offset 4, -8
 248              		.cfi_offset 14, -4
  65:Generated_Source\PSoC4/A_Interrupt.c **** 
 249              		.loc 1 65 0
 250 0002 FFF7FEFF 		bl	A_Interrupt_Disable
 251              	.LVL8:
  68:Generated_Source\PSoC4/A_Interrupt.c **** 
 252              		.loc 1 68 0
 253 0006 0448     		ldr	r0, .L23
 254 0008 FFF7FEFF 		bl	A_Interrupt_SetVector
 255              	.LVL9:
ARM GAS  C:\Users\quint\AppData\Local\Temp\ccEa6Uwb.s 			page 12


  71:Generated_Source\PSoC4/A_Interrupt.c **** 
 256              		.loc 1 71 0
 257 000c 0320     		movs	r0, #3
 258 000e FFF7FEFF 		bl	A_Interrupt_SetPriority
 259              	.LVL10:
  74:Generated_Source\PSoC4/A_Interrupt.c **** }
 260              		.loc 1 74 0
 261 0012 FFF7FEFF 		bl	A_Interrupt_Enable
 262              	.LVL11:
  75:Generated_Source\PSoC4/A_Interrupt.c **** 
 263              		.loc 1 75 0
 264              		@ sp needed
 265 0016 10BD     		pop	{r4, pc}
 266              	.L24:
 267              		.align	2
 268              	.L23:
 269 0018 00000000 		.word	A_Interrupt_Interrupt
 270              		.cfi_endproc
 271              	.LFE33:
 272              		.size	A_Interrupt_Start, .-A_Interrupt_Start
 273              		.section	.text.A_Interrupt_StartEx,"ax",%progbits
 274              		.align	2
 275              		.global	A_Interrupt_StartEx
 276              		.code	16
 277              		.thumb_func
 278              		.type	A_Interrupt_StartEx, %function
 279              	A_Interrupt_StartEx:
 280              	.LFB34:
 106:Generated_Source\PSoC4/A_Interrupt.c ****     /* For all we know the interrupt is active. */
 281              		.loc 1 106 0
 282              		.cfi_startproc
 283              		@ args = 0, pretend = 0, frame = 0
 284              		@ frame_needed = 0, uses_anonymous_args = 0
 285              	.LVL12:
 286 0000 10B5     		push	{r4, lr}
 287              		.cfi_def_cfa_offset 8
 288              		.cfi_offset 4, -8
 289              		.cfi_offset 14, -4
 290 0002 0400     		movs	r4, r0
 108:Generated_Source\PSoC4/A_Interrupt.c **** 
 291              		.loc 1 108 0
 292 0004 FFF7FEFF 		bl	A_Interrupt_Disable
 293              	.LVL13:
 111:Generated_Source\PSoC4/A_Interrupt.c **** 
 294              		.loc 1 111 0
 295 0008 2000     		movs	r0, r4
 296 000a FFF7FEFF 		bl	A_Interrupt_SetVector
 297              	.LVL14:
 114:Generated_Source\PSoC4/A_Interrupt.c **** 
 298              		.loc 1 114 0
 299 000e 0320     		movs	r0, #3
 300 0010 FFF7FEFF 		bl	A_Interrupt_SetPriority
 301              	.LVL15:
 117:Generated_Source\PSoC4/A_Interrupt.c **** }
 302              		.loc 1 117 0
 303 0014 FFF7FEFF 		bl	A_Interrupt_Enable
 304              	.LVL16:
ARM GAS  C:\Users\quint\AppData\Local\Temp\ccEa6Uwb.s 			page 13


 118:Generated_Source\PSoC4/A_Interrupt.c **** 
 305              		.loc 1 118 0
 306              		@ sp needed
 307              	.LVL17:
 308 0018 10BD     		pop	{r4, pc}
 309              		.cfi_endproc
 310              	.LFE34:
 311              		.size	A_Interrupt_StartEx, .-A_Interrupt_StartEx
 312 001a C046     		.section	.text.A_Interrupt_Stop,"ax",%progbits
 313              		.align	2
 314              		.global	A_Interrupt_Stop
 315              		.code	16
 316              		.thumb_func
 317              		.type	A_Interrupt_Stop, %function
 318              	A_Interrupt_Stop:
 319              	.LFB35:
 136:Generated_Source\PSoC4/A_Interrupt.c ****     /* Disable this interrupt. */
 320              		.loc 1 136 0
 321              		.cfi_startproc
 322              		@ args = 0, pretend = 0, frame = 0
 323              		@ frame_needed = 0, uses_anonymous_args = 0
 324 0000 10B5     		push	{r4, lr}
 325              		.cfi_def_cfa_offset 8
 326              		.cfi_offset 4, -8
 327              		.cfi_offset 14, -4
 138:Generated_Source\PSoC4/A_Interrupt.c **** 
 328              		.loc 1 138 0
 329 0002 FFF7FEFF 		bl	A_Interrupt_Disable
 330              	.LVL18:
 141:Generated_Source\PSoC4/A_Interrupt.c **** }
 331              		.loc 1 141 0
 332 0006 0248     		ldr	r0, .L27
 333 0008 FFF7FEFF 		bl	A_Interrupt_SetVector
 334              	.LVL19:
 142:Generated_Source\PSoC4/A_Interrupt.c **** 
 335              		.loc 1 142 0
 336              		@ sp needed
 337 000c 10BD     		pop	{r4, pc}
 338              	.L28:
 339 000e C046     		.align	2
 340              	.L27:
 341 0010 00000000 		.word	IntDefaultHandler
 342              		.cfi_endproc
 343              	.LFE35:
 344              		.size	A_Interrupt_Stop, .-A_Interrupt_Stop
 345              		.section	.text.A_Interrupt_SetPending,"ax",%progbits
 346              		.align	2
 347              		.global	A_Interrupt_SetPending
 348              		.code	16
 349              		.thumb_func
 350              		.type	A_Interrupt_SetPending, %function
 351              	A_Interrupt_SetPending:
 352              	.LFB44:
 369:Generated_Source\PSoC4/A_Interrupt.c **** 
 370:Generated_Source\PSoC4/A_Interrupt.c **** 
 371:Generated_Source\PSoC4/A_Interrupt.c **** /*******************************************************************************
 372:Generated_Source\PSoC4/A_Interrupt.c **** * Function Name: A_Interrupt_SetPending
ARM GAS  C:\Users\quint\AppData\Local\Temp\ccEa6Uwb.s 			page 14


 373:Generated_Source\PSoC4/A_Interrupt.c **** ********************************************************************************
 374:Generated_Source\PSoC4/A_Interrupt.c **** *
 375:Generated_Source\PSoC4/A_Interrupt.c **** * Summary:
 376:Generated_Source\PSoC4/A_Interrupt.c **** *   Causes the Interrupt to enter the pending state, a software method of
 377:Generated_Source\PSoC4/A_Interrupt.c **** *   generating the interrupt.
 378:Generated_Source\PSoC4/A_Interrupt.c **** *
 379:Generated_Source\PSoC4/A_Interrupt.c **** * Parameters:
 380:Generated_Source\PSoC4/A_Interrupt.c **** *   None
 381:Generated_Source\PSoC4/A_Interrupt.c **** *
 382:Generated_Source\PSoC4/A_Interrupt.c **** * Return:
 383:Generated_Source\PSoC4/A_Interrupt.c **** *   None
 384:Generated_Source\PSoC4/A_Interrupt.c **** *
 385:Generated_Source\PSoC4/A_Interrupt.c **** * Side Effects:
 386:Generated_Source\PSoC4/A_Interrupt.c **** *   If interrupts are enabled and the interrupt is set up properly, the ISR is
 387:Generated_Source\PSoC4/A_Interrupt.c **** *   entered (depending on the priority of this interrupt and other pending 
 388:Generated_Source\PSoC4/A_Interrupt.c **** *   interrupts).
 389:Generated_Source\PSoC4/A_Interrupt.c **** *
 390:Generated_Source\PSoC4/A_Interrupt.c **** *******************************************************************************/
 391:Generated_Source\PSoC4/A_Interrupt.c **** void A_Interrupt_SetPending(void)
 392:Generated_Source\PSoC4/A_Interrupt.c **** {
 353              		.loc 1 392 0
 354              		.cfi_startproc
 355              		@ args = 0, pretend = 0, frame = 0
 356              		@ frame_needed = 0, uses_anonymous_args = 0
 357              		@ link register save eliminated.
 393:Generated_Source\PSoC4/A_Interrupt.c ****     *A_Interrupt_INTC_SET_PD = A_Interrupt__INTC_MASK;
 358              		.loc 1 393 0
 359 0000 0122     		movs	r2, #1
 360 0002 014B     		ldr	r3, .L30
 361 0004 1A60     		str	r2, [r3]
 394:Generated_Source\PSoC4/A_Interrupt.c **** }
 362              		.loc 1 394 0
 363              		@ sp needed
 364 0006 7047     		bx	lr
 365              	.L31:
 366              		.align	2
 367              	.L30:
 368 0008 00E200E0 		.word	-536813056
 369              		.cfi_endproc
 370              	.LFE44:
 371              		.size	A_Interrupt_SetPending, .-A_Interrupt_SetPending
 372              		.section	.text.A_Interrupt_ClearPending,"ax",%progbits
 373              		.align	2
 374              		.global	A_Interrupt_ClearPending
 375              		.code	16
 376              		.thumb_func
 377              		.type	A_Interrupt_ClearPending, %function
 378              	A_Interrupt_ClearPending:
 379              	.LFB45:
 395:Generated_Source\PSoC4/A_Interrupt.c **** 
 396:Generated_Source\PSoC4/A_Interrupt.c **** 
 397:Generated_Source\PSoC4/A_Interrupt.c **** /*******************************************************************************
 398:Generated_Source\PSoC4/A_Interrupt.c **** * Function Name: A_Interrupt_ClearPending
 399:Generated_Source\PSoC4/A_Interrupt.c **** ********************************************************************************
 400:Generated_Source\PSoC4/A_Interrupt.c **** *
 401:Generated_Source\PSoC4/A_Interrupt.c **** * Summary:
 402:Generated_Source\PSoC4/A_Interrupt.c **** *   Clears a pending interrupt in the interrupt controller.
ARM GAS  C:\Users\quint\AppData\Local\Temp\ccEa6Uwb.s 			page 15


 403:Generated_Source\PSoC4/A_Interrupt.c **** *
 404:Generated_Source\PSoC4/A_Interrupt.c **** *   Note Some interrupt sources are clear-on-read and require the block 
 405:Generated_Source\PSoC4/A_Interrupt.c **** *   interrupt/status register to be read/cleared with the appropriate block API 
 406:Generated_Source\PSoC4/A_Interrupt.c **** *   (GPIO, UART, and so on). Otherwise the ISR will continue to remain in 
 407:Generated_Source\PSoC4/A_Interrupt.c **** *   pending state even though the interrupt itself is cleared using this API.
 408:Generated_Source\PSoC4/A_Interrupt.c **** *
 409:Generated_Source\PSoC4/A_Interrupt.c **** * Parameters:
 410:Generated_Source\PSoC4/A_Interrupt.c **** *   None
 411:Generated_Source\PSoC4/A_Interrupt.c **** *
 412:Generated_Source\PSoC4/A_Interrupt.c **** * Return:
 413:Generated_Source\PSoC4/A_Interrupt.c **** *   None
 414:Generated_Source\PSoC4/A_Interrupt.c **** *
 415:Generated_Source\PSoC4/A_Interrupt.c **** *******************************************************************************/
 416:Generated_Source\PSoC4/A_Interrupt.c **** void A_Interrupt_ClearPending(void)
 417:Generated_Source\PSoC4/A_Interrupt.c **** {
 380              		.loc 1 417 0
 381              		.cfi_startproc
 382              		@ args = 0, pretend = 0, frame = 0
 383              		@ frame_needed = 0, uses_anonymous_args = 0
 384              		@ link register save eliminated.
 418:Generated_Source\PSoC4/A_Interrupt.c ****     *A_Interrupt_INTC_CLR_PD = A_Interrupt__INTC_MASK;
 385              		.loc 1 418 0
 386 0000 0122     		movs	r2, #1
 387 0002 014B     		ldr	r3, .L33
 388 0004 1A60     		str	r2, [r3]
 419:Generated_Source\PSoC4/A_Interrupt.c **** }
 389              		.loc 1 419 0
 390              		@ sp needed
 391 0006 7047     		bx	lr
 392              	.L34:
 393              		.align	2
 394              	.L33:
 395 0008 80E200E0 		.word	-536812928
 396              		.cfi_endproc
 397              	.LFE45:
 398              		.size	A_Interrupt_ClearPending, .-A_Interrupt_ClearPending
 399              		.section	.text.A_Interrupt_Interrupt,"ax",%progbits
 400              		.align	2
 401              		.global	A_Interrupt_Interrupt
 402              		.code	16
 403              		.thumb_func
 404              		.type	A_Interrupt_Interrupt, %function
 405              	A_Interrupt_Interrupt:
 406              	.LFB36:
 166:Generated_Source\PSoC4/A_Interrupt.c ****     #ifdef A_Interrupt_INTERRUPT_INTERRUPT_CALLBACK
 407              		.loc 1 166 0
 408              		.cfi_startproc
 409              		@ args = 0, pretend = 0, frame = 0
 410              		@ frame_needed = 0, uses_anonymous_args = 0
 411 0000 10B5     		push	{r4, lr}
 412              		.cfi_def_cfa_offset 8
 413              		.cfi_offset 4, -8
 414              		.cfi_offset 14, -4
 415 0002 82B0     		sub	sp, sp, #8
 416              		.cfi_def_cfa_offset 16
 417              	.L36:
 174:Generated_Source\PSoC4/A_Interrupt.c ****             
ARM GAS  C:\Users\quint\AppData\Local\Temp\ccEa6Uwb.s 			page 16


 418              		.loc 1 174 0 discriminator 1
 419 0004 FFF7FEFF 		bl	A_Button_Read
 420              	.LVL20:
 421 0008 0128     		cmp	r0, #1
 422 000a FBD0     		beq	.L36
 176:Generated_Source\PSoC4/A_Interrupt.c ****             sprintf(mystring, "%5d", count);
 423              		.loc 1 176 0
 424 000c 0D4B     		ldr	r3, .L38
 425 000e 1A68     		ldr	r2, [r3]
 426 0010 0132     		adds	r2, r2, #1
 427 0012 1A60     		str	r2, [r3]
 177:Generated_Source\PSoC4/A_Interrupt.c ****             GLCD_PrintString(mystring, 10, 10, GLCD_WHITE, GLCD_BLACK);
 428              		.loc 1 177 0
 429 0014 0C4C     		ldr	r4, .L38+4
 430 0016 0D49     		ldr	r1, .L38+8
 431 0018 2000     		movs	r0, r4
 432 001a FFF7FEFF 		bl	sprintf
 433              	.LVL21:
 178:Generated_Source\PSoC4/A_Interrupt.c ****             //CyDelay(25);
 434              		.loc 1 178 0
 435 001e 0023     		movs	r3, #0
 436 0020 0093     		str	r3, [sp]
 437 0022 0B4B     		ldr	r3, .L38+12
 438 0024 0A22     		movs	r2, #10
 439 0026 0A21     		movs	r1, #10
 440 0028 2000     		movs	r0, r4
 441 002a FFF7FEFF 		bl	GLCD_PrintString
 442              	.LVL22:
 443              	.L37:
 181:Generated_Source\PSoC4/A_Interrupt.c ****             CyDelay(25);
 444              		.loc 1 181 0 discriminator 1
 445 002e FFF7FEFF 		bl	A_Button_Read
 446              	.LVL23:
 447 0032 0028     		cmp	r0, #0
 448 0034 FBD0     		beq	.L37
 182:Generated_Source\PSoC4/A_Interrupt.c ****             A_Interrupt_ClearPending(); 
 449              		.loc 1 182 0
 450 0036 1920     		movs	r0, #25
 451 0038 FFF7FEFF 		bl	CyDelay
 452              	.LVL24:
 183:Generated_Source\PSoC4/A_Interrupt.c ****     
 453              		.loc 1 183 0
 454 003c FFF7FEFF 		bl	A_Interrupt_ClearPending
 455              	.LVL25:
 187:Generated_Source\PSoC4/A_Interrupt.c **** 
 456              		.loc 1 187 0
 457 0040 02B0     		add	sp, sp, #8
 458              		@ sp needed
 459 0042 10BD     		pop	{r4, pc}
 460              	.L39:
 461              		.align	2
 462              	.L38:
 463 0044 00000000 		.word	count
 464 0048 00000000 		.word	mystring
 465 004c 00000000 		.word	.LC5
 466 0050 FF0F0000 		.word	4095
 467              		.cfi_endproc
ARM GAS  C:\Users\quint\AppData\Local\Temp\ccEa6Uwb.s 			page 17


 468              	.LFE36:
 469              		.size	A_Interrupt_Interrupt, .-A_Interrupt_Interrupt
 470              		.comm	GLCD_FONT8x16,1552,4
 471              		.section	.rodata.str1.4,"aMS",%progbits,1
 472              		.align	2
 473              	.LC5:
 474 0000 25356400 		.ascii	"%5d\000"
 475              		.text
 476              	.Letext0:
 477              		.file 2 "Generated_Source\\PSoC4/cytypes.h"
 478              		.file 3 "Generated_Source\\PSoC4\\GLCD.h"
 479              		.file 4 "Generated_Source\\PSoC4/CyLib.h"
 480              		.file 5 "Generated_Source\\PSoC4\\A_Button.h"
 481              		.file 6 "c:\\program files (x86)\\cypress\\psoc creator\\4.2\\psoc creator\\import\\gnu\\arm\\5.4.