ARM GAS  C:\Users\quint\AppData\Local\Temp\ccooIXEm.s 			page 1


   1              		.syntax unified
   2              		.cpu cortex-m0
   3              		.fpu softvfp
   4              		.eabi_attribute 20, 1
   5              		.eabi_attribute 21, 1
   6              		.eabi_attribute 23, 3
   7              		.eabi_attribute 24, 1
   8              		.eabi_attribute 25, 1
   9              		.eabi_attribute 26, 1
  10              		.eabi_attribute 30, 1
  11              		.eabi_attribute 34, 0
  12              		.eabi_attribute 18, 4
  13              		.thumb
  14              		.syntax unified
  15              		.file	"cyfitter_cfg.c"
  16              		.text
  17              	.Ltext0:
  18              		.cfi_sections	.debug_frame
  19              		.section	.text.cfg_write_bytes32,"ax",%progbits
  20              		.align	2
  21              		.code	16
  22              		.thumb_func
  23              		.type	cfg_write_bytes32, %function
  24              	cfg_write_bytes32:
  25              	.LFB3:
  26              		.file 1 "Generated_Source\\PSoC4\\cyfitter_cfg.c"
   1:Generated_Source\PSoC4/cyfitter_cfg.c **** 
   2:Generated_Source\PSoC4/cyfitter_cfg.c **** /*******************************************************************************
   3:Generated_Source\PSoC4/cyfitter_cfg.c **** * File Name: cyfitter_cfg.c
   4:Generated_Source\PSoC4/cyfitter_cfg.c **** * 
   5:Generated_Source\PSoC4/cyfitter_cfg.c **** * PSoC Creator  4.2
   6:Generated_Source\PSoC4/cyfitter_cfg.c **** *
   7:Generated_Source\PSoC4/cyfitter_cfg.c **** * Description:
   8:Generated_Source\PSoC4/cyfitter_cfg.c **** * This file contains device initialization code.
   9:Generated_Source\PSoC4/cyfitter_cfg.c **** * Except for the user defined sections in CyClockStartupError(), this file should not be modified.
  10:Generated_Source\PSoC4/cyfitter_cfg.c **** * This file is automatically generated by PSoC Creator.
  11:Generated_Source\PSoC4/cyfitter_cfg.c **** *
  12:Generated_Source\PSoC4/cyfitter_cfg.c **** ********************************************************************************
  13:Generated_Source\PSoC4/cyfitter_cfg.c **** * Copyright (c) 2007-2018 Cypress Semiconductor.  All rights reserved.
  14:Generated_Source\PSoC4/cyfitter_cfg.c **** * You may use this file only in accordance with the license, terms, conditions, 
  15:Generated_Source\PSoC4/cyfitter_cfg.c **** * disclaimers, and limitations in the end user license agreement accompanying 
  16:Generated_Source\PSoC4/cyfitter_cfg.c **** * the software package with which this file was provided.
  17:Generated_Source\PSoC4/cyfitter_cfg.c **** ********************************************************************************/
  18:Generated_Source\PSoC4/cyfitter_cfg.c **** 
  19:Generated_Source\PSoC4/cyfitter_cfg.c **** #include <string.h>
  20:Generated_Source\PSoC4/cyfitter_cfg.c **** #include "cytypes.h"
  21:Generated_Source\PSoC4/cyfitter_cfg.c **** #include "cydevice_trm.h"
  22:Generated_Source\PSoC4/cyfitter_cfg.c **** #include "cyfitter.h"
  23:Generated_Source\PSoC4/cyfitter_cfg.c **** #include "CyLib.h"
  24:Generated_Source\PSoC4/cyfitter_cfg.c **** #include "CyLFClk.h"
  25:Generated_Source\PSoC4/cyfitter_cfg.c **** #include "cyfitter_cfg.h"
  26:Generated_Source\PSoC4/cyfitter_cfg.c **** #include "cyapicallbacks.h"
  27:Generated_Source\PSoC4/cyfitter_cfg.c **** 
  28:Generated_Source\PSoC4/cyfitter_cfg.c **** 
  29:Generated_Source\PSoC4/cyfitter_cfg.c **** #if defined(__GNUC__) || defined(__ARMCC_VERSION)
  30:Generated_Source\PSoC4/cyfitter_cfg.c ****     #define CYPACKED 
  31:Generated_Source\PSoC4/cyfitter_cfg.c ****     #define CYPACKED_ATTR __attribute__ ((packed))
ARM GAS  C:\Users\quint\AppData\Local\Temp\ccooIXEm.s 			page 2


  32:Generated_Source\PSoC4/cyfitter_cfg.c ****     #define CYALIGNED __attribute__ ((aligned))
  33:Generated_Source\PSoC4/cyfitter_cfg.c ****     #define CY_CFG_UNUSED __attribute__ ((unused))
  34:Generated_Source\PSoC4/cyfitter_cfg.c ****     #ifndef CY_CFG_SECTION
  35:Generated_Source\PSoC4/cyfitter_cfg.c ****         #define CY_CFG_SECTION __attribute__ ((section(".psocinit")))
  36:Generated_Source\PSoC4/cyfitter_cfg.c ****     #endif
  37:Generated_Source\PSoC4/cyfitter_cfg.c ****     
  38:Generated_Source\PSoC4/cyfitter_cfg.c ****     #if defined(__ARMCC_VERSION)
  39:Generated_Source\PSoC4/cyfitter_cfg.c ****         #define CY_CFG_MEMORY_BARRIER() __memory_changed()
  40:Generated_Source\PSoC4/cyfitter_cfg.c ****     #else
  41:Generated_Source\PSoC4/cyfitter_cfg.c ****         #define CY_CFG_MEMORY_BARRIER() __sync_synchronize()
  42:Generated_Source\PSoC4/cyfitter_cfg.c ****     #endif
  43:Generated_Source\PSoC4/cyfitter_cfg.c ****     
  44:Generated_Source\PSoC4/cyfitter_cfg.c **** #elif defined(__ICCARM__)
  45:Generated_Source\PSoC4/cyfitter_cfg.c ****     #include <intrinsics.h>
  46:Generated_Source\PSoC4/cyfitter_cfg.c **** 
  47:Generated_Source\PSoC4/cyfitter_cfg.c ****     #define CYPACKED __packed
  48:Generated_Source\PSoC4/cyfitter_cfg.c ****     #define CYPACKED_ATTR 
  49:Generated_Source\PSoC4/cyfitter_cfg.c ****     #define CYALIGNED _Pragma("data_alignment=4")
  50:Generated_Source\PSoC4/cyfitter_cfg.c ****     #define CY_CFG_UNUSED _Pragma("diag_suppress=Pe177")
  51:Generated_Source\PSoC4/cyfitter_cfg.c ****     #define CY_CFG_SECTION _Pragma("location=\".psocinit\"")
  52:Generated_Source\PSoC4/cyfitter_cfg.c ****     
  53:Generated_Source\PSoC4/cyfitter_cfg.c ****     #define CY_CFG_MEMORY_BARRIER() __DMB()
  54:Generated_Source\PSoC4/cyfitter_cfg.c ****     
  55:Generated_Source\PSoC4/cyfitter_cfg.c **** #else
  56:Generated_Source\PSoC4/cyfitter_cfg.c ****     #error Unsupported toolchain
  57:Generated_Source\PSoC4/cyfitter_cfg.c **** #endif
  58:Generated_Source\PSoC4/cyfitter_cfg.c **** 
  59:Generated_Source\PSoC4/cyfitter_cfg.c **** #ifndef CYCODE
  60:Generated_Source\PSoC4/cyfitter_cfg.c ****     #define CYCODE
  61:Generated_Source\PSoC4/cyfitter_cfg.c **** #endif
  62:Generated_Source\PSoC4/cyfitter_cfg.c **** #ifndef CYDATA
  63:Generated_Source\PSoC4/cyfitter_cfg.c ****     #define CYDATA
  64:Generated_Source\PSoC4/cyfitter_cfg.c **** #endif
  65:Generated_Source\PSoC4/cyfitter_cfg.c **** #ifndef CYFAR
  66:Generated_Source\PSoC4/cyfitter_cfg.c ****     #define CYFAR
  67:Generated_Source\PSoC4/cyfitter_cfg.c **** #endif
  68:Generated_Source\PSoC4/cyfitter_cfg.c **** #ifndef CYXDATA
  69:Generated_Source\PSoC4/cyfitter_cfg.c ****     #define CYXDATA
  70:Generated_Source\PSoC4/cyfitter_cfg.c **** #endif
  71:Generated_Source\PSoC4/cyfitter_cfg.c **** 
  72:Generated_Source\PSoC4/cyfitter_cfg.c **** 
  73:Generated_Source\PSoC4/cyfitter_cfg.c **** CY_CFG_UNUSED
  74:Generated_Source\PSoC4/cyfitter_cfg.c **** static void CYMEMZERO(void *s, size_t n);
  75:Generated_Source\PSoC4/cyfitter_cfg.c **** CY_CFG_UNUSED
  76:Generated_Source\PSoC4/cyfitter_cfg.c **** static void CYMEMZERO(void *s, size_t n)
  77:Generated_Source\PSoC4/cyfitter_cfg.c **** {
  78:Generated_Source\PSoC4/cyfitter_cfg.c **** 	(void)memset(s, 0, n);
  79:Generated_Source\PSoC4/cyfitter_cfg.c **** }
  80:Generated_Source\PSoC4/cyfitter_cfg.c **** CY_CFG_UNUSED
  81:Generated_Source\PSoC4/cyfitter_cfg.c **** static void CYCONFIGCPY(void *dest, const void *src, size_t n);
  82:Generated_Source\PSoC4/cyfitter_cfg.c **** CY_CFG_UNUSED
  83:Generated_Source\PSoC4/cyfitter_cfg.c **** static void CYCONFIGCPY(void *dest, const void *src, size_t n)
  84:Generated_Source\PSoC4/cyfitter_cfg.c **** {
  85:Generated_Source\PSoC4/cyfitter_cfg.c **** 	(void)memcpy(dest, src, n);
  86:Generated_Source\PSoC4/cyfitter_cfg.c **** }
  87:Generated_Source\PSoC4/cyfitter_cfg.c **** CY_CFG_UNUSED
  88:Generated_Source\PSoC4/cyfitter_cfg.c **** static void CYCONFIGCPYCODE(void *dest, const void *src, size_t n);
ARM GAS  C:\Users\quint\AppData\Local\Temp\ccooIXEm.s 			page 3


  89:Generated_Source\PSoC4/cyfitter_cfg.c **** CY_CFG_UNUSED
  90:Generated_Source\PSoC4/cyfitter_cfg.c **** static void CYCONFIGCPYCODE(void *dest, const void *src, size_t n)
  91:Generated_Source\PSoC4/cyfitter_cfg.c **** {
  92:Generated_Source\PSoC4/cyfitter_cfg.c **** 	(void)memcpy(dest, src, n);
  93:Generated_Source\PSoC4/cyfitter_cfg.c **** }
  94:Generated_Source\PSoC4/cyfitter_cfg.c **** 
  95:Generated_Source\PSoC4/cyfitter_cfg.c **** 
  96:Generated_Source\PSoC4/cyfitter_cfg.c **** 
  97:Generated_Source\PSoC4/cyfitter_cfg.c **** 
  98:Generated_Source\PSoC4/cyfitter_cfg.c **** /* Clock startup error codes                                                   */
  99:Generated_Source\PSoC4/cyfitter_cfg.c **** #define CYCLOCKSTART_NO_ERROR    0u
 100:Generated_Source\PSoC4/cyfitter_cfg.c **** #define CYCLOCKSTART_XTAL_ERROR  1u
 101:Generated_Source\PSoC4/cyfitter_cfg.c **** #define CYCLOCKSTART_32KHZ_ERROR 2u
 102:Generated_Source\PSoC4/cyfitter_cfg.c **** #define CYCLOCKSTART_PLL_ERROR   3u
 103:Generated_Source\PSoC4/cyfitter_cfg.c **** #define CYCLOCKSTART_FLL_ERROR   4u
 104:Generated_Source\PSoC4/cyfitter_cfg.c **** #define CYCLOCKSTART_WCO_ERROR   5u
 105:Generated_Source\PSoC4/cyfitter_cfg.c **** 
 106:Generated_Source\PSoC4/cyfitter_cfg.c **** 
 107:Generated_Source\PSoC4/cyfitter_cfg.c **** #ifdef CY_NEED_CYCLOCKSTARTUPERROR
 108:Generated_Source\PSoC4/cyfitter_cfg.c **** /*******************************************************************************
 109:Generated_Source\PSoC4/cyfitter_cfg.c **** * Function Name: CyClockStartupError
 110:Generated_Source\PSoC4/cyfitter_cfg.c **** ********************************************************************************
 111:Generated_Source\PSoC4/cyfitter_cfg.c **** * Summary:
 112:Generated_Source\PSoC4/cyfitter_cfg.c **** *  If an error is encountered during clock configuration (crystal startup error,
 113:Generated_Source\PSoC4/cyfitter_cfg.c **** *  PLL lock error, etc.), the system will end up here.  Unless reimplemented by
 114:Generated_Source\PSoC4/cyfitter_cfg.c **** *  the customer, this function will stop in an infinite loop.
 115:Generated_Source\PSoC4/cyfitter_cfg.c **** *
 116:Generated_Source\PSoC4/cyfitter_cfg.c **** * Parameters:
 117:Generated_Source\PSoC4/cyfitter_cfg.c **** *   void
 118:Generated_Source\PSoC4/cyfitter_cfg.c **** *
 119:Generated_Source\PSoC4/cyfitter_cfg.c **** * Return:
 120:Generated_Source\PSoC4/cyfitter_cfg.c **** *   void
 121:Generated_Source\PSoC4/cyfitter_cfg.c **** *
 122:Generated_Source\PSoC4/cyfitter_cfg.c **** *******************************************************************************/
 123:Generated_Source\PSoC4/cyfitter_cfg.c **** CY_CFG_UNUSED
 124:Generated_Source\PSoC4/cyfitter_cfg.c **** static void CyClockStartupError(uint8 errorCode);
 125:Generated_Source\PSoC4/cyfitter_cfg.c **** CY_CFG_UNUSED
 126:Generated_Source\PSoC4/cyfitter_cfg.c **** static void CyClockStartupError(uint8 errorCode)
 127:Generated_Source\PSoC4/cyfitter_cfg.c **** {
 128:Generated_Source\PSoC4/cyfitter_cfg.c ****     /* To remove the compiler warning if errorCode not used.                */
 129:Generated_Source\PSoC4/cyfitter_cfg.c ****     errorCode = errorCode;
 130:Generated_Source\PSoC4/cyfitter_cfg.c **** 
 131:Generated_Source\PSoC4/cyfitter_cfg.c ****     /* If we have a clock startup error (bad MHz crystal, PLL lock, etc.),  */
 132:Generated_Source\PSoC4/cyfitter_cfg.c ****     /* we will end up here to allow the customer to implement something to  */
 133:Generated_Source\PSoC4/cyfitter_cfg.c ****     /* deal with the clock condition.                                       */
 134:Generated_Source\PSoC4/cyfitter_cfg.c **** 
 135:Generated_Source\PSoC4/cyfitter_cfg.c **** #ifdef CY_CFG_CLOCK_STARTUP_ERROR_CALLBACK
 136:Generated_Source\PSoC4/cyfitter_cfg.c ****     CY_CFG_Clock_Startup_ErrorCallback();
 137:Generated_Source\PSoC4/cyfitter_cfg.c **** #else
 138:Generated_Source\PSoC4/cyfitter_cfg.c ****     /*  If not using CY_CFG_CLOCK_STARTUP_ERROR_CALLBACK, place your clock startup code here. */
 139:Generated_Source\PSoC4/cyfitter_cfg.c ****     /* `#START CyClockStartupError` */
 140:Generated_Source\PSoC4/cyfitter_cfg.c **** 
 141:Generated_Source\PSoC4/cyfitter_cfg.c **** 
 142:Generated_Source\PSoC4/cyfitter_cfg.c **** 
 143:Generated_Source\PSoC4/cyfitter_cfg.c ****     /* `#END` */
 144:Generated_Source\PSoC4/cyfitter_cfg.c **** 
 145:Generated_Source\PSoC4/cyfitter_cfg.c ****     while(1) {}
ARM GAS  C:\Users\quint\AppData\Local\Temp\ccooIXEm.s 			page 4


 146:Generated_Source\PSoC4/cyfitter_cfg.c **** #endif /* CY_CFG_CLOCK_STARTUP_ERROR_CALLBACK */
 147:Generated_Source\PSoC4/cyfitter_cfg.c **** }
 148:Generated_Source\PSoC4/cyfitter_cfg.c **** #endif
 149:Generated_Source\PSoC4/cyfitter_cfg.c **** 
 150:Generated_Source\PSoC4/cyfitter_cfg.c **** #define CY_CFG_BASE_ADDR_COUNT 10u
 151:Generated_Source\PSoC4/cyfitter_cfg.c **** CYPACKED typedef struct
 152:Generated_Source\PSoC4/cyfitter_cfg.c **** {
 153:Generated_Source\PSoC4/cyfitter_cfg.c **** 	uint8 offset;
 154:Generated_Source\PSoC4/cyfitter_cfg.c **** 	uint8 value;
 155:Generated_Source\PSoC4/cyfitter_cfg.c **** } CYPACKED_ATTR cy_cfg_addrvalue_t;
 156:Generated_Source\PSoC4/cyfitter_cfg.c **** 
 157:Generated_Source\PSoC4/cyfitter_cfg.c **** 
 158:Generated_Source\PSoC4/cyfitter_cfg.c **** 
 159:Generated_Source\PSoC4/cyfitter_cfg.c **** /*******************************************************************************
 160:Generated_Source\PSoC4/cyfitter_cfg.c **** * Function Name: cfg_write_bytes32
 161:Generated_Source\PSoC4/cyfitter_cfg.c **** ********************************************************************************
 162:Generated_Source\PSoC4/cyfitter_cfg.c **** * Summary:
 163:Generated_Source\PSoC4/cyfitter_cfg.c **** *  This function is used for setting up the chip configuration areas that
 164:Generated_Source\PSoC4/cyfitter_cfg.c **** *  contain relatively sparse data.
 165:Generated_Source\PSoC4/cyfitter_cfg.c **** *
 166:Generated_Source\PSoC4/cyfitter_cfg.c **** * Parameters:
 167:Generated_Source\PSoC4/cyfitter_cfg.c **** *   void
 168:Generated_Source\PSoC4/cyfitter_cfg.c **** *
 169:Generated_Source\PSoC4/cyfitter_cfg.c **** * Return:
 170:Generated_Source\PSoC4/cyfitter_cfg.c **** *   void
 171:Generated_Source\PSoC4/cyfitter_cfg.c **** *
 172:Generated_Source\PSoC4/cyfitter_cfg.c **** *******************************************************************************/
 173:Generated_Source\PSoC4/cyfitter_cfg.c **** static void cfg_write_bytes32(const uint32 addr_table[], const cy_cfg_addrvalue_t data_table[]);
 174:Generated_Source\PSoC4/cyfitter_cfg.c **** static void cfg_write_bytes32(const uint32 addr_table[], const cy_cfg_addrvalue_t data_table[])
 175:Generated_Source\PSoC4/cyfitter_cfg.c **** {
  27              		.loc 1 175 0
  28              		.cfi_startproc
  29              		@ args = 0, pretend = 0, frame = 0
  30              		@ frame_needed = 0, uses_anonymous_args = 0
  31              	.LVL0:
  32 0000 F0B5     		push	{r4, r5, r6, r7, lr}
  33              		.cfi_def_cfa_offset 20
  34              		.cfi_offset 4, -20
  35              		.cfi_offset 5, -16
  36              		.cfi_offset 6, -12
  37              		.cfi_offset 7, -8
  38              		.cfi_offset 14, -4
  39              	.LVL1:
 176:Generated_Source\PSoC4/cyfitter_cfg.c **** 	/* For 32-bit little-endian architectures */
 177:Generated_Source\PSoC4/cyfitter_cfg.c **** 	uint32 i, j = 0u;
  40              		.loc 1 177 0
  41 0002 0025     		movs	r5, #0
 178:Generated_Source\PSoC4/cyfitter_cfg.c **** 	for (i = 0u; i < CY_CFG_BASE_ADDR_COUNT; i++)
  42              		.loc 1 178 0
  43 0004 0027     		movs	r7, #0
  44 0006 11E0     		b	.L2
  45              	.LVL2:
  46              	.L5:
  47              	.LBB2:
 179:Generated_Source\PSoC4/cyfitter_cfg.c **** 	{
 180:Generated_Source\PSoC4/cyfitter_cfg.c **** 		uint32 baseAddr = addr_table[i];
  48              		.loc 1 180 0
ARM GAS  C:\Users\quint\AppData\Local\Temp\ccooIXEm.s 			page 5


  49 0008 BB00     		lsls	r3, r7, #2
  50 000a C658     		ldr	r6, [r0, r3]
  51              	.LVL3:
 181:Generated_Source\PSoC4/cyfitter_cfg.c **** 		uint8 count = (uint8)baseAddr;
  52              		.loc 1 181 0
  53 000c F3B2     		uxtb	r3, r6
  54              	.LVL4:
 182:Generated_Source\PSoC4/cyfitter_cfg.c **** 		baseAddr &= 0xFFFFFF00u;
  55              		.loc 1 182 0
  56 000e FF22     		movs	r2, #255
  57 0010 9643     		bics	r6, r2
  58              	.LVL5:
 183:Generated_Source\PSoC4/cyfitter_cfg.c **** 		while (count != 0u)
  59              		.loc 1 183 0
  60 0012 08E0     		b	.L3
  61              	.L4:
 184:Generated_Source\PSoC4/cyfitter_cfg.c **** 		{
 185:Generated_Source\PSoC4/cyfitter_cfg.c **** 			CY_SET_REG8((void *)(baseAddr + data_table[j].offset), data_table[j].value);
  62              		.loc 1 185 0
  63 0014 6A00     		lsls	r2, r5, #1
  64 0016 8A18     		adds	r2, r1, r2
  65 0018 1478     		ldrb	r4, [r2]
  66 001a A419     		adds	r4, r4, r6
  67 001c 5278     		ldrb	r2, [r2, #1]
  68 001e 2270     		strb	r2, [r4]
 186:Generated_Source\PSoC4/cyfitter_cfg.c **** 			j++;
  69              		.loc 1 186 0
  70 0020 0135     		adds	r5, r5, #1
  71              	.LVL6:
 187:Generated_Source\PSoC4/cyfitter_cfg.c **** 			count--;
  72              		.loc 1 187 0
  73 0022 013B     		subs	r3, r3, #1
  74              	.LVL7:
  75 0024 DBB2     		uxtb	r3, r3
  76              	.LVL8:
  77              	.L3:
 183:Generated_Source\PSoC4/cyfitter_cfg.c **** 		{
  78              		.loc 1 183 0
  79 0026 002B     		cmp	r3, #0
  80 0028 F4D1     		bne	.L4
  81              	.LBE2:
 178:Generated_Source\PSoC4/cyfitter_cfg.c **** 	{
  82              		.loc 1 178 0 discriminator 2
  83 002a 0137     		adds	r7, r7, #1
  84              	.LVL9:
  85              	.L2:
 178:Generated_Source\PSoC4/cyfitter_cfg.c **** 	{
  86              		.loc 1 178 0 is_stmt 0 discriminator 1
  87 002c 092F     		cmp	r7, #9
  88 002e EBD9     		bls	.L5
 188:Generated_Source\PSoC4/cyfitter_cfg.c **** 		}
 189:Generated_Source\PSoC4/cyfitter_cfg.c **** 	}
 190:Generated_Source\PSoC4/cyfitter_cfg.c **** }
  89              		.loc 1 190 0 is_stmt 1
  90              		@ sp needed
  91              	.LVL10:
  92              	.LVL11:
ARM GAS  C:\Users\quint\AppData\Local\Temp\ccooIXEm.s 			page 6


  93 0030 F0BD     		pop	{r4, r5, r6, r7, pc}
  94              		.cfi_endproc
  95              	.LFE3:
  96              		.size	cfg_write_bytes32, .-cfg_write_bytes32
  97 0032 C046     		.section	.text.CYMEMZERO,"ax",%progbits
  98              		.align	2
  99              		.code	16
 100              		.thumb_func
 101              		.type	CYMEMZERO, %function
 102              	CYMEMZERO:
 103              	.LFB0:
  77:Generated_Source\PSoC4/cyfitter_cfg.c **** 	(void)memset(s, 0, n);
 104              		.loc 1 77 0
 105              		.cfi_startproc
 106              		@ args = 0, pretend = 0, frame = 0
 107              		@ frame_needed = 0, uses_anonymous_args = 0
 108              	.LVL12:
 109 0000 10B5     		push	{r4, lr}
 110              		.cfi_def_cfa_offset 8
 111              		.cfi_offset 4, -8
 112              		.cfi_offset 14, -4
 113 0002 0A00     		movs	r2, r1
  78:Generated_Source\PSoC4/cyfitter_cfg.c **** }
 114              		.loc 1 78 0
 115 0004 0021     		movs	r1, #0
 116              	.LVL13:
 117 0006 FFF7FEFF 		bl	memset
 118              	.LVL14:
  79:Generated_Source\PSoC4/cyfitter_cfg.c **** CY_CFG_UNUSED
 119              		.loc 1 79 0
 120              		@ sp needed
 121 000a 10BD     		pop	{r4, pc}
 122              		.cfi_endproc
 123              	.LFE0:
 124              		.size	CYMEMZERO, .-CYMEMZERO
 125              		.section	.psocinit,"ax",%progbits
 126              		.align	2
 127              		.code	16
 128              		.thumb_func
 129              		.type	ClockSetup, %function
 130              	ClockSetup:
 131              	.LFB4:
 191:Generated_Source\PSoC4/cyfitter_cfg.c **** 
 192:Generated_Source\PSoC4/cyfitter_cfg.c **** 
 193:Generated_Source\PSoC4/cyfitter_cfg.c **** /*******************************************************************************
 194:Generated_Source\PSoC4/cyfitter_cfg.c **** * Function Name: ClockSetup
 195:Generated_Source\PSoC4/cyfitter_cfg.c **** ********************************************************************************
 196:Generated_Source\PSoC4/cyfitter_cfg.c **** *
 197:Generated_Source\PSoC4/cyfitter_cfg.c **** * Summary:
 198:Generated_Source\PSoC4/cyfitter_cfg.c **** *   Performs the initialization of all of the clocks in the device based on the
 199:Generated_Source\PSoC4/cyfitter_cfg.c **** *   settings in the Clock tab of the DWR.  This includes enabling the requested
 200:Generated_Source\PSoC4/cyfitter_cfg.c **** *   clocks and setting the necessary dividers to produce the desired frequency. 
 201:Generated_Source\PSoC4/cyfitter_cfg.c **** *
 202:Generated_Source\PSoC4/cyfitter_cfg.c **** * Parameters:
 203:Generated_Source\PSoC4/cyfitter_cfg.c **** *   void
 204:Generated_Source\PSoC4/cyfitter_cfg.c **** *
 205:Generated_Source\PSoC4/cyfitter_cfg.c **** * Return:
ARM GAS  C:\Users\quint\AppData\Local\Temp\ccooIXEm.s 			page 7


 206:Generated_Source\PSoC4/cyfitter_cfg.c **** *   void
 207:Generated_Source\PSoC4/cyfitter_cfg.c **** *
 208:Generated_Source\PSoC4/cyfitter_cfg.c **** *******************************************************************************/
 209:Generated_Source\PSoC4/cyfitter_cfg.c **** static void ClockSetup(void);
 210:Generated_Source\PSoC4/cyfitter_cfg.c **** CY_CFG_SECTION
 211:Generated_Source\PSoC4/cyfitter_cfg.c **** static void ClockSetup(void)
 212:Generated_Source\PSoC4/cyfitter_cfg.c **** {
 132              		.loc 1 212 0
 133              		.cfi_startproc
 134              		@ args = 0, pretend = 0, frame = 0
 135              		@ frame_needed = 0, uses_anonymous_args = 0
 136 0000 70B5     		push	{r4, r5, r6, lr}
 137              		.cfi_def_cfa_offset 16
 138              		.cfi_offset 4, -16
 139              		.cfi_offset 5, -12
 140              		.cfi_offset 6, -8
 141              		.cfi_offset 14, -4
 213:Generated_Source\PSoC4/cyfitter_cfg.c **** 	/* Enable HALF_EN before trimming for the flash accelerator. */
 214:Generated_Source\PSoC4/cyfitter_cfg.c **** 	CY_SET_REG32((void CYXDATA *)(CYREG_CLK_SELECT), (CY_GET_REG32((void *)CYREG_CLK_SELECT) | 0x00040
 142              		.loc 1 214 0
 143 0002 134C     		ldr	r4, .L8
 144 0004 2368     		ldr	r3, [r4]
 145 0006 8022     		movs	r2, #128
 146 0008 D202     		lsls	r2, r2, #11
 147 000a 1343     		orrs	r3, r2
 148 000c 2360     		str	r3, [r4]
 215:Generated_Source\PSoC4/cyfitter_cfg.c **** 
 216:Generated_Source\PSoC4/cyfitter_cfg.c **** 	/* Setup and trim IMO based on desired frequency. */
 217:Generated_Source\PSoC4/cyfitter_cfg.c **** 	CySysClkWriteImoFreq(24u);
 149              		.loc 1 217 0
 150 000e 1820     		movs	r0, #24
 151 0010 FFF7FEFF 		bl	CySysClkWriteImoFreq
 152              	.LVL15:
 218:Generated_Source\PSoC4/cyfitter_cfg.c **** 
 219:Generated_Source\PSoC4/cyfitter_cfg.c **** 	/* Disable HALF_EN since it is not required at this IMO frequency. */
 220:Generated_Source\PSoC4/cyfitter_cfg.c **** 	CY_SET_REG32((void CYXDATA *)(CYREG_CLK_SELECT), (CY_GET_REG32((void *)CYREG_CLK_SELECT) & 0xFFFBF
 153              		.loc 1 220 0
 154 0014 2268     		ldr	r2, [r4]
 155 0016 0F4B     		ldr	r3, .L8+4
 156 0018 1340     		ands	r3, r2
 157 001a 2360     		str	r3, [r4]
 221:Generated_Source\PSoC4/cyfitter_cfg.c **** 	/* CYDEV_CLK_ILO_CONFIG Starting address: CYDEV_CLK_ILO_CONFIG */
 222:Generated_Source\PSoC4/cyfitter_cfg.c **** 	CY_SET_REG32((void *)(CYREG_CLK_ILO_CONFIG), 0x80000006u);
 158              		.loc 1 222 0
 159 001c 0E4A     		ldr	r2, .L8+8
 160 001e 0F4B     		ldr	r3, .L8+12
 161 0020 1A60     		str	r2, [r3]
 223:Generated_Source\PSoC4/cyfitter_cfg.c **** 
 224:Generated_Source\PSoC4/cyfitter_cfg.c **** 
 225:Generated_Source\PSoC4/cyfitter_cfg.c **** 	/* CYDEV_CLK_SELECT00 Starting address: CYDEV_CLK_SELECT00 */
 226:Generated_Source\PSoC4/cyfitter_cfg.c **** 	CY_SET_REG32((void *)(CYREG_CLK_SELECT12), 0x00000010u);
 162              		.loc 1 226 0
 163 0022 1022     		movs	r2, #16
 164 0024 0E4B     		ldr	r3, .L8+16
 165 0026 1A60     		str	r2, [r3]
 227:Generated_Source\PSoC4/cyfitter_cfg.c **** 
 228:Generated_Source\PSoC4/cyfitter_cfg.c **** 	/* CYDEV_CLK_IMO_CONFIG Starting address: CYDEV_CLK_IMO_CONFIG */
ARM GAS  C:\Users\quint\AppData\Local\Temp\ccooIXEm.s 			page 8


 229:Generated_Source\PSoC4/cyfitter_cfg.c **** 	CY_SET_REG32((void *)(CYREG_CLK_IMO_CONFIG), 0x80000000u);
 166              		.loc 1 229 0
 167 0028 8022     		movs	r2, #128
 168 002a 1206     		lsls	r2, r2, #24
 169 002c 0D4B     		ldr	r3, .L8+20
 170 002e 1A60     		str	r2, [r3]
 230:Generated_Source\PSoC4/cyfitter_cfg.c **** 
 231:Generated_Source\PSoC4/cyfitter_cfg.c **** 	/* CYDEV_CLK_SELECT Starting address: CYDEV_CLK_SELECT */
 232:Generated_Source\PSoC4/cyfitter_cfg.c **** 	CY_SET_REG32((void *)(CYREG_CLK_SELECT), 0x00000000u);
 171              		.loc 1 232 0
 172 0030 0025     		movs	r5, #0
 173 0032 2560     		str	r5, [r4]
 233:Generated_Source\PSoC4/cyfitter_cfg.c **** 
 234:Generated_Source\PSoC4/cyfitter_cfg.c **** 	/* CYDEV_CLK_DIVIDER_A00 Starting address: CYDEV_CLK_DIVIDER_A00 */
 235:Generated_Source\PSoC4/cyfitter_cfg.c **** 	CY_SET_REG32((void *)(CYREG_CLK_DIVIDER_A00), 0x80000001u);
 174              		.loc 1 235 0
 175 0034 0C4A     		ldr	r2, .L8+24
 176 0036 0D4B     		ldr	r3, .L8+28
 177 0038 1A60     		str	r2, [r3]
 236:Generated_Source\PSoC4/cyfitter_cfg.c **** 
 237:Generated_Source\PSoC4/cyfitter_cfg.c **** 	(void)CyIntSetVector(9u, &CySysWdtIsr);
 178              		.loc 1 237 0
 179 003a 0D49     		ldr	r1, .L8+32
 180 003c 0920     		movs	r0, #9
 181 003e FFF7FEFF 		bl	CyIntSetVector
 182              	.LVL16:
 238:Generated_Source\PSoC4/cyfitter_cfg.c **** 	CyIntEnable(9u);
 183              		.loc 1 238 0
 184 0042 0920     		movs	r0, #9
 185 0044 FFF7FEFF 		bl	CyIntEnable
 186              	.LVL17:
 239:Generated_Source\PSoC4/cyfitter_cfg.c **** 	CY_SET_REG32((void *)(CYREG_WDT_CONFIG), 0x00000000u);
 187              		.loc 1 239 0
 188 0048 0A4B     		ldr	r3, .L8+36
 189 004a 1D60     		str	r5, [r3]
 240:Generated_Source\PSoC4/cyfitter_cfg.c **** }
 190              		.loc 1 240 0
 191              		@ sp needed
 192 004c 70BD     		pop	{r4, r5, r6, pc}
 193              	.L9:
 194 004e C046     		.align	2
 195              	.L8:
 196 0050 00010B40 		.word	1074462976
 197 0054 FFFFFBFF 		.word	-262145
 198 0058 06000080 		.word	-2147483642
 199 005c 04010B40 		.word	1074462980
 200 0060 30020240 		.word	1073873456
 201 0064 08010B40 		.word	1074462984
 202 0068 01000080 		.word	-2147483647
 203 006c 00000240 		.word	1073872896
 204 0070 00000000 		.word	CySysWdtIsr
 205 0074 0C020B40 		.word	1074463244
 206              		.cfi_endproc
 207              	.LFE4:
 208              		.size	ClockSetup, .-ClockSetup
 209              		.align	2
 210              		.global	cyfitter_cfg
ARM GAS  C:\Users\quint\AppData\Local\Temp\ccooIXEm.s 			page 9


 211              		.code	16
 212              		.thumb_func
 213              		.type	cyfitter_cfg, %function
 214              	cyfitter_cfg:
 215              	.LFB6:
 241:Generated_Source\PSoC4/cyfitter_cfg.c **** 
 242:Generated_Source\PSoC4/cyfitter_cfg.c **** 
 243:Generated_Source\PSoC4/cyfitter_cfg.c **** /* Analog API Functions */
 244:Generated_Source\PSoC4/cyfitter_cfg.c **** 
 245:Generated_Source\PSoC4/cyfitter_cfg.c **** 
 246:Generated_Source\PSoC4/cyfitter_cfg.c **** /*******************************************************************************
 247:Generated_Source\PSoC4/cyfitter_cfg.c **** * Function Name: AnalogSetDefault
 248:Generated_Source\PSoC4/cyfitter_cfg.c **** ********************************************************************************
 249:Generated_Source\PSoC4/cyfitter_cfg.c **** *
 250:Generated_Source\PSoC4/cyfitter_cfg.c **** * Summary:
 251:Generated_Source\PSoC4/cyfitter_cfg.c **** *  Sets up the analog portions of the chip to default values based on chip
 252:Generated_Source\PSoC4/cyfitter_cfg.c **** *  configuration options from the project.
 253:Generated_Source\PSoC4/cyfitter_cfg.c **** *
 254:Generated_Source\PSoC4/cyfitter_cfg.c **** * Parameters:
 255:Generated_Source\PSoC4/cyfitter_cfg.c **** *  void
 256:Generated_Source\PSoC4/cyfitter_cfg.c **** *
 257:Generated_Source\PSoC4/cyfitter_cfg.c **** * Return:
 258:Generated_Source\PSoC4/cyfitter_cfg.c **** *  void
 259:Generated_Source\PSoC4/cyfitter_cfg.c **** *
 260:Generated_Source\PSoC4/cyfitter_cfg.c **** *******************************************************************************/
 261:Generated_Source\PSoC4/cyfitter_cfg.c **** static void AnalogSetDefault(void);
 262:Generated_Source\PSoC4/cyfitter_cfg.c **** static void AnalogSetDefault(void)
 263:Generated_Source\PSoC4/cyfitter_cfg.c **** {
 264:Generated_Source\PSoC4/cyfitter_cfg.c **** }
 265:Generated_Source\PSoC4/cyfitter_cfg.c **** 
 266:Generated_Source\PSoC4/cyfitter_cfg.c **** 
 267:Generated_Source\PSoC4/cyfitter_cfg.c **** 
 268:Generated_Source\PSoC4/cyfitter_cfg.c **** 
 269:Generated_Source\PSoC4/cyfitter_cfg.c **** /*******************************************************************************
 270:Generated_Source\PSoC4/cyfitter_cfg.c **** * Function Name: cyfitter_cfg
 271:Generated_Source\PSoC4/cyfitter_cfg.c **** ********************************************************************************
 272:Generated_Source\PSoC4/cyfitter_cfg.c **** * Summary:
 273:Generated_Source\PSoC4/cyfitter_cfg.c **** *  This function is called by the start-up code for the selected device. It
 274:Generated_Source\PSoC4/cyfitter_cfg.c **** *  performs all of the necessary device configuration based on the design
 275:Generated_Source\PSoC4/cyfitter_cfg.c **** *  settings.  This includes settings from the Design Wide Resources (DWR) such
 276:Generated_Source\PSoC4/cyfitter_cfg.c **** *  as Clocks and Pins as well as any component configuration that is necessary.
 277:Generated_Source\PSoC4/cyfitter_cfg.c **** *
 278:Generated_Source\PSoC4/cyfitter_cfg.c **** * Parameters:
 279:Generated_Source\PSoC4/cyfitter_cfg.c **** *   void
 280:Generated_Source\PSoC4/cyfitter_cfg.c **** *
 281:Generated_Source\PSoC4/cyfitter_cfg.c **** * Return:
 282:Generated_Source\PSoC4/cyfitter_cfg.c **** *   void
 283:Generated_Source\PSoC4/cyfitter_cfg.c **** *
 284:Generated_Source\PSoC4/cyfitter_cfg.c **** *******************************************************************************/
 285:Generated_Source\PSoC4/cyfitter_cfg.c **** CY_CFG_SECTION
 286:Generated_Source\PSoC4/cyfitter_cfg.c **** void cyfitter_cfg(void)
 287:Generated_Source\PSoC4/cyfitter_cfg.c **** {
 216              		.loc 1 287 0
 217              		.cfi_startproc
 218              		@ args = 0, pretend = 0, frame = 0
 219              		@ frame_needed = 0, uses_anonymous_args = 0
 220 0078 10B5     		push	{r4, lr}
ARM GAS  C:\Users\quint\AppData\Local\Temp\ccooIXEm.s 			page 10


 221              		.cfi_def_cfa_offset 8
 222              		.cfi_offset 4, -8
 223              		.cfi_offset 14, -4
 288:Generated_Source\PSoC4/cyfitter_cfg.c **** 	/* Disable interrupts by default. Let user enable if/when they want. */
 289:Generated_Source\PSoC4/cyfitter_cfg.c **** 	CyGlobalIntDisable;
 224              		.loc 1 289 0
 225              		.syntax divided
 226              	@ 289 "Generated_Source\PSoC4\cyfitter_cfg.c" 1
 227 007a 72B6     		CPSID   i
 228              	@ 0 "" 2
 290:Generated_Source\PSoC4/cyfitter_cfg.c **** 
 291:Generated_Source\PSoC4/cyfitter_cfg.c **** 	/* Enable the clock in the interrupt controller for the routed interrupts */
 292:Generated_Source\PSoC4/cyfitter_cfg.c **** 	CY_SET_REG8((void *)CYREG_UDB_UDBIF_INT_CLK_CTL, 0x01u);
 229              		.loc 1 292 0
 230              		.thumb
 231              		.syntax unified
 232 007c 0122     		movs	r2, #1
 233 007e 2E4B     		ldr	r3, .L13
 234 0080 1A70     		strb	r2, [r3]
 235              	.LVL18:
 236              	.LBB3:
 293:Generated_Source\PSoC4/cyfitter_cfg.c **** 	{
 294:Generated_Source\PSoC4/cyfitter_cfg.c **** 		static const uint32 CYCODE cy_cfg_addr_table[] = {
 295:Generated_Source\PSoC4/cyfitter_cfg.c **** 			0x400F0001u, /* Base address: 0x400F0000 Count: 1 */
 296:Generated_Source\PSoC4/cyfitter_cfg.c **** 			0x400F306Du, /* Base address: 0x400F3000 Count: 109 */
 297:Generated_Source\PSoC4/cyfitter_cfg.c **** 			0x400F3134u, /* Base address: 0x400F3100 Count: 52 */
 298:Generated_Source\PSoC4/cyfitter_cfg.c **** 			0x400F3243u, /* Base address: 0x400F3200 Count: 67 */
 299:Generated_Source\PSoC4/cyfitter_cfg.c **** 			0x400F3340u, /* Base address: 0x400F3300 Count: 64 */
 300:Generated_Source\PSoC4/cyfitter_cfg.c **** 			0x400F4013u, /* Base address: 0x400F4000 Count: 19 */
 301:Generated_Source\PSoC4/cyfitter_cfg.c **** 			0x400F410Bu, /* Base address: 0x400F4100 Count: 11 */
 302:Generated_Source\PSoC4/cyfitter_cfg.c **** 			0x400F4202u, /* Base address: 0x400F4200 Count: 2 */
 303:Generated_Source\PSoC4/cyfitter_cfg.c **** 			0x400F4314u, /* Base address: 0x400F4300 Count: 20 */
 304:Generated_Source\PSoC4/cyfitter_cfg.c **** 			0x400F6002u, /* Base address: 0x400F6000 Count: 2 */
 305:Generated_Source\PSoC4/cyfitter_cfg.c **** 		};
 306:Generated_Source\PSoC4/cyfitter_cfg.c **** 
 307:Generated_Source\PSoC4/cyfitter_cfg.c **** 		static const cy_cfg_addrvalue_t CYCODE cy_cfg_data_table[] = {
 308:Generated_Source\PSoC4/cyfitter_cfg.c **** 			{0x82u, 0x11u},
 309:Generated_Source\PSoC4/cyfitter_cfg.c **** 			{0x01u, 0x13u},
 310:Generated_Source\PSoC4/cyfitter_cfg.c **** 			{0x03u, 0x64u},
 311:Generated_Source\PSoC4/cyfitter_cfg.c **** 			{0x04u, 0x01u},
 312:Generated_Source\PSoC4/cyfitter_cfg.c **** 			{0x05u, 0x98u},
 313:Generated_Source\PSoC4/cyfitter_cfg.c **** 			{0x07u, 0x02u},
 314:Generated_Source\PSoC4/cyfitter_cfg.c **** 			{0x08u, 0x01u},
 315:Generated_Source\PSoC4/cyfitter_cfg.c **** 			{0x09u, 0x02u},
 316:Generated_Source\PSoC4/cyfitter_cfg.c **** 			{0x0Bu, 0x98u},
 317:Generated_Source\PSoC4/cyfitter_cfg.c **** 			{0x0Cu, 0x01u},
 318:Generated_Source\PSoC4/cyfitter_cfg.c **** 			{0x0Du, 0x98u},
 319:Generated_Source\PSoC4/cyfitter_cfg.c **** 			{0x0Fu, 0x02u},
 320:Generated_Source\PSoC4/cyfitter_cfg.c **** 			{0x10u, 0x01u},
 321:Generated_Source\PSoC4/cyfitter_cfg.c **** 			{0x14u, 0x02u},
 322:Generated_Source\PSoC4/cyfitter_cfg.c **** 			{0x15u, 0x21u},
 323:Generated_Source\PSoC4/cyfitter_cfg.c **** 			{0x17u, 0xD8u},
 324:Generated_Source\PSoC4/cyfitter_cfg.c **** 			{0x19u, 0x38u},
 325:Generated_Source\PSoC4/cyfitter_cfg.c **** 			{0x1Bu, 0xC0u},
 326:Generated_Source\PSoC4/cyfitter_cfg.c **** 			{0x1Du, 0x9Au},
 327:Generated_Source\PSoC4/cyfitter_cfg.c **** 			{0x1Eu, 0x01u},
 328:Generated_Source\PSoC4/cyfitter_cfg.c **** 			{0x21u, 0x9Au},
ARM GAS  C:\Users\quint\AppData\Local\Temp\ccooIXEm.s 			page 11


 329:Generated_Source\PSoC4/cyfitter_cfg.c **** 			{0x25u, 0x02u},
 330:Generated_Source\PSoC4/cyfitter_cfg.c **** 			{0x29u, 0xFCu},
 331:Generated_Source\PSoC4/cyfitter_cfg.c **** 			{0x2Bu, 0x03u},
 332:Generated_Source\PSoC4/cyfitter_cfg.c **** 			{0x2Eu, 0x01u},
 333:Generated_Source\PSoC4/cyfitter_cfg.c **** 			{0x30u, 0x02u},
 334:Generated_Source\PSoC4/cyfitter_cfg.c **** 			{0x32u, 0x01u},
 335:Generated_Source\PSoC4/cyfitter_cfg.c **** 			{0x33u, 0x0Fu},
 336:Generated_Source\PSoC4/cyfitter_cfg.c **** 			{0x35u, 0xE0u},
 337:Generated_Source\PSoC4/cyfitter_cfg.c **** 			{0x37u, 0x13u},
 338:Generated_Source\PSoC4/cyfitter_cfg.c **** 			{0x3Bu, 0x28u},
 339:Generated_Source\PSoC4/cyfitter_cfg.c **** 			{0x3Eu, 0x05u},
 340:Generated_Source\PSoC4/cyfitter_cfg.c **** 			{0x40u, 0x63u},
 341:Generated_Source\PSoC4/cyfitter_cfg.c **** 			{0x41u, 0x05u},
 342:Generated_Source\PSoC4/cyfitter_cfg.c **** 			{0x42u, 0x10u},
 343:Generated_Source\PSoC4/cyfitter_cfg.c **** 			{0x45u, 0xDEu},
 344:Generated_Source\PSoC4/cyfitter_cfg.c **** 			{0x46u, 0xF0u},
 345:Generated_Source\PSoC4/cyfitter_cfg.c **** 			{0x47u, 0xDCu},
 346:Generated_Source\PSoC4/cyfitter_cfg.c **** 			{0x48u, 0x3Bu},
 347:Generated_Source\PSoC4/cyfitter_cfg.c **** 			{0x49u, 0xFFu},
 348:Generated_Source\PSoC4/cyfitter_cfg.c **** 			{0x4Au, 0xFFu},
 349:Generated_Source\PSoC4/cyfitter_cfg.c **** 			{0x4Bu, 0xFFu},
 350:Generated_Source\PSoC4/cyfitter_cfg.c **** 			{0x4Cu, 0x02u},
 351:Generated_Source\PSoC4/cyfitter_cfg.c **** 			{0x4Eu, 0x70u},
 352:Generated_Source\PSoC4/cyfitter_cfg.c **** 			{0x4Fu, 0x08u},
 353:Generated_Source\PSoC4/cyfitter_cfg.c **** 			{0x50u, 0x04u},
 354:Generated_Source\PSoC4/cyfitter_cfg.c **** 			{0x54u, 0x40u},
 355:Generated_Source\PSoC4/cyfitter_cfg.c **** 			{0x58u, 0x04u},
 356:Generated_Source\PSoC4/cyfitter_cfg.c **** 			{0x59u, 0x04u},
 357:Generated_Source\PSoC4/cyfitter_cfg.c **** 			{0x5Au, 0x04u},
 358:Generated_Source\PSoC4/cyfitter_cfg.c **** 			{0x5Bu, 0x04u},
 359:Generated_Source\PSoC4/cyfitter_cfg.c **** 			{0x5Fu, 0x01u},
 360:Generated_Source\PSoC4/cyfitter_cfg.c **** 			{0x62u, 0xC0u},
 361:Generated_Source\PSoC4/cyfitter_cfg.c **** 			{0x64u, 0x40u},
 362:Generated_Source\PSoC4/cyfitter_cfg.c **** 			{0x65u, 0x01u},
 363:Generated_Source\PSoC4/cyfitter_cfg.c **** 			{0x66u, 0x10u},
 364:Generated_Source\PSoC4/cyfitter_cfg.c **** 			{0x67u, 0x11u},
 365:Generated_Source\PSoC4/cyfitter_cfg.c **** 			{0x68u, 0xC0u},
 366:Generated_Source\PSoC4/cyfitter_cfg.c **** 			{0x69u, 0x01u},
 367:Generated_Source\PSoC4/cyfitter_cfg.c **** 			{0x6Bu, 0x11u},
 368:Generated_Source\PSoC4/cyfitter_cfg.c **** 			{0x6Cu, 0x40u},
 369:Generated_Source\PSoC4/cyfitter_cfg.c **** 			{0x6Du, 0x01u},
 370:Generated_Source\PSoC4/cyfitter_cfg.c **** 			{0x6Eu, 0x40u},
 371:Generated_Source\PSoC4/cyfitter_cfg.c **** 			{0x6Fu, 0x01u},
 372:Generated_Source\PSoC4/cyfitter_cfg.c **** 			{0x94u, 0x24u},
 373:Generated_Source\PSoC4/cyfitter_cfg.c **** 			{0x95u, 0x01u},
 374:Generated_Source\PSoC4/cyfitter_cfg.c **** 			{0x96u, 0xC8u},
 375:Generated_Source\PSoC4/cyfitter_cfg.c **** 			{0x98u, 0x70u},
 376:Generated_Source\PSoC4/cyfitter_cfg.c **** 			{0x9Cu, 0x19u},
 377:Generated_Source\PSoC4/cyfitter_cfg.c **** 			{0x9Eu, 0xA2u},
 378:Generated_Source\PSoC4/cyfitter_cfg.c **** 			{0xA4u, 0xAEu},
 379:Generated_Source\PSoC4/cyfitter_cfg.c **** 			{0xA6u, 0x51u},
 380:Generated_Source\PSoC4/cyfitter_cfg.c **** 			{0xA8u, 0x04u},
 381:Generated_Source\PSoC4/cyfitter_cfg.c **** 			{0xB1u, 0x01u},
 382:Generated_Source\PSoC4/cyfitter_cfg.c **** 			{0xB2u, 0x07u},
 383:Generated_Source\PSoC4/cyfitter_cfg.c **** 			{0xB4u, 0x78u},
 384:Generated_Source\PSoC4/cyfitter_cfg.c **** 			{0xB6u, 0x80u},
 385:Generated_Source\PSoC4/cyfitter_cfg.c **** 			{0xB8u, 0x20u},
ARM GAS  C:\Users\quint\AppData\Local\Temp\ccooIXEm.s 			page 12


 386:Generated_Source\PSoC4/cyfitter_cfg.c **** 			{0xB9u, 0x20u},
 387:Generated_Source\PSoC4/cyfitter_cfg.c **** 			{0xBAu, 0x08u},
 388:Generated_Source\PSoC4/cyfitter_cfg.c **** 			{0xBEu, 0x40u},
 389:Generated_Source\PSoC4/cyfitter_cfg.c **** 			{0xBFu, 0x11u},
 390:Generated_Source\PSoC4/cyfitter_cfg.c **** 			{0xC0u, 0x63u},
 391:Generated_Source\PSoC4/cyfitter_cfg.c **** 			{0xC1u, 0x04u},
 392:Generated_Source\PSoC4/cyfitter_cfg.c **** 			{0xC2u, 0x10u},
 393:Generated_Source\PSoC4/cyfitter_cfg.c **** 			{0xC6u, 0x0Bu},
 394:Generated_Source\PSoC4/cyfitter_cfg.c **** 			{0xC8u, 0x04u},
 395:Generated_Source\PSoC4/cyfitter_cfg.c **** 			{0xC9u, 0x01u},
 396:Generated_Source\PSoC4/cyfitter_cfg.c **** 			{0xCAu, 0xFFu},
 397:Generated_Source\PSoC4/cyfitter_cfg.c **** 			{0xCBu, 0xFFu},
 398:Generated_Source\PSoC4/cyfitter_cfg.c **** 			{0xCCu, 0x23u},
 399:Generated_Source\PSoC4/cyfitter_cfg.c **** 			{0xCEu, 0x80u},
 400:Generated_Source\PSoC4/cyfitter_cfg.c **** 			{0xCFu, 0x08u},
 401:Generated_Source\PSoC4/cyfitter_cfg.c **** 			{0xD0u, 0x04u},
 402:Generated_Source\PSoC4/cyfitter_cfg.c **** 			{0xD8u, 0x04u},
 403:Generated_Source\PSoC4/cyfitter_cfg.c **** 			{0xD9u, 0x04u},
 404:Generated_Source\PSoC4/cyfitter_cfg.c **** 			{0xDAu, 0x04u},
 405:Generated_Source\PSoC4/cyfitter_cfg.c **** 			{0xDFu, 0x01u},
 406:Generated_Source\PSoC4/cyfitter_cfg.c **** 			{0xE2u, 0xC0u},
 407:Generated_Source\PSoC4/cyfitter_cfg.c **** 			{0xE4u, 0x40u},
 408:Generated_Source\PSoC4/cyfitter_cfg.c **** 			{0xE5u, 0x01u},
 409:Generated_Source\PSoC4/cyfitter_cfg.c **** 			{0xE6u, 0x10u},
 410:Generated_Source\PSoC4/cyfitter_cfg.c **** 			{0xE7u, 0x11u},
 411:Generated_Source\PSoC4/cyfitter_cfg.c **** 			{0xE8u, 0xC0u},
 412:Generated_Source\PSoC4/cyfitter_cfg.c **** 			{0xE9u, 0x01u},
 413:Generated_Source\PSoC4/cyfitter_cfg.c **** 			{0xEBu, 0x11u},
 414:Generated_Source\PSoC4/cyfitter_cfg.c **** 			{0xECu, 0x40u},
 415:Generated_Source\PSoC4/cyfitter_cfg.c **** 			{0xEDu, 0x01u},
 416:Generated_Source\PSoC4/cyfitter_cfg.c **** 			{0xEEu, 0x40u},
 417:Generated_Source\PSoC4/cyfitter_cfg.c **** 			{0xEFu, 0x01u},
 418:Generated_Source\PSoC4/cyfitter_cfg.c **** 			{0x01u, 0x14u},
 419:Generated_Source\PSoC4/cyfitter_cfg.c **** 			{0x03u, 0x01u},
 420:Generated_Source\PSoC4/cyfitter_cfg.c **** 			{0x08u, 0x08u},
 421:Generated_Source\PSoC4/cyfitter_cfg.c **** 			{0x09u, 0x41u},
 422:Generated_Source\PSoC4/cyfitter_cfg.c **** 			{0x0Eu, 0x28u},
 423:Generated_Source\PSoC4/cyfitter_cfg.c **** 			{0x0Fu, 0x01u},
 424:Generated_Source\PSoC4/cyfitter_cfg.c **** 			{0x10u, 0x02u},
 425:Generated_Source\PSoC4/cyfitter_cfg.c **** 			{0x15u, 0x08u},
 426:Generated_Source\PSoC4/cyfitter_cfg.c **** 			{0x16u, 0x04u},
 427:Generated_Source\PSoC4/cyfitter_cfg.c **** 			{0x17u, 0x10u},
 428:Generated_Source\PSoC4/cyfitter_cfg.c **** 			{0x18u, 0x90u},
 429:Generated_Source\PSoC4/cyfitter_cfg.c **** 			{0x1Du, 0x48u},
 430:Generated_Source\PSoC4/cyfitter_cfg.c **** 			{0x1Eu, 0x28u},
 431:Generated_Source\PSoC4/cyfitter_cfg.c **** 			{0x1Fu, 0x08u},
 432:Generated_Source\PSoC4/cyfitter_cfg.c **** 			{0x20u, 0x0Au},
 433:Generated_Source\PSoC4/cyfitter_cfg.c **** 			{0x21u, 0x04u},
 434:Generated_Source\PSoC4/cyfitter_cfg.c **** 			{0x22u, 0x18u},
 435:Generated_Source\PSoC4/cyfitter_cfg.c **** 			{0x23u, 0x03u},
 436:Generated_Source\PSoC4/cyfitter_cfg.c **** 			{0x24u, 0x04u},
 437:Generated_Source\PSoC4/cyfitter_cfg.c **** 			{0x27u, 0x80u},
 438:Generated_Source\PSoC4/cyfitter_cfg.c **** 			{0x2Au, 0x05u},
 439:Generated_Source\PSoC4/cyfitter_cfg.c **** 			{0x2Bu, 0x08u},
 440:Generated_Source\PSoC4/cyfitter_cfg.c **** 			{0x32u, 0x18u},
 441:Generated_Source\PSoC4/cyfitter_cfg.c **** 			{0x33u, 0x40u},
 442:Generated_Source\PSoC4/cyfitter_cfg.c **** 			{0x37u, 0x08u},
ARM GAS  C:\Users\quint\AppData\Local\Temp\ccooIXEm.s 			page 13


 443:Generated_Source\PSoC4/cyfitter_cfg.c **** 			{0x39u, 0x54u},
 444:Generated_Source\PSoC4/cyfitter_cfg.c **** 			{0x3Bu, 0x01u},
 445:Generated_Source\PSoC4/cyfitter_cfg.c **** 			{0x41u, 0x88u},
 446:Generated_Source\PSoC4/cyfitter_cfg.c **** 			{0x45u, 0x88u},
 447:Generated_Source\PSoC4/cyfitter_cfg.c **** 			{0x47u, 0x02u},
 448:Generated_Source\PSoC4/cyfitter_cfg.c **** 			{0x48u, 0x01u},
 449:Generated_Source\PSoC4/cyfitter_cfg.c **** 			{0x49u, 0x04u},
 450:Generated_Source\PSoC4/cyfitter_cfg.c **** 			{0x4Au, 0x88u},
 451:Generated_Source\PSoC4/cyfitter_cfg.c **** 			{0x4Eu, 0x08u},
 452:Generated_Source\PSoC4/cyfitter_cfg.c **** 			{0x50u, 0x02u},
 453:Generated_Source\PSoC4/cyfitter_cfg.c **** 			{0x52u, 0x14u},
 454:Generated_Source\PSoC4/cyfitter_cfg.c **** 			{0x56u, 0x40u},
 455:Generated_Source\PSoC4/cyfitter_cfg.c **** 			{0x60u, 0x10u},
 456:Generated_Source\PSoC4/cyfitter_cfg.c **** 			{0x62u, 0x90u},
 457:Generated_Source\PSoC4/cyfitter_cfg.c **** 			{0x82u, 0x04u},
 458:Generated_Source\PSoC4/cyfitter_cfg.c **** 			{0x87u, 0x80u},
 459:Generated_Source\PSoC4/cyfitter_cfg.c **** 			{0x8Cu, 0x40u},
 460:Generated_Source\PSoC4/cyfitter_cfg.c **** 			{0xC0u, 0x07u},
 461:Generated_Source\PSoC4/cyfitter_cfg.c **** 			{0xC2u, 0xEDu},
 462:Generated_Source\PSoC4/cyfitter_cfg.c **** 			{0xC4u, 0x61u},
 463:Generated_Source\PSoC4/cyfitter_cfg.c **** 			{0xCAu, 0x07u},
 464:Generated_Source\PSoC4/cyfitter_cfg.c **** 			{0xCCu, 0x4Eu},
 465:Generated_Source\PSoC4/cyfitter_cfg.c **** 			{0xCEu, 0x0Fu},
 466:Generated_Source\PSoC4/cyfitter_cfg.c **** 			{0xD0u, 0xDAu},
 467:Generated_Source\PSoC4/cyfitter_cfg.c **** 			{0xD2u, 0x2Cu},
 468:Generated_Source\PSoC4/cyfitter_cfg.c **** 			{0xD8u, 0x0Eu},
 469:Generated_Source\PSoC4/cyfitter_cfg.c **** 			{0xE6u, 0x10u},
 470:Generated_Source\PSoC4/cyfitter_cfg.c **** 			{0x00u, 0x34u},
 471:Generated_Source\PSoC4/cyfitter_cfg.c **** 			{0x02u, 0x02u},
 472:Generated_Source\PSoC4/cyfitter_cfg.c **** 			{0x04u, 0x01u},
 473:Generated_Source\PSoC4/cyfitter_cfg.c **** 			{0x0Au, 0x80u},
 474:Generated_Source\PSoC4/cyfitter_cfg.c **** 			{0x0Cu, 0x36u},
 475:Generated_Source\PSoC4/cyfitter_cfg.c **** 			{0x10u, 0x08u},
 476:Generated_Source\PSoC4/cyfitter_cfg.c **** 			{0x11u, 0x03u},
 477:Generated_Source\PSoC4/cyfitter_cfg.c **** 			{0x12u, 0x34u},
 478:Generated_Source\PSoC4/cyfitter_cfg.c **** 			{0x13u, 0x0Cu},
 479:Generated_Source\PSoC4/cyfitter_cfg.c **** 			{0x14u, 0x08u},
 480:Generated_Source\PSoC4/cyfitter_cfg.c **** 			{0x15u, 0x05u},
 481:Generated_Source\PSoC4/cyfitter_cfg.c **** 			{0x16u, 0xE0u},
 482:Generated_Source\PSoC4/cyfitter_cfg.c **** 			{0x17u, 0x0Au},
 483:Generated_Source\PSoC4/cyfitter_cfg.c **** 			{0x18u, 0x36u},
 484:Generated_Source\PSoC4/cyfitter_cfg.c **** 			{0x19u, 0x09u},
 485:Generated_Source\PSoC4/cyfitter_cfg.c **** 			{0x1Bu, 0x06u},
 486:Generated_Source\PSoC4/cyfitter_cfg.c **** 			{0x1Cu, 0x36u},
 487:Generated_Source\PSoC4/cyfitter_cfg.c **** 			{0x1Du, 0x02u},
 488:Generated_Source\PSoC4/cyfitter_cfg.c **** 			{0x1Fu, 0x0Du},
 489:Generated_Source\PSoC4/cyfitter_cfg.c **** 			{0x20u, 0x44u},
 490:Generated_Source\PSoC4/cyfitter_cfg.c **** 			{0x22u, 0x08u},
 491:Generated_Source\PSoC4/cyfitter_cfg.c **** 			{0x24u, 0x08u},
 492:Generated_Source\PSoC4/cyfitter_cfg.c **** 			{0x26u, 0xD0u},
 493:Generated_Source\PSoC4/cyfitter_cfg.c **** 			{0x28u, 0x36u},
 494:Generated_Source\PSoC4/cyfitter_cfg.c **** 			{0x30u, 0x3Cu},
 495:Generated_Source\PSoC4/cyfitter_cfg.c **** 			{0x31u, 0x0Fu},
 496:Generated_Source\PSoC4/cyfitter_cfg.c **** 			{0x32u, 0xC0u},
 497:Generated_Source\PSoC4/cyfitter_cfg.c **** 			{0x34u, 0x01u},
 498:Generated_Source\PSoC4/cyfitter_cfg.c **** 			{0x35u, 0x0Fu},
 499:Generated_Source\PSoC4/cyfitter_cfg.c **** 			{0x36u, 0x02u},
ARM GAS  C:\Users\quint\AppData\Local\Temp\ccooIXEm.s 			page 14


 500:Generated_Source\PSoC4/cyfitter_cfg.c **** 			{0x3Au, 0x02u},
 501:Generated_Source\PSoC4/cyfitter_cfg.c **** 			{0x3Bu, 0x22u},
 502:Generated_Source\PSoC4/cyfitter_cfg.c **** 			{0x3Eu, 0x50u},
 503:Generated_Source\PSoC4/cyfitter_cfg.c **** 			{0x56u, 0x02u},
 504:Generated_Source\PSoC4/cyfitter_cfg.c **** 			{0x57u, 0x24u},
 505:Generated_Source\PSoC4/cyfitter_cfg.c **** 			{0x58u, 0x04u},
 506:Generated_Source\PSoC4/cyfitter_cfg.c **** 			{0x59u, 0x04u},
 507:Generated_Source\PSoC4/cyfitter_cfg.c **** 			{0x5Bu, 0x04u},
 508:Generated_Source\PSoC4/cyfitter_cfg.c **** 			{0x5Fu, 0x01u},
 509:Generated_Source\PSoC4/cyfitter_cfg.c **** 			{0x80u, 0x60u},
 510:Generated_Source\PSoC4/cyfitter_cfg.c **** 			{0x84u, 0x04u},
 511:Generated_Source\PSoC4/cyfitter_cfg.c **** 			{0x88u, 0x01u},
 512:Generated_Source\PSoC4/cyfitter_cfg.c **** 			{0x8Cu, 0x04u},
 513:Generated_Source\PSoC4/cyfitter_cfg.c **** 			{0x90u, 0x04u},
 514:Generated_Source\PSoC4/cyfitter_cfg.c **** 			{0x94u, 0x56u},
 515:Generated_Source\PSoC4/cyfitter_cfg.c **** 			{0x96u, 0x09u},
 516:Generated_Source\PSoC4/cyfitter_cfg.c **** 			{0x9Au, 0x04u},
 517:Generated_Source\PSoC4/cyfitter_cfg.c **** 			{0x9Cu, 0x04u},
 518:Generated_Source\PSoC4/cyfitter_cfg.c **** 			{0x9Du, 0x01u},
 519:Generated_Source\PSoC4/cyfitter_cfg.c **** 			{0xA0u, 0x07u},
 520:Generated_Source\PSoC4/cyfitter_cfg.c **** 			{0xA2u, 0x38u},
 521:Generated_Source\PSoC4/cyfitter_cfg.c **** 			{0xA4u, 0x04u},
 522:Generated_Source\PSoC4/cyfitter_cfg.c **** 			{0xA8u, 0x0Au},
 523:Generated_Source\PSoC4/cyfitter_cfg.c **** 			{0xAAu, 0x10u},
 524:Generated_Source\PSoC4/cyfitter_cfg.c **** 			{0xACu, 0x80u},
 525:Generated_Source\PSoC4/cyfitter_cfg.c **** 			{0xB1u, 0x01u},
 526:Generated_Source\PSoC4/cyfitter_cfg.c **** 			{0xB2u, 0x80u},
 527:Generated_Source\PSoC4/cyfitter_cfg.c **** 			{0xB4u, 0x7Fu},
 528:Generated_Source\PSoC4/cyfitter_cfg.c **** 			{0xB6u, 0x02u},
 529:Generated_Source\PSoC4/cyfitter_cfg.c **** 			{0xB8u, 0x20u},
 530:Generated_Source\PSoC4/cyfitter_cfg.c **** 			{0xBEu, 0x44u},
 531:Generated_Source\PSoC4/cyfitter_cfg.c **** 			{0xBFu, 0x01u},
 532:Generated_Source\PSoC4/cyfitter_cfg.c **** 			{0xD4u, 0x09u},
 533:Generated_Source\PSoC4/cyfitter_cfg.c **** 			{0xD8u, 0x04u},
 534:Generated_Source\PSoC4/cyfitter_cfg.c **** 			{0xD9u, 0x04u},
 535:Generated_Source\PSoC4/cyfitter_cfg.c **** 			{0xDBu, 0x04u},
 536:Generated_Source\PSoC4/cyfitter_cfg.c **** 			{0xDFu, 0x01u},
 537:Generated_Source\PSoC4/cyfitter_cfg.c **** 			{0x00u, 0x08u},
 538:Generated_Source\PSoC4/cyfitter_cfg.c **** 			{0x01u, 0x20u},
 539:Generated_Source\PSoC4/cyfitter_cfg.c **** 			{0x02u, 0x41u},
 540:Generated_Source\PSoC4/cyfitter_cfg.c **** 			{0x04u, 0x12u},
 541:Generated_Source\PSoC4/cyfitter_cfg.c **** 			{0x07u, 0x21u},
 542:Generated_Source\PSoC4/cyfitter_cfg.c **** 			{0x09u, 0x59u},
 543:Generated_Source\PSoC4/cyfitter_cfg.c **** 			{0x0Du, 0x08u},
 544:Generated_Source\PSoC4/cyfitter_cfg.c **** 			{0x0Eu, 0x4Au},
 545:Generated_Source\PSoC4/cyfitter_cfg.c **** 			{0x11u, 0x04u},
 546:Generated_Source\PSoC4/cyfitter_cfg.c **** 			{0x12u, 0x0Au},
 547:Generated_Source\PSoC4/cyfitter_cfg.c **** 			{0x13u, 0x02u},
 548:Generated_Source\PSoC4/cyfitter_cfg.c **** 			{0x15u, 0x18u},
 549:Generated_Source\PSoC4/cyfitter_cfg.c **** 			{0x17u, 0x02u},
 550:Generated_Source\PSoC4/cyfitter_cfg.c **** 			{0x18u, 0x21u},
 551:Generated_Source\PSoC4/cyfitter_cfg.c **** 			{0x19u, 0x30u},
 552:Generated_Source\PSoC4/cyfitter_cfg.c **** 			{0x1Cu, 0x10u},
 553:Generated_Source\PSoC4/cyfitter_cfg.c **** 			{0x1Du, 0x80u},
 554:Generated_Source\PSoC4/cyfitter_cfg.c **** 			{0x1Eu, 0x41u},
 555:Generated_Source\PSoC4/cyfitter_cfg.c **** 			{0x1Fu, 0x10u},
 556:Generated_Source\PSoC4/cyfitter_cfg.c **** 			{0x21u, 0x02u},
ARM GAS  C:\Users\quint\AppData\Local\Temp\ccooIXEm.s 			page 15


 557:Generated_Source\PSoC4/cyfitter_cfg.c **** 			{0x27u, 0x84u},
 558:Generated_Source\PSoC4/cyfitter_cfg.c **** 			{0x32u, 0x80u},
 559:Generated_Source\PSoC4/cyfitter_cfg.c **** 			{0x36u, 0x18u},
 560:Generated_Source\PSoC4/cyfitter_cfg.c **** 			{0x37u, 0x82u},
 561:Generated_Source\PSoC4/cyfitter_cfg.c **** 			{0x46u, 0x20u},
 562:Generated_Source\PSoC4/cyfitter_cfg.c **** 			{0x47u, 0x04u},
 563:Generated_Source\PSoC4/cyfitter_cfg.c **** 			{0x59u, 0x44u},
 564:Generated_Source\PSoC4/cyfitter_cfg.c **** 			{0x5Au, 0x01u},
 565:Generated_Source\PSoC4/cyfitter_cfg.c **** 			{0x5Bu, 0x10u},
 566:Generated_Source\PSoC4/cyfitter_cfg.c **** 			{0x60u, 0x01u},
 567:Generated_Source\PSoC4/cyfitter_cfg.c **** 			{0x66u, 0x20u},
 568:Generated_Source\PSoC4/cyfitter_cfg.c **** 			{0x6Cu, 0x01u},
 569:Generated_Source\PSoC4/cyfitter_cfg.c **** 			{0x6Du, 0xF6u},
 570:Generated_Source\PSoC4/cyfitter_cfg.c **** 			{0x6Eu, 0x0Au},
 571:Generated_Source\PSoC4/cyfitter_cfg.c **** 			{0x6Fu, 0x40u},
 572:Generated_Source\PSoC4/cyfitter_cfg.c **** 			{0x76u, 0x01u},
 573:Generated_Source\PSoC4/cyfitter_cfg.c **** 			{0x77u, 0x01u},
 574:Generated_Source\PSoC4/cyfitter_cfg.c **** 			{0x80u, 0x10u},
 575:Generated_Source\PSoC4/cyfitter_cfg.c **** 			{0x83u, 0x20u},
 576:Generated_Source\PSoC4/cyfitter_cfg.c **** 			{0x85u, 0x02u},
 577:Generated_Source\PSoC4/cyfitter_cfg.c **** 			{0x87u, 0x10u},
 578:Generated_Source\PSoC4/cyfitter_cfg.c **** 			{0x8Au, 0x82u},
 579:Generated_Source\PSoC4/cyfitter_cfg.c **** 			{0x8Cu, 0x10u},
 580:Generated_Source\PSoC4/cyfitter_cfg.c **** 			{0x8Du, 0x10u},
 581:Generated_Source\PSoC4/cyfitter_cfg.c **** 			{0x91u, 0x08u},
 582:Generated_Source\PSoC4/cyfitter_cfg.c **** 			{0x95u, 0x54u},
 583:Generated_Source\PSoC4/cyfitter_cfg.c **** 			{0x99u, 0x44u},
 584:Generated_Source\PSoC4/cyfitter_cfg.c **** 			{0x9Au, 0x40u},
 585:Generated_Source\PSoC4/cyfitter_cfg.c **** 			{0x9Bu, 0x12u},
 586:Generated_Source\PSoC4/cyfitter_cfg.c **** 			{0x9Eu, 0x01u},
 587:Generated_Source\PSoC4/cyfitter_cfg.c **** 			{0x9Fu, 0x41u},
 588:Generated_Source\PSoC4/cyfitter_cfg.c **** 			{0xA0u, 0x04u},
 589:Generated_Source\PSoC4/cyfitter_cfg.c **** 			{0xA1u, 0x08u},
 590:Generated_Source\PSoC4/cyfitter_cfg.c **** 			{0xA2u, 0x18u},
 591:Generated_Source\PSoC4/cyfitter_cfg.c **** 			{0xA5u, 0xC1u},
 592:Generated_Source\PSoC4/cyfitter_cfg.c **** 			{0xAFu, 0x08u},
 593:Generated_Source\PSoC4/cyfitter_cfg.c **** 			{0xB0u, 0x08u},
 594:Generated_Source\PSoC4/cyfitter_cfg.c **** 			{0xB4u, 0x04u},
 595:Generated_Source\PSoC4/cyfitter_cfg.c **** 			{0xC0u, 0xFFu},
 596:Generated_Source\PSoC4/cyfitter_cfg.c **** 			{0xC2u, 0xFFu},
 597:Generated_Source\PSoC4/cyfitter_cfg.c **** 			{0xC4u, 0x7Fu},
 598:Generated_Source\PSoC4/cyfitter_cfg.c **** 			{0xCCu, 0xF8u},
 599:Generated_Source\PSoC4/cyfitter_cfg.c **** 			{0xD6u, 0x0Fu},
 600:Generated_Source\PSoC4/cyfitter_cfg.c **** 			{0xD8u, 0x28u},
 601:Generated_Source\PSoC4/cyfitter_cfg.c **** 			{0x02u, 0x40u},
 602:Generated_Source\PSoC4/cyfitter_cfg.c **** 			{0x0Cu, 0x20u},
 603:Generated_Source\PSoC4/cyfitter_cfg.c **** 			{0x66u, 0x02u},
 604:Generated_Source\PSoC4/cyfitter_cfg.c **** 			{0x68u, 0x80u},
 605:Generated_Source\PSoC4/cyfitter_cfg.c **** 			{0x6Fu, 0x08u},
 606:Generated_Source\PSoC4/cyfitter_cfg.c **** 			{0x73u, 0x80u},
 607:Generated_Source\PSoC4/cyfitter_cfg.c **** 			{0x77u, 0x01u},
 608:Generated_Source\PSoC4/cyfitter_cfg.c **** 			{0x7Eu, 0x02u},
 609:Generated_Source\PSoC4/cyfitter_cfg.c **** 			{0x82u, 0x02u},
 610:Generated_Source\PSoC4/cyfitter_cfg.c **** 			{0x87u, 0x01u},
 611:Generated_Source\PSoC4/cyfitter_cfg.c **** 			{0x8Eu, 0x02u},
 612:Generated_Source\PSoC4/cyfitter_cfg.c **** 			{0xC0u, 0x10u},
 613:Generated_Source\PSoC4/cyfitter_cfg.c **** 			{0xC2u, 0x80u},
ARM GAS  C:\Users\quint\AppData\Local\Temp\ccooIXEm.s 			page 16


 614:Generated_Source\PSoC4/cyfitter_cfg.c **** 			{0xD8u, 0x80u},
 615:Generated_Source\PSoC4/cyfitter_cfg.c **** 			{0xDAu, 0x80u},
 616:Generated_Source\PSoC4/cyfitter_cfg.c **** 			{0xDCu, 0xE0u},
 617:Generated_Source\PSoC4/cyfitter_cfg.c **** 			{0xDEu, 0x20u},
 618:Generated_Source\PSoC4/cyfitter_cfg.c **** 			{0xE2u, 0x40u},
 619:Generated_Source\PSoC4/cyfitter_cfg.c **** 			{0xE6u, 0x20u},
 620:Generated_Source\PSoC4/cyfitter_cfg.c **** 			{0x80u, 0xA0u},
 621:Generated_Source\PSoC4/cyfitter_cfg.c **** 			{0x87u, 0x88u},
 622:Generated_Source\PSoC4/cyfitter_cfg.c **** 			{0x9Fu, 0x80u},
 623:Generated_Source\PSoC4/cyfitter_cfg.c **** 			{0xA0u, 0x20u},
 624:Generated_Source\PSoC4/cyfitter_cfg.c **** 			{0xA4u, 0x80u},
 625:Generated_Source\PSoC4/cyfitter_cfg.c **** 			{0xA7u, 0x08u},
 626:Generated_Source\PSoC4/cyfitter_cfg.c **** 			{0xAEu, 0x40u},
 627:Generated_Source\PSoC4/cyfitter_cfg.c **** 			{0xE0u, 0x80u},
 628:Generated_Source\PSoC4/cyfitter_cfg.c **** 			{0xE2u, 0x60u},
 629:Generated_Source\PSoC4/cyfitter_cfg.c **** 			{0xE6u, 0x40u},
 630:Generated_Source\PSoC4/cyfitter_cfg.c **** 			{0xE8u, 0x10u},
 631:Generated_Source\PSoC4/cyfitter_cfg.c **** 			{0x0Bu, 0x08u},
 632:Generated_Source\PSoC4/cyfitter_cfg.c **** 			{0xC2u, 0x02u},
 633:Generated_Source\PSoC4/cyfitter_cfg.c **** 			{0x0Du, 0x10u},
 634:Generated_Source\PSoC4/cyfitter_cfg.c **** 			{0x0Eu, 0x20u},
 635:Generated_Source\PSoC4/cyfitter_cfg.c **** 			{0x54u, 0x02u},
 636:Generated_Source\PSoC4/cyfitter_cfg.c **** 			{0x5Du, 0x08u},
 637:Generated_Source\PSoC4/cyfitter_cfg.c **** 			{0x64u, 0x80u},
 638:Generated_Source\PSoC4/cyfitter_cfg.c **** 			{0x89u, 0x10u},
 639:Generated_Source\PSoC4/cyfitter_cfg.c **** 			{0x8Au, 0x10u},
 640:Generated_Source\PSoC4/cyfitter_cfg.c **** 			{0x8Cu, 0x80u},
 641:Generated_Source\PSoC4/cyfitter_cfg.c **** 			{0x8Du, 0x08u},
 642:Generated_Source\PSoC4/cyfitter_cfg.c **** 			{0xA0u, 0x02u},
 643:Generated_Source\PSoC4/cyfitter_cfg.c **** 			{0xB3u, 0x04u},
 644:Generated_Source\PSoC4/cyfitter_cfg.c **** 			{0xB4u, 0x02u},
 645:Generated_Source\PSoC4/cyfitter_cfg.c **** 			{0xC2u, 0x05u},
 646:Generated_Source\PSoC4/cyfitter_cfg.c **** 			{0xD6u, 0x05u},
 647:Generated_Source\PSoC4/cyfitter_cfg.c **** 			{0xD8u, 0x01u},
 648:Generated_Source\PSoC4/cyfitter_cfg.c **** 			{0xE0u, 0x0Au},
 649:Generated_Source\PSoC4/cyfitter_cfg.c **** 			{0xE2u, 0x01u},
 650:Generated_Source\PSoC4/cyfitter_cfg.c **** 			{0xE6u, 0x04u},
 651:Generated_Source\PSoC4/cyfitter_cfg.c **** 			{0xEAu, 0x01u},
 652:Generated_Source\PSoC4/cyfitter_cfg.c **** 			{0xECu, 0x02u},
 653:Generated_Source\PSoC4/cyfitter_cfg.c **** 			{0x01u, 0x01u},
 654:Generated_Source\PSoC4/cyfitter_cfg.c **** 			{0x10u, 0x01u},
 655:Generated_Source\PSoC4/cyfitter_cfg.c **** 		};
 656:Generated_Source\PSoC4/cyfitter_cfg.c **** 
 657:Generated_Source\PSoC4/cyfitter_cfg.c **** 
 658:Generated_Source\PSoC4/cyfitter_cfg.c **** 
 659:Generated_Source\PSoC4/cyfitter_cfg.c **** 		CYPACKED typedef struct {
 660:Generated_Source\PSoC4/cyfitter_cfg.c **** 			void CYFAR *address;
 661:Generated_Source\PSoC4/cyfitter_cfg.c **** 			uint16 size;
 662:Generated_Source\PSoC4/cyfitter_cfg.c **** 		} CYPACKED_ATTR cfg_memset_t;
 663:Generated_Source\PSoC4/cyfitter_cfg.c **** 
 664:Generated_Source\PSoC4/cyfitter_cfg.c **** 		static const cfg_memset_t CYCODE cfg_memset_list[] = {
 665:Generated_Source\PSoC4/cyfitter_cfg.c **** 			/* address, size */
 666:Generated_Source\PSoC4/cyfitter_cfg.c **** 			{(void CYFAR *)(CYDEV_UDB_P0_U0_BASE), 1024u},
 667:Generated_Source\PSoC4/cyfitter_cfg.c **** 			{(void CYFAR *)(CYDEV_UDB_DSI0_BASE), 1024u},
 668:Generated_Source\PSoC4/cyfitter_cfg.c **** 		};
 669:Generated_Source\PSoC4/cyfitter_cfg.c **** 
 670:Generated_Source\PSoC4/cyfitter_cfg.c **** 		uint8 CYDATA i;
ARM GAS  C:\Users\quint\AppData\Local\Temp\ccooIXEm.s 			page 17


 671:Generated_Source\PSoC4/cyfitter_cfg.c **** 
 672:Generated_Source\PSoC4/cyfitter_cfg.c **** 		/* Zero out critical memory blocks before beginning configuration */
 673:Generated_Source\PSoC4/cyfitter_cfg.c **** 		for (i = 0u; i < (sizeof(cfg_memset_list)/sizeof(cfg_memset_list[0])); i++)
 237              		.loc 1 673 0
 238 0082 0024     		movs	r4, #0
 239 0084 0FE0     		b	.L11
 240              	.LVL19:
 241              	.L12:
 242              	.LBB4:
 674:Generated_Source\PSoC4/cyfitter_cfg.c **** 		{
 675:Generated_Source\PSoC4/cyfitter_cfg.c **** 			const cfg_memset_t CYCODE * CYDATA ms = &cfg_memset_list[i];
 676:Generated_Source\PSoC4/cyfitter_cfg.c **** 			CYMEMZERO(ms->address, (size_t)(uint32)(ms->size));
 243              		.loc 1 676 0 discriminator 3
 244 0086 2D48     		ldr	r0, .L13+4
 245 0088 6200     		lsls	r2, r4, #1
 246 008a 1319     		adds	r3, r2, r4
 247 008c 5900     		lsls	r1, r3, #1
 248 008e 0B00     		movs	r3, r1
 249 0090 4118     		adds	r1, r0, r1
 250 0092 8988     		ldrh	r1, [r1, #4]
 251 0094 1A5A     		ldrh	r2, [r3, r0]
 252 0096 C318     		adds	r3, r0, r3
 253 0098 5888     		ldrh	r0, [r3, #2]
 254 009a 0004     		lsls	r0, r0, #16
 255 009c 1043     		orrs	r0, r2
 256 009e FFF7FEFF 		bl	CYMEMZERO
 257              	.LVL20:
 258              	.LBE4:
 673:Generated_Source\PSoC4/cyfitter_cfg.c **** 		{
 259              		.loc 1 673 0 discriminator 3
 260 00a2 0134     		adds	r4, r4, #1
 261              	.LVL21:
 262 00a4 E4B2     		uxtb	r4, r4
 263              	.LVL22:
 264              	.L11:
 673:Generated_Source\PSoC4/cyfitter_cfg.c **** 		{
 265              		.loc 1 673 0 is_stmt 0 discriminator 1
 266 00a6 012C     		cmp	r4, #1
 267 00a8 EDD9     		bls	.L12
 677:Generated_Source\PSoC4/cyfitter_cfg.c **** 		}
 678:Generated_Source\PSoC4/cyfitter_cfg.c **** 
 679:Generated_Source\PSoC4/cyfitter_cfg.c **** 		cfg_write_bytes32(cy_cfg_addr_table, cy_cfg_data_table);
 268              		.loc 1 679 0 is_stmt 1
 269 00aa 2449     		ldr	r1, .L13+4
 270 00ac 0C31     		adds	r1, r1, #12
 271 00ae 2448     		ldr	r0, .L13+8
 272 00b0 4430     		adds	r0, r0, #68
 273 00b2 FFF7FEFF 		bl	cfg_write_bytes32
 274              	.LVL23:
 680:Generated_Source\PSoC4/cyfitter_cfg.c **** 
 681:Generated_Source\PSoC4/cyfitter_cfg.c **** 		/* HSIOM Starting address: CYDEV_HSIOM_BASE */
 682:Generated_Source\PSoC4/cyfitter_cfg.c **** 		CY_SET_REG32((void *)(CYDEV_HSIOM_BASE), 0x03000000u);
 275              		.loc 1 682 0
 276 00b6 C022     		movs	r2, #192
 277 00b8 9204     		lsls	r2, r2, #18
 278 00ba 224B     		ldr	r3, .L13+12
 279 00bc 1A60     		str	r2, [r3]
ARM GAS  C:\Users\quint\AppData\Local\Temp\ccooIXEm.s 			page 18


 683:Generated_Source\PSoC4/cyfitter_cfg.c **** 		CY_SET_REG32((void *)(CYREG_HSIOM_PORT_SEL3), 0x0303EE03u);
 280              		.loc 1 683 0
 281 00be 224A     		ldr	r2, .L13+16
 282 00c0 224B     		ldr	r3, .L13+20
 283 00c2 1A60     		str	r2, [r3]
 684:Generated_Source\PSoC4/cyfitter_cfg.c **** 
 685:Generated_Source\PSoC4/cyfitter_cfg.c **** 		/* UDB_PA_0 Starting address: CYDEV_UDB_PA0_BASE */
 686:Generated_Source\PSoC4/cyfitter_cfg.c **** 		CY_SET_REG32((void *)(CYDEV_UDB_PA0_BASE), 0x00990000u);
 284              		.loc 1 686 0
 285 00c4 9923     		movs	r3, #153
 286 00c6 1B04     		lsls	r3, r3, #16
 287 00c8 214A     		ldr	r2, .L13+24
 288 00ca 1360     		str	r3, [r2]
 687:Generated_Source\PSoC4/cyfitter_cfg.c **** 		CY_SET_REG32((void *)(CYREG_UDB_PA0_CFG8), 0x30000000u);
 289              		.loc 1 687 0
 290 00cc C021     		movs	r1, #192
 291 00ce 8905     		lsls	r1, r1, #22
 292 00d0 204A     		ldr	r2, .L13+28
 293 00d2 1160     		str	r1, [r2]
 688:Generated_Source\PSoC4/cyfitter_cfg.c **** 
 689:Generated_Source\PSoC4/cyfitter_cfg.c **** 		/* UDB_PA_2 Starting address: CYDEV_UDB_PA2_BASE */
 690:Generated_Source\PSoC4/cyfitter_cfg.c **** 		CY_SET_REG32((void *)(CYDEV_UDB_PA2_BASE), 0x00990000u);
 294              		.loc 1 690 0
 295 00d4 204A     		ldr	r2, .L13+32
 296 00d6 1360     		str	r3, [r2]
 691:Generated_Source\PSoC4/cyfitter_cfg.c **** 
 692:Generated_Source\PSoC4/cyfitter_cfg.c **** 		/* UDB_PA_3 Starting address: CYDEV_UDB_PA3_BASE */
 693:Generated_Source\PSoC4/cyfitter_cfg.c **** 		CY_SET_REG32((void *)(CYDEV_UDB_PA3_BASE), 0x00990000u);
 297              		.loc 1 693 0
 298 00d8 204A     		ldr	r2, .L13+36
 299 00da 1360     		str	r3, [r2]
 694:Generated_Source\PSoC4/cyfitter_cfg.c **** 		CY_SET_REG32((void *)(CYREG_UDB_PA3_CFG8), 0x31030000u);
 300              		.loc 1 694 0
 301 00dc 204A     		ldr	r2, .L13+40
 302 00de 214B     		ldr	r3, .L13+44
 303 00e0 1A60     		str	r2, [r3]
 695:Generated_Source\PSoC4/cyfitter_cfg.c **** 
 696:Generated_Source\PSoC4/cyfitter_cfg.c **** 		/* INT_SELECT Starting address: CYDEV_CPUSS_INTR_SELECT */
 697:Generated_Source\PSoC4/cyfitter_cfg.c **** 		CY_SET_REG32((void *)(CYREG_CPUSS_INTR_SELECT), 0x0000003Du);
 304              		.loc 1 697 0
 305 00e2 3D22     		movs	r2, #61
 306 00e4 204B     		ldr	r3, .L13+48
 307 00e6 1A60     		str	r2, [r3]
 698:Generated_Source\PSoC4/cyfitter_cfg.c **** 
 699:Generated_Source\PSoC4/cyfitter_cfg.c **** 		/* INT_CONFIG Starting address: CYDEV_UDB_INT_CFG */
 700:Generated_Source\PSoC4/cyfitter_cfg.c **** 		CY_SET_REG32((void *)(CYREG_UDB_INT_CFG), 0x0000002Au);
 308              		.loc 1 700 0
 309 00e8 133A     		subs	r2, r2, #19
 310 00ea 204B     		ldr	r3, .L13+52
 311 00ec 1A60     		str	r2, [r3]
 701:Generated_Source\PSoC4/cyfitter_cfg.c **** 
 702:Generated_Source\PSoC4/cyfitter_cfg.c **** 		/* Enable UDB array and digital routing */
 703:Generated_Source\PSoC4/cyfitter_cfg.c **** 		CY_SET_XTND_REG8((void *)CYREG_UDB_UDBIF_WAIT_CFG, (uint8)((CY_GET_XTND_REG8((void *)CYREG_UDB_UD
 312              		.loc 1 703 0
 313 00ee 2049     		ldr	r1, .L13+56
 314 00f0 0B78     		ldrb	r3, [r1]
 315 00f2 1232     		adds	r2, r2, #18
ARM GAS  C:\Users\quint\AppData\Local\Temp\ccooIXEm.s 			page 19


 316 00f4 9343     		bics	r3, r2
 317 00f6 1422     		movs	r2, #20
 318 00f8 1343     		orrs	r3, r2
 319 00fa DBB2     		uxtb	r3, r3
 320 00fc 0B70     		strb	r3, [r1]
 704:Generated_Source\PSoC4/cyfitter_cfg.c **** 		CY_SET_XTND_REG8((void *)CYREG_UDB_UDBIF_BANK_CTL, (uint8)(CY_GET_XTND_REG8((void *)CYREG_UDB_UDB
 321              		.loc 1 704 0
 322 00fe 1D4A     		ldr	r2, .L13+60
 323 0100 1178     		ldrb	r1, [r2]
 324 0102 1623     		movs	r3, #22
 325 0104 0B43     		orrs	r3, r1
 326 0106 DBB2     		uxtb	r3, r3
 327 0108 1370     		strb	r3, [r2]
 328              	.LBE3:
 705:Generated_Source\PSoC4/cyfitter_cfg.c **** 	}
 706:Generated_Source\PSoC4/cyfitter_cfg.c **** 
 707:Generated_Source\PSoC4/cyfitter_cfg.c **** 	/* Perform second pass device configuration. These items must be configured in specific order afte
 708:Generated_Source\PSoC4/cyfitter_cfg.c **** 	/* IOPINS0_0 Starting address: CYDEV_PRT0_BASE */
 709:Generated_Source\PSoC4/cyfitter_cfg.c **** 	CY_SET_REG32((void *)(CYDEV_PRT0_BASE), 0x000000C1u);
 329              		.loc 1 709 0
 330 010a C122     		movs	r2, #193
 331 010c 1A4B     		ldr	r3, .L13+64
 332 010e 1A60     		str	r2, [r3]
 710:Generated_Source\PSoC4/cyfitter_cfg.c **** 	CY_SET_REG32((void *)(CYREG_PRT0_PC), 0x00580002u);
 333              		.loc 1 710 0
 334 0110 1A4A     		ldr	r2, .L13+68
 335 0112 1B4B     		ldr	r3, .L13+72
 336 0114 1A60     		str	r2, [r3]
 711:Generated_Source\PSoC4/cyfitter_cfg.c **** 
 712:Generated_Source\PSoC4/cyfitter_cfg.c **** 	/* IOPINS0_2 Starting address: CYDEV_PRT2_BASE */
 713:Generated_Source\PSoC4/cyfitter_cfg.c **** 	CY_SET_REG32((void *)(CYDEV_PRT2_BASE), 0x00000040u);
 337              		.loc 1 713 0
 338 0116 4022     		movs	r2, #64
 339 0118 1A4B     		ldr	r3, .L13+76
 340 011a 1A60     		str	r2, [r3]
 714:Generated_Source\PSoC4/cyfitter_cfg.c **** 	CY_SET_REG32((void *)(CYREG_PRT2_PC), 0x00080000u);
 341              		.loc 1 714 0
 342 011c 8022     		movs	r2, #128
 343 011e 1203     		lsls	r2, r2, #12
 344 0120 194B     		ldr	r3, .L13+80
 345 0122 1A60     		str	r2, [r3]
 715:Generated_Source\PSoC4/cyfitter_cfg.c **** 
 716:Generated_Source\PSoC4/cyfitter_cfg.c **** 	/* IOPINS0_3 Starting address: CYDEV_PRT3_BASE */
 717:Generated_Source\PSoC4/cyfitter_cfg.c **** 	CY_SET_REG32((void *)(CYDEV_PRT3_BASE), 0x000000F1u);
 346              		.loc 1 717 0
 347 0124 F122     		movs	r2, #241
 348 0126 194B     		ldr	r3, .L13+84
 349 0128 1A60     		str	r2, [r3]
 718:Generated_Source\PSoC4/cyfitter_cfg.c **** 	CY_SET_REG32((void *)(CYREG_PRT3_PC), 0x00596DB6u);
 350              		.loc 1 718 0
 351 012a 194A     		ldr	r2, .L13+88
 352 012c 194B     		ldr	r3, .L13+92
 353 012e 1A60     		str	r2, [r3]
 719:Generated_Source\PSoC4/cyfitter_cfg.c **** 
 720:Generated_Source\PSoC4/cyfitter_cfg.c **** 
 721:Generated_Source\PSoC4/cyfitter_cfg.c **** 	/* Setup clocks based on selections from Clock DWR */
 722:Generated_Source\PSoC4/cyfitter_cfg.c **** 	ClockSetup();
ARM GAS  C:\Users\quint\AppData\Local\Temp\ccooIXEm.s 			page 20


 354              		.loc 1 722 0
 355 0130 FFF766FF 		bl	ClockSetup
 356              	.LVL24:
 723:Generated_Source\PSoC4/cyfitter_cfg.c **** 
 724:Generated_Source\PSoC4/cyfitter_cfg.c **** 	/* Perform basic analog initialization to defaults */
 725:Generated_Source\PSoC4/cyfitter_cfg.c **** 	AnalogSetDefault();
 726:Generated_Source\PSoC4/cyfitter_cfg.c **** 
 727:Generated_Source\PSoC4/cyfitter_cfg.c **** }
 357              		.loc 1 727 0
 358              		@ sp needed
 359              	.LVL25:
 360 0134 10BD     		pop	{r4, pc}
 361              	.L14:
 362 0136 C046     		.align	2
 363              	.L13:
 364 0138 1C700F40 		.word	1074753564
 365 013c 00000000 		.word	.LANCHOR0
 366 0140 80020000 		.word	.LANCHOR1
 367 0144 00000140 		.word	1073807360
 368 0148 03EE0303 		.word	50589187
 369 014c 0C000140 		.word	1073807372
 370 0150 00500F40 		.word	1074745344
 371 0154 08500F40 		.word	1074745352
 372 0158 20500F40 		.word	1074745376
 373 015c 30500F40 		.word	1074745392
 374 0160 00000331 		.word	822280192
 375 0164 38500F40 		.word	1074745400
 376 0168 20000040 		.word	1073741856
 377 016c 00800F40 		.word	1074757632
 378 0170 01700F40 		.word	1074753537
 379 0174 00700F40 		.word	1074753536
 380 0178 00000440 		.word	1074003968
 381 017c 02005800 		.word	5767170
 382 0180 08000440 		.word	1074003976
 383 0184 00020440 		.word	1074004480
 384 0188 08020440 		.word	1074004488
 385 018c 00030440 		.word	1074004736
 386 0190 B66D5900 		.word	5860790
 387 0194 08030440 		.word	1074004744
 388              		.cfi_endproc
 389              	.LFE6:
 390              		.size	cyfitter_cfg, .-cyfitter_cfg
 391              		.section	.rodata
 392              		.align	2
 393              		.set	.LANCHOR0,. + 0
 394              		.set	.LANCHOR1,. + 640
 395              		.type	cfg_memset_list.4870, %object
 396              		.size	cfg_memset_list.4870, 12
 397              	cfg_memset_list.4870:
 398 0000 00300F40 		.word	1074737152
 399 0004 0004     		.short	1024
 400 0006 00400F40 		.4byte	1074741248
 401 000a 0004     		.short	1024
 402              		.type	cy_cfg_data_table.4865, %object
 403              		.size	cy_cfg_data_table.4865, 694
 404              	cy_cfg_data_table.4865:
 405 000c 82       		.byte	-126
ARM GAS  C:\Users\quint\AppData\Local\Temp\ccooIXEm.s 			page 21


 406 000d 11       		.byte	17
 407 000e 01       		.byte	1
 408 000f 13       		.byte	19
 409 0010 03       		.byte	3
 410 0011 64       		.byte	100
 411 0012 04       		.byte	4
 412 0013 01       		.byte	1
 413 0014 05       		.byte	5
 414 0015 98       		.byte	-104
 415 0016 07       		.byte	7
 416 0017 02       		.byte	2
 417 0018 08       		.byte	8
 418 0019 01       		.byte	1
 419 001a 09       		.byte	9
 420 001b 02       		.byte	2
 421 001c 0B       		.byte	11
 422 001d 98       		.byte	-104
 423 001e 0C       		.byte	12
 424 001f 01       		.byte	1
 425 0020 0D       		.byte	13
 426 0021 98       		.byte	-104
 427 0022 0F       		.byte	15
 428 0023 02       		.byte	2
 429 0024 10       		.byte	16
 430 0025 01       		.byte	1
 431 0026 14       		.byte	20
 432 0027 02       		.byte	2
 433 0028 15       		.byte	21
 434 0029 21       		.byte	33
 435 002a 17       		.byte	23
 436 002b D8       		.byte	-40
 437 002c 19       		.byte	25
 438 002d 38       		.byte	56
 439 002e 1B       		.byte	27
 440 002f C0       		.byte	-64
 441 0030 1D       		.byte	29
 442 0031 9A       		.byte	-102
 443 0032 1E       		.byte	30
 444 0033 01       		.byte	1
 445 0034 21       		.byte	33
 446 0035 9A       		.byte	-102
 447 0036 25       		.byte	37
 448 0037 02       		.byte	2
 449 0038 29       		.byte	41
 450 0039 FC       		.byte	-4
 451 003a 2B       		.byte	43
 452 003b 03       		.byte	3
 453 003c 2E       		.byte	46
 454 003d 01       		.byte	1
 455 003e 30       		.byte	48
 456 003f 02       		.byte	2
 457 0040 32       		.byte	50
 458 0041 01       		.byte	1
 459 0042 33       		.byte	51
 460 0043 0F       		.byte	15
 461 0044 35       		.byte	53
 462 0045 E0       		.byte	-32
ARM GAS  C:\Users\quint\AppData\Local\Temp\ccooIXEm.s 			page 22


 463 0046 37       		.byte	55
 464 0047 13       		.byte	19
 465 0048 3B       		.byte	59
 466 0049 28       		.byte	40
 467 004a 3E       		.byte	62
 468 004b 05       		.byte	5
 469 004c 40       		.byte	64
 470 004d 63       		.byte	99
 471 004e 41       		.byte	65
 472 004f 05       		.byte	5
 473 0050 42       		.byte	66
 474 0051 10       		.byte	16
 475 0052 45       		.byte	69
 476 0053 DE       		.byte	-34
 477 0054 46       		.byte	70
 478 0055 F0       		.byte	-16
 479 0056 47       		.byte	71
 480 0057 DC       		.byte	-36
 481 0058 48       		.byte	72
 482 0059 3B       		.byte	59
 483 005a 49       		.byte	73
 484 005b FF       		.byte	-1
 485 005c 4A       		.byte	74
 486 005d FF       		.byte	-1
 487 005e 4B       		.byte	75
 488 005f FF       		.byte	-1
 489 0060 4C       		.byte	76
 490 0061 02       		.byte	2
 491 0062 4E       		.byte	78
 492 0063 70       		.byte	112
 493 0064 4F       		.byte	79
 494 0065 08       		.byte	8
 495 0066 50       		.byte	80
 496 0067 04       		.byte	4
 497 0068 54       		.byte	84
 498 0069 40       		.byte	64
 499 006a 58       		.byte	88
 500 006b 04       		.byte	4
 501 006c 59       		.byte	89
 502 006d 04       		.byte	4
 503 006e 5A       		.byte	90
 504 006f 04       		.byte	4
 505 0070 5B       		.byte	91
 506 0071 04       		.byte	4
 507 0072 5F       		.byte	95
 508 0073 01       		.byte	1
 509 0074 62       		.byte	98
 510 0075 C0       		.byte	-64
 511 0076 64       		.byte	100
 512 0077 40       		.byte	64
 513 0078 65       		.byte	101
 514 0079 01       		.byte	1
 515 007a 66       		.byte	102
 516 007b 10       		.byte	16
 517 007c 67       		.byte	103
 518 007d 11       		.byte	17
 519 007e 68       		.byte	104
ARM GAS  C:\Users\quint\AppData\Local\Temp\ccooIXEm.s 			page 23


 520 007f C0       		.byte	-64
 521 0080 69       		.byte	105
 522 0081 01       		.byte	1
 523 0082 6B       		.byte	107
 524 0083 11       		.byte	17
 525 0084 6C       		.byte	108
 526 0085 40       		.byte	64
 527 0086 6D       		.byte	109
 528 0087 01       		.byte	1
 529 0088 6E       		.byte	110
 530 0089 40       		.byte	64
 531 008a 6F       		.byte	111
 532 008b 01       		.byte	1
 533 008c 94       		.byte	-108
 534 008d 24       		.byte	36
 535 008e 95       		.byte	-107
 536 008f 01       		.byte	1
 537 0090 96       		.byte	-106
 538 0091 C8       		.byte	-56
 539 0092 98       		.byte	-104
 540 0093 70       		.byte	112
 541 0094 9C       		.byte	-100
 542 0095 19       		.byte	25
 543 0096 9E       		.byte	-98
 544 0097 A2       		.byte	-94
 545 0098 A4       		.byte	-92
 546 0099 AE       		.byte	-82
 547 009a A6       		.byte	-90
 548 009b 51       		.byte	81
 549 009c A8       		.byte	-88
 550 009d 04       		.byte	4
 551 009e B1       		.byte	-79
 552 009f 01       		.byte	1
 553 00a0 B2       		.byte	-78
 554 00a1 07       		.byte	7
 555 00a2 B4       		.byte	-76
 556 00a3 78       		.byte	120
 557 00a4 B6       		.byte	-74
 558 00a5 80       		.byte	-128
 559 00a6 B8       		.byte	-72
 560 00a7 20       		.byte	32
 561 00a8 B9       		.byte	-71
 562 00a9 20       		.byte	32
 563 00aa BA       		.byte	-70
 564 00ab 08       		.byte	8
 565 00ac BE       		.byte	-66
 566 00ad 40       		.byte	64
 567 00ae BF       		.byte	-65
 568 00af 11       		.byte	17
 569 00b0 C0       		.byte	-64
 570 00b1 63       		.byte	99
 571 00b2 C1       		.byte	-63
 572 00b3 04       		.byte	4
 573 00b4 C2       		.byte	-62
 574 00b5 10       		.byte	16
 575 00b6 C6       		.byte	-58
 576 00b7 0B       		.byte	11
ARM GAS  C:\Users\quint\AppData\Local\Temp\ccooIXEm.s 			page 24


 577 00b8 C8       		.byte	-56
 578 00b9 04       		.byte	4
 579 00ba C9       		.byte	-55
 580 00bb 01       		.byte	1
 581 00bc CA       		.byte	-54
 582 00bd FF       		.byte	-1
 583 00be CB       		.byte	-53
 584 00bf FF       		.byte	-1
 585 00c0 CC       		.byte	-52
 586 00c1 23       		.byte	35
 587 00c2 CE       		.byte	-50
 588 00c3 80       		.byte	-128
 589 00c4 CF       		.byte	-49
 590 00c5 08       		.byte	8
 591 00c6 D0       		.byte	-48
 592 00c7 04       		.byte	4
 593 00c8 D8       		.byte	-40
 594 00c9 04       		.byte	4
 595 00ca D9       		.byte	-39
 596 00cb 04       		.byte	4
 597 00cc DA       		.byte	-38
 598 00cd 04       		.byte	4
 599 00ce DF       		.byte	-33
 600 00cf 01       		.byte	1
 601 00d0 E2       		.byte	-30
 602 00d1 C0       		.byte	-64
 603 00d2 E4       		.byte	-28
 604 00d3 40       		.byte	64
 605 00d4 E5       		.byte	-27
 606 00d5 01       		.byte	1
 607 00d6 E6       		.byte	-26
 608 00d7 10       		.byte	16
 609 00d8 E7       		.byte	-25
 610 00d9 11       		.byte	17
 611 00da E8       		.byte	-24
 612 00db C0       		.byte	-64
 613 00dc E9       		.byte	-23
 614 00dd 01       		.byte	1
 615 00de EB       		.byte	-21
 616 00df 11       		.byte	17
 617 00e0 EC       		.byte	-20
 618 00e1 40       		.byte	64
 619 00e2 ED       		.byte	-19
 620 00e3 01       		.byte	1
 621 00e4 EE       		.byte	-18
 622 00e5 40       		.byte	64
 623 00e6 EF       		.byte	-17
 624 00e7 01       		.byte	1
 625 00e8 01       		.byte	1
 626 00e9 14       		.byte	20
 627 00ea 03       		.byte	3
 628 00eb 01       		.byte	1
 629 00ec 08       		.byte	8
 630 00ed 08       		.byte	8
 631 00ee 09       		.byte	9
 632 00ef 41       		.byte	65
 633 00f0 0E       		.byte	14
ARM GAS  C:\Users\quint\AppData\Local\Temp\ccooIXEm.s 			page 25


 634 00f1 28       		.byte	40
 635 00f2 0F       		.byte	15
 636 00f3 01       		.byte	1
 637 00f4 10       		.byte	16
 638 00f5 02       		.byte	2
 639 00f6 15       		.byte	21
 640 00f7 08       		.byte	8
 641 00f8 16       		.byte	22
 642 00f9 04       		.byte	4
 643 00fa 17       		.byte	23
 644 00fb 10       		.byte	16
 645 00fc 18       		.byte	24
 646 00fd 90       		.byte	-112
 647 00fe 1D       		.byte	29
 648 00ff 48       		.byte	72
 649 0100 1E       		.byte	30
 650 0101 28       		.byte	40
 651 0102 1F       		.byte	31
 652 0103 08       		.byte	8
 653 0104 20       		.byte	32
 654 0105 0A       		.byte	10
 655 0106 21       		.byte	33
 656 0107 04       		.byte	4
 657 0108 22       		.byte	34
 658 0109 18       		.byte	24
 659 010a 23       		.byte	35
 660 010b 03       		.byte	3
 661 010c 24       		.byte	36
 662 010d 04       		.byte	4
 663 010e 27       		.byte	39
 664 010f 80       		.byte	-128
 665 0110 2A       		.byte	42
 666 0111 05       		.byte	5
 667 0112 2B       		.byte	43
 668 0113 08       		.byte	8
 669 0114 32       		.byte	50
 670 0115 18       		.byte	24
 671 0116 33       		.byte	51
 672 0117 40       		.byte	64
 673 0118 37       		.byte	55
 674 0119 08       		.byte	8
 675 011a 39       		.byte	57
 676 011b 54       		.byte	84
 677 011c 3B       		.byte	59
 678 011d 01       		.byte	1
 679 011e 41       		.byte	65
 680 011f 88       		.byte	-120
 681 0120 45       		.byte	69
 682 0121 88       		.byte	-120
 683 0122 47       		.byte	71
 684 0123 02       		.byte	2
 685 0124 48       		.byte	72
 686 0125 01       		.byte	1
 687 0126 49       		.byte	73
 688 0127 04       		.byte	4
 689 0128 4A       		.byte	74
 690 0129 88       		.byte	-120
ARM GAS  C:\Users\quint\AppData\Local\Temp\ccooIXEm.s 			page 26


 691 012a 4E       		.byte	78
 692 012b 08       		.byte	8
 693 012c 50       		.byte	80
 694 012d 02       		.byte	2
 695 012e 52       		.byte	82
 696 012f 14       		.byte	20
 697 0130 56       		.byte	86
 698 0131 40       		.byte	64
 699 0132 60       		.byte	96
 700 0133 10       		.byte	16
 701 0134 62       		.byte	98
 702 0135 90       		.byte	-112
 703 0136 82       		.byte	-126
 704 0137 04       		.byte	4
 705 0138 87       		.byte	-121
 706 0139 80       		.byte	-128
 707 013a 8C       		.byte	-116
 708 013b 40       		.byte	64
 709 013c C0       		.byte	-64
 710 013d 07       		.byte	7
 711 013e C2       		.byte	-62
 712 013f ED       		.byte	-19
 713 0140 C4       		.byte	-60
 714 0141 61       		.byte	97
 715 0142 CA       		.byte	-54
 716 0143 07       		.byte	7
 717 0144 CC       		.byte	-52
 718 0145 4E       		.byte	78
 719 0146 CE       		.byte	-50
 720 0147 0F       		.byte	15
 721 0148 D0       		.byte	-48
 722 0149 DA       		.byte	-38
 723 014a D2       		.byte	-46
 724 014b 2C       		.byte	44
 725 014c D8       		.byte	-40
 726 014d 0E       		.byte	14
 727 014e E6       		.byte	-26
 728 014f 10       		.byte	16
 729 0150 00       		.byte	0
 730 0151 34       		.byte	52
 731 0152 02       		.byte	2
 732 0153 02       		.byte	2
 733 0154 04       		.byte	4
 734 0155 01       		.byte	1
 735 0156 0A       		.byte	10
 736 0157 80       		.byte	-128
 737 0158 0C       		.byte	12
 738 0159 36       		.byte	54
 739 015a 10       		.byte	16
 740 015b 08       		.byte	8
 741 015c 11       		.byte	17
 742 015d 03       		.byte	3
 743 015e 12       		.byte	18
 744 015f 34       		.byte	52
 745 0160 13       		.byte	19
 746 0161 0C       		.byte	12
 747 0162 14       		.byte	20
ARM GAS  C:\Users\quint\AppData\Local\Temp\ccooIXEm.s 			page 27


 748 0163 08       		.byte	8
 749 0164 15       		.byte	21
 750 0165 05       		.byte	5
 751 0166 16       		.byte	22
 752 0167 E0       		.byte	-32
 753 0168 17       		.byte	23
 754 0169 0A       		.byte	10
 755 016a 18       		.byte	24
 756 016b 36       		.byte	54
 757 016c 19       		.byte	25
 758 016d 09       		.byte	9
 759 016e 1B       		.byte	27
 760 016f 06       		.byte	6
 761 0170 1C       		.byte	28
 762 0171 36       		.byte	54
 763 0172 1D       		.byte	29
 764 0173 02       		.byte	2
 765 0174 1F       		.byte	31
 766 0175 0D       		.byte	13
 767 0176 20       		.byte	32
 768 0177 44       		.byte	68
 769 0178 22       		.byte	34
 770 0179 08       		.byte	8
 771 017a 24       		.byte	36
 772 017b 08       		.byte	8
 773 017c 26       		.byte	38
 774 017d D0       		.byte	-48
 775 017e 28       		.byte	40
 776 017f 36       		.byte	54
 777 0180 30       		.byte	48
 778 0181 3C       		.byte	60
 779 0182 31       		.byte	49
 780 0183 0F       		.byte	15
 781 0184 32       		.byte	50
 782 0185 C0       		.byte	-64
 783 0186 34       		.byte	52
 784 0187 01       		.byte	1
 785 0188 35       		.byte	53
 786 0189 0F       		.byte	15
 787 018a 36       		.byte	54
 788 018b 02       		.byte	2
 789 018c 3A       		.byte	58
 790 018d 02       		.byte	2
 791 018e 3B       		.byte	59
 792 018f 22       		.byte	34
 793 0190 3E       		.byte	62
 794 0191 50       		.byte	80
 795 0192 56       		.byte	86
 796 0193 02       		.byte	2
 797 0194 57       		.byte	87
 798 0195 24       		.byte	36
 799 0196 58       		.byte	88
 800 0197 04       		.byte	4
 801 0198 59       		.byte	89
 802 0199 04       		.byte	4
 803 019a 5B       		.byte	91
 804 019b 04       		.byte	4
ARM GAS  C:\Users\quint\AppData\Local\Temp\ccooIXEm.s 			page 28


 805 019c 5F       		.byte	95
 806 019d 01       		.byte	1
 807 019e 80       		.byte	-128
 808 019f 60       		.byte	96
 809 01a0 84       		.byte	-124
 810 01a1 04       		.byte	4
 811 01a2 88       		.byte	-120
 812 01a3 01       		.byte	1
 813 01a4 8C       		.byte	-116
 814 01a5 04       		.byte	4
 815 01a6 90       		.byte	-112
 816 01a7 04       		.byte	4
 817 01a8 94       		.byte	-108
 818 01a9 56       		.byte	86
 819 01aa 96       		.byte	-106
 820 01ab 09       		.byte	9
 821 01ac 9A       		.byte	-102
 822 01ad 04       		.byte	4
 823 01ae 9C       		.byte	-100
 824 01af 04       		.byte	4
 825 01b0 9D       		.byte	-99
 826 01b1 01       		.byte	1
 827 01b2 A0       		.byte	-96
 828 01b3 07       		.byte	7
 829 01b4 A2       		.byte	-94
 830 01b5 38       		.byte	56
 831 01b6 A4       		.byte	-92
 832 01b7 04       		.byte	4
 833 01b8 A8       		.byte	-88
 834 01b9 0A       		.byte	10
 835 01ba AA       		.byte	-86
 836 01bb 10       		.byte	16
 837 01bc AC       		.byte	-84
 838 01bd 80       		.byte	-128
 839 01be B1       		.byte	-79
 840 01bf 01       		.byte	1
 841 01c0 B2       		.byte	-78
 842 01c1 80       		.byte	-128
 843 01c2 B4       		.byte	-76
 844 01c3 7F       		.byte	127
 845 01c4 B6       		.byte	-74
 846 01c5 02       		.byte	2
 847 01c6 B8       		.byte	-72
 848 01c7 20       		.byte	32
 849 01c8 BE       		.byte	-66
 850 01c9 44       		.byte	68
 851 01ca BF       		.byte	-65
 852 01cb 01       		.byte	1
 853 01cc D4       		.byte	-44
 854 01cd 09       		.byte	9
 855 01ce D8       		.byte	-40
 856 01cf 04       		.byte	4
 857 01d0 D9       		.byte	-39
 858 01d1 04       		.byte	4
 859 01d2 DB       		.byte	-37
 860 01d3 04       		.byte	4
 861 01d4 DF       		.byte	-33
ARM GAS  C:\Users\quint\AppData\Local\Temp\ccooIXEm.s 			page 29


 862 01d5 01       		.byte	1
 863 01d6 00       		.byte	0
 864 01d7 08       		.byte	8
 865 01d8 01       		.byte	1
 866 01d9 20       		.byte	32
 867 01da 02       		.byte	2
 868 01db 41       		.byte	65
 869 01dc 04       		.byte	4
 870 01dd 12       		.byte	18
 871 01de 07       		.byte	7
 872 01df 21       		.byte	33
 873 01e0 09       		.byte	9
 874 01e1 59       		.byte	89
 875 01e2 0D       		.byte	13
 876 01e3 08       		.byte	8
 877 01e4 0E       		.byte	14
 878 01e5 4A       		.byte	74
 879 01e6 11       		.byte	17
 880 01e7 04       		.byte	4
 881 01e8 12       		.byte	18
 882 01e9 0A       		.byte	10
 883 01ea 13       		.byte	19
 884 01eb 02       		.byte	2
 885 01ec 15       		.byte	21
 886 01ed 18       		.byte	24
 887 01ee 17       		.byte	23
 888 01ef 02       		.byte	2
 889 01f0 18       		.byte	24
 890 01f1 21       		.byte	33
 891 01f2 19       		.byte	25
 892 01f3 30       		.byte	48
 893 01f4 1C       		.byte	28
 894 01f5 10       		.byte	16
 895 01f6 1D       		.byte	29
 896 01f7 80       		.byte	-128
 897 01f8 1E       		.byte	30
 898 01f9 41       		.byte	65
 899 01fa 1F       		.byte	31
 900 01fb 10       		.byte	16
 901 01fc 21       		.byte	33
 902 01fd 02       		.byte	2
 903 01fe 27       		.byte	39
 904 01ff 84       		.byte	-124
 905 0200 32       		.byte	50
 906 0201 80       		.byte	-128
 907 0202 36       		.byte	54
 908 0203 18       		.byte	24
 909 0204 37       		.byte	55
 910 0205 82       		.byte	-126
 911 0206 46       		.byte	70
 912 0207 20       		.byte	32
 913 0208 47       		.byte	71
 914 0209 04       		.byte	4
 915 020a 59       		.byte	89
 916 020b 44       		.byte	68
 917 020c 5A       		.byte	90
 918 020d 01       		.byte	1
ARM GAS  C:\Users\quint\AppData\Local\Temp\ccooIXEm.s 			page 30


 919 020e 5B       		.byte	91
 920 020f 10       		.byte	16
 921 0210 60       		.byte	96
 922 0211 01       		.byte	1
 923 0212 66       		.byte	102
 924 0213 20       		.byte	32
 925 0214 6C       		.byte	108
 926 0215 01       		.byte	1
 927 0216 6D       		.byte	109
 928 0217 F6       		.byte	-10
 929 0218 6E       		.byte	110
 930 0219 0A       		.byte	10
 931 021a 6F       		.byte	111
 932 021b 40       		.byte	64
 933 021c 76       		.byte	118
 934 021d 01       		.byte	1
 935 021e 77       		.byte	119
 936 021f 01       		.byte	1
 937 0220 80       		.byte	-128
 938 0221 10       		.byte	16
 939 0222 83       		.byte	-125
 940 0223 20       		.byte	32
 941 0224 85       		.byte	-123
 942 0225 02       		.byte	2
 943 0226 87       		.byte	-121
 944 0227 10       		.byte	16
 945 0228 8A       		.byte	-118
 946 0229 82       		.byte	-126
 947 022a 8C       		.byte	-116
 948 022b 10       		.byte	16
 949 022c 8D       		.byte	-115
 950 022d 10       		.byte	16
 951 022e 91       		.byte	-111
 952 022f 08       		.byte	8
 953 0230 95       		.byte	-107
 954 0231 54       		.byte	84
 955 0232 99       		.byte	-103
 956 0233 44       		.byte	68
 957 0234 9A       		.byte	-102
 958 0235 40       		.byte	64
 959 0236 9B       		.byte	-101
 960 0237 12       		.byte	18
 961 0238 9E       		.byte	-98
 962 0239 01       		.byte	1
 963 023a 9F       		.byte	-97
 964 023b 41       		.byte	65
 965 023c A0       		.byte	-96
 966 023d 04       		.byte	4
 967 023e A1       		.byte	-95
 968 023f 08       		.byte	8
 969 0240 A2       		.byte	-94
 970 0241 18       		.byte	24
 971 0242 A5       		.byte	-91
 972 0243 C1       		.byte	-63
 973 0244 AF       		.byte	-81
 974 0245 08       		.byte	8
 975 0246 B0       		.byte	-80
ARM GAS  C:\Users\quint\AppData\Local\Temp\ccooIXEm.s 			page 31


 976 0247 08       		.byte	8
 977 0248 B4       		.byte	-76
 978 0249 04       		.byte	4
 979 024a C0       		.byte	-64
 980 024b FF       		.byte	-1
 981 024c C2       		.byte	-62
 982 024d FF       		.byte	-1
 983 024e C4       		.byte	-60
 984 024f 7F       		.byte	127
 985 0250 CC       		.byte	-52
 986 0251 F8       		.byte	-8
 987 0252 D6       		.byte	-42
 988 0253 0F       		.byte	15
 989 0254 D8       		.byte	-40
 990 0255 28       		.byte	40
 991 0256 02       		.byte	2
 992 0257 40       		.byte	64
 993 0258 0C       		.byte	12
 994 0259 20       		.byte	32
 995 025a 66       		.byte	102
 996 025b 02       		.byte	2
 997 025c 68       		.byte	104
 998 025d 80       		.byte	-128
 999 025e 6F       		.byte	111
 1000 025f 08       		.byte	8
 1001 0260 73       		.byte	115
 1002 0261 80       		.byte	-128
 1003 0262 77       		.byte	119
 1004 0263 01       		.byte	1
 1005 0264 7E       		.byte	126
 1006 0265 02       		.byte	2
 1007 0266 82       		.byte	-126
 1008 0267 02       		.byte	2
 1009 0268 87       		.byte	-121
 1010 0269 01       		.byte	1
 1011 026a 8E       		.byte	-114
 1012 026b 02       		.byte	2
 1013 026c C0       		.byte	-64
 1014 026d 10       		.byte	16
 1015 026e C2       		.byte	-62
 1016 026f 80       		.byte	-128
 1017 0270 D8       		.byte	-40
 1018 0271 80       		.byte	-128
 1019 0272 DA       		.byte	-38
 1020 0273 80       		.byte	-128
 1021 0274 DC       		.byte	-36
 1022 0275 E0       		.byte	-32
 1023 0276 DE       		.byte	-34
 1024 0277 20       		.byte	32
 1025 0278 E2       		.byte	-30
 1026 0279 40       		.byte	64
 1027 027a E6       		.byte	-26
 1028 027b 20       		.byte	32
 1029 027c 80       		.byte	-128
 1030 027d A0       		.byte	-96
 1031 027e 87       		.byte	-121
 1032 027f 88       		.byte	-120
ARM GAS  C:\Users\quint\AppData\Local\Temp\ccooIXEm.s 			page 32


 1033 0280 9F       		.byte	-97
 1034 0281 80       		.byte	-128
 1035 0282 A0       		.byte	-96
 1036 0283 20       		.byte	32
 1037 0284 A4       		.byte	-92
 1038 0285 80       		.byte	-128
 1039 0286 A7       		.byte	-89
 1040 0287 08       		.byte	8
 1041 0288 AE       		.byte	-82
 1042 0289 40       		.byte	64
 1043 028a E0       		.byte	-32
 1044 028b 80       		.byte	-128
 1045 028c E2       		.byte	-30
 1046 028d 60       		.byte	96
 1047 028e E6       		.byte	-26
 1048 028f 40       		.byte	64
 1049 0290 E8       		.byte	-24
 1050 0291 10       		.byte	16
 1051 0292 0B       		.byte	11
 1052 0293 08       		.byte	8
 1053 0294 C2       		.byte	-62
 1054 0295 02       		.byte	2
 1055 0296 0D       		.byte	13
 1056 0297 10       		.byte	16
 1057 0298 0E       		.byte	14
 1058 0299 20       		.byte	32
 1059 029a 54       		.byte	84
 1060 029b 02       		.byte	2
 1061 029c 5D       		.byte	93
 1062 029d 08       		.byte	8
 1063 029e 64       		.byte	100
 1064 029f 80       		.byte	-128
 1065 02a0 89       		.byte	-119
 1066 02a1 10       		.byte	16
 1067 02a2 8A       		.byte	-118
 1068 02a3 10       		.byte	16
 1069 02a4 8C       		.byte	-116
 1070 02a5 80       		.byte	-128
 1071 02a6 8D       		.byte	-115
 1072 02a7 08       		.byte	8
 1073 02a8 A0       		.byte	-96
 1074 02a9 02       		.byte	2
 1075 02aa B3       		.byte	-77
 1076 02ab 04       		.byte	4
 1077 02ac B4       		.byte	-76
 1078 02ad 02       		.byte	2
 1079 02ae C2       		.byte	-62
 1080 02af 05       		.byte	5
 1081 02b0 D6       		.byte	-42
 1082 02b1 05       		.byte	5
 1083 02b2 D8       		.byte	-40
 1084 02b3 01       		.byte	1
 1085 02b4 E0       		.byte	-32
 1086 02b5 0A       		.byte	10
 1087 02b6 E2       		.byte	-30
 1088 02b7 01       		.byte	1
 1089 02b8 E6       		.byte	-26
ARM GAS  C:\Users\quint\AppData\Local\Temp\ccooIXEm.s 			page 33


 1090 02b9 04       		.byte	4
 1091 02ba EA       		.byte	-22
 1092 02bb 01       		.byte	1
 1093 02bc EC       		.byte	-20
 1094 02bd 02       		.byte	2
 1095 02be 01       		.byte	1
 1096 02bf 01       		.byte	1
 1097 02c0 10       		.byte	16
 1098 02c1 01       		.byte	1
 1099 02c2 0000     		.space	2
 1100              		.type	cy_cfg_addr_table.4864, %object
 1101              		.size	cy_cfg_addr_table.4864, 40
 1102              	cy_cfg_addr_table.4864:
 1103 02c4 01000F40 		.word	1074724865
 1104 02c8 6D300F40 		.word	1074737261
 1105 02cc 34310F40 		.word	1074737460
 1106 02d0 43320F40 		.word	1074737731
 1107 02d4 40330F40 		.word	1074737984
 1108 02d8 13400F40 		.word	1074741267
 1109 02dc 0B410F40 		.word	1074741515
 1110 02e0 02420F40 		.word	1074741762
 1111 02e4 14430F40 		.word	1074742036
 1112 02e8 02600F40 		.word	1074749442
 1113              		.text
 1114              	.Letext0:
 1115              		.file 2 "c:\\program files (x86)\\cypress\\psoc creator\\4.2\\psoc creator\\import\\gnu\\arm\\5.4.
 1116              		.file 3 "Generated_Source\\PSoC4\\cytypes.h"
 1117              		.file 4 "Generated_Source\\PSoC4\\CyLib.h"