ARM GAS  C:\Users\quint\AppData\Local\Temp\ccJgvGOZ.s 			page 1


   1              		.syntax unified
   2              		.cpu cortex-m0
   3              		.fpu softvfp
   4              		.eabi_attribute 20, 1
   5              		.eabi_attribute 21, 1
   6              		.eabi_attribute 23, 3
   7              		.eabi_attribute 24, 1
   8              		.eabi_attribute 25, 1
   9              		.eabi_attribute 26, 1
  10              		.eabi_attribute 30, 1
  11              		.eabi_attribute 34, 0
  12              		.eabi_attribute 18, 4
  13              		.thumb
  14              		.syntax unified
  15              		.file	"D_Interrupt.c"
  16              		.text
  17              	.Ltext0:
  18              		.cfi_sections	.debug_frame
  19              		.section	.text.D_Interrupt_SetVector,"ax",%progbits
  20              		.align	2
  21              		.global	D_Interrupt_SetVector
  22              		.code	16
  23              		.thumb_func
  24              		.type	D_Interrupt_SetVector, %function
  25              	D_Interrupt_SetVector:
  26              	.LFB39:
  27              		.file 1 "Generated_Source\\PSoC4\\D_Interrupt.c"
   1:Generated_Source\PSoC4/D_Interrupt.c **** /*******************************************************************************
   2:Generated_Source\PSoC4/D_Interrupt.c **** * File Name: D_Interrupt.c  
   3:Generated_Source\PSoC4/D_Interrupt.c **** * Version 1.70
   4:Generated_Source\PSoC4/D_Interrupt.c **** *
   5:Generated_Source\PSoC4/D_Interrupt.c **** *  Description:
   6:Generated_Source\PSoC4/D_Interrupt.c **** *   API for controlling the state of an interrupt.
   7:Generated_Source\PSoC4/D_Interrupt.c **** *
   8:Generated_Source\PSoC4/D_Interrupt.c **** *
   9:Generated_Source\PSoC4/D_Interrupt.c **** *  Note:
  10:Generated_Source\PSoC4/D_Interrupt.c **** *
  11:Generated_Source\PSoC4/D_Interrupt.c **** ********************************************************************************
  12:Generated_Source\PSoC4/D_Interrupt.c **** * Copyright 2008-2015, Cypress Semiconductor Corporation.  All rights reserved.
  13:Generated_Source\PSoC4/D_Interrupt.c **** * You may use this file only in accordance with the license, terms, conditions, 
  14:Generated_Source\PSoC4/D_Interrupt.c **** * disclaimers, and limitations in the end user license agreement accompanying 
  15:Generated_Source\PSoC4/D_Interrupt.c **** * the software package with which this file was provided.
  16:Generated_Source\PSoC4/D_Interrupt.c **** *******************************************************************************/
  17:Generated_Source\PSoC4/D_Interrupt.c **** 
  18:Generated_Source\PSoC4/D_Interrupt.c **** 
  19:Generated_Source\PSoC4/D_Interrupt.c **** #include <cydevice_trm.h>
  20:Generated_Source\PSoC4/D_Interrupt.c **** #include <CyLib.h>
  21:Generated_Source\PSoC4/D_Interrupt.c **** #include <D_Interrupt.h>
  22:Generated_Source\PSoC4/D_Interrupt.c **** #include "cyapicallbacks.h"
  23:Generated_Source\PSoC4/D_Interrupt.c **** 
  24:Generated_Source\PSoC4/D_Interrupt.c **** #if !defined(D_Interrupt__REMOVED) /* Check for removal by optimization */
  25:Generated_Source\PSoC4/D_Interrupt.c **** 
  26:Generated_Source\PSoC4/D_Interrupt.c **** /*******************************************************************************
  27:Generated_Source\PSoC4/D_Interrupt.c **** *  Place your includes, defines and code here 
  28:Generated_Source\PSoC4/D_Interrupt.c **** ********************************************************************************/
  29:Generated_Source\PSoC4/D_Interrupt.c **** /* `#START D_Interrupt_intc` */
  30:Generated_Source\PSoC4/D_Interrupt.c ****    #include "project.h"
ARM GAS  C:\Users\quint\AppData\Local\Temp\ccJgvGOZ.s 			page 2


  31:Generated_Source\PSoC4/D_Interrupt.c **** #include <stdio.h>
  32:Generated_Source\PSoC4/D_Interrupt.c **** #define PUSHED 0
  33:Generated_Source\PSoC4/D_Interrupt.c **** extern int count; 
  34:Generated_Source\PSoC4/D_Interrupt.c **** extern char mystring[20];
  35:Generated_Source\PSoC4/D_Interrupt.c **** /* `#END` */
  36:Generated_Source\PSoC4/D_Interrupt.c **** 
  37:Generated_Source\PSoC4/D_Interrupt.c **** extern cyisraddress CyRamVectors[CYINT_IRQ_BASE + CY_NUM_INTERRUPTS];
  38:Generated_Source\PSoC4/D_Interrupt.c **** 
  39:Generated_Source\PSoC4/D_Interrupt.c **** /* Declared in startup, used to set unused interrupts to. */
  40:Generated_Source\PSoC4/D_Interrupt.c **** CY_ISR_PROTO(IntDefaultHandler);
  41:Generated_Source\PSoC4/D_Interrupt.c **** 
  42:Generated_Source\PSoC4/D_Interrupt.c **** 
  43:Generated_Source\PSoC4/D_Interrupt.c **** /*******************************************************************************
  44:Generated_Source\PSoC4/D_Interrupt.c **** * Function Name: D_Interrupt_Start
  45:Generated_Source\PSoC4/D_Interrupt.c **** ********************************************************************************
  46:Generated_Source\PSoC4/D_Interrupt.c **** *
  47:Generated_Source\PSoC4/D_Interrupt.c **** * Summary:
  48:Generated_Source\PSoC4/D_Interrupt.c **** *  Set up the interrupt and enable it. This function disables the interrupt, 
  49:Generated_Source\PSoC4/D_Interrupt.c **** *  sets the default interrupt vector, sets the priority from the value in the
  50:Generated_Source\PSoC4/D_Interrupt.c **** *  Design Wide Resources Interrupt Editor, then enables the interrupt to the 
  51:Generated_Source\PSoC4/D_Interrupt.c **** *  interrupt controller.
  52:Generated_Source\PSoC4/D_Interrupt.c **** *
  53:Generated_Source\PSoC4/D_Interrupt.c **** * Parameters:  
  54:Generated_Source\PSoC4/D_Interrupt.c **** *   None
  55:Generated_Source\PSoC4/D_Interrupt.c **** *
  56:Generated_Source\PSoC4/D_Interrupt.c **** * Return:
  57:Generated_Source\PSoC4/D_Interrupt.c **** *   None
  58:Generated_Source\PSoC4/D_Interrupt.c **** *
  59:Generated_Source\PSoC4/D_Interrupt.c **** *******************************************************************************/
  60:Generated_Source\PSoC4/D_Interrupt.c **** void D_Interrupt_Start(void)
  61:Generated_Source\PSoC4/D_Interrupt.c **** {
  62:Generated_Source\PSoC4/D_Interrupt.c ****     /* For all we know the interrupt is active. */
  63:Generated_Source\PSoC4/D_Interrupt.c ****     D_Interrupt_Disable();
  64:Generated_Source\PSoC4/D_Interrupt.c **** 
  65:Generated_Source\PSoC4/D_Interrupt.c ****     /* Set the ISR to point to the D_Interrupt Interrupt. */
  66:Generated_Source\PSoC4/D_Interrupt.c ****     D_Interrupt_SetVector(&D_Interrupt_Interrupt);
  67:Generated_Source\PSoC4/D_Interrupt.c **** 
  68:Generated_Source\PSoC4/D_Interrupt.c ****     /* Set the priority. */
  69:Generated_Source\PSoC4/D_Interrupt.c ****     D_Interrupt_SetPriority((uint8)D_Interrupt_INTC_PRIOR_NUMBER);
  70:Generated_Source\PSoC4/D_Interrupt.c **** 
  71:Generated_Source\PSoC4/D_Interrupt.c ****     /* Enable it. */
  72:Generated_Source\PSoC4/D_Interrupt.c ****     D_Interrupt_Enable();
  73:Generated_Source\PSoC4/D_Interrupt.c **** }
  74:Generated_Source\PSoC4/D_Interrupt.c **** 
  75:Generated_Source\PSoC4/D_Interrupt.c **** 
  76:Generated_Source\PSoC4/D_Interrupt.c **** /*******************************************************************************
  77:Generated_Source\PSoC4/D_Interrupt.c **** * Function Name: D_Interrupt_StartEx
  78:Generated_Source\PSoC4/D_Interrupt.c **** ********************************************************************************
  79:Generated_Source\PSoC4/D_Interrupt.c **** *
  80:Generated_Source\PSoC4/D_Interrupt.c **** * Summary:
  81:Generated_Source\PSoC4/D_Interrupt.c **** *  Sets up the interrupt and enables it. This function disables the interrupt,
  82:Generated_Source\PSoC4/D_Interrupt.c **** *  sets the interrupt vector based on the address passed in, sets the priority 
  83:Generated_Source\PSoC4/D_Interrupt.c **** *  from the value in the Design Wide Resources Interrupt Editor, then enables 
  84:Generated_Source\PSoC4/D_Interrupt.c **** *  the interrupt to the interrupt controller.
  85:Generated_Source\PSoC4/D_Interrupt.c **** *  
  86:Generated_Source\PSoC4/D_Interrupt.c **** *  When defining ISR functions, the CY_ISR and CY_ISR_PROTO macros should be 
  87:Generated_Source\PSoC4/D_Interrupt.c **** *  used to provide consistent definition across compilers:
ARM GAS  C:\Users\quint\AppData\Local\Temp\ccJgvGOZ.s 			page 3


  88:Generated_Source\PSoC4/D_Interrupt.c **** *  
  89:Generated_Source\PSoC4/D_Interrupt.c **** *  Function definition example:
  90:Generated_Source\PSoC4/D_Interrupt.c **** *   CY_ISR(MyISR)
  91:Generated_Source\PSoC4/D_Interrupt.c **** *   {
  92:Generated_Source\PSoC4/D_Interrupt.c **** *   }
  93:Generated_Source\PSoC4/D_Interrupt.c **** *   Function prototype example:
  94:Generated_Source\PSoC4/D_Interrupt.c **** *   CY_ISR_PROTO(MyISR);
  95:Generated_Source\PSoC4/D_Interrupt.c **** *
  96:Generated_Source\PSoC4/D_Interrupt.c **** * Parameters:  
  97:Generated_Source\PSoC4/D_Interrupt.c **** *   address: Address of the ISR to set in the interrupt vector table.
  98:Generated_Source\PSoC4/D_Interrupt.c **** *
  99:Generated_Source\PSoC4/D_Interrupt.c **** * Return:
 100:Generated_Source\PSoC4/D_Interrupt.c **** *   None
 101:Generated_Source\PSoC4/D_Interrupt.c **** *
 102:Generated_Source\PSoC4/D_Interrupt.c **** *******************************************************************************/
 103:Generated_Source\PSoC4/D_Interrupt.c **** void D_Interrupt_StartEx(cyisraddress address)
 104:Generated_Source\PSoC4/D_Interrupt.c **** {
 105:Generated_Source\PSoC4/D_Interrupt.c ****     /* For all we know the interrupt is active. */
 106:Generated_Source\PSoC4/D_Interrupt.c ****     D_Interrupt_Disable();
 107:Generated_Source\PSoC4/D_Interrupt.c **** 
 108:Generated_Source\PSoC4/D_Interrupt.c ****     /* Set the ISR to point to the D_Interrupt Interrupt. */
 109:Generated_Source\PSoC4/D_Interrupt.c ****     D_Interrupt_SetVector(address);
 110:Generated_Source\PSoC4/D_Interrupt.c **** 
 111:Generated_Source\PSoC4/D_Interrupt.c ****     /* Set the priority. */
 112:Generated_Source\PSoC4/D_Interrupt.c ****     D_Interrupt_SetPriority((uint8)D_Interrupt_INTC_PRIOR_NUMBER);
 113:Generated_Source\PSoC4/D_Interrupt.c **** 
 114:Generated_Source\PSoC4/D_Interrupt.c ****     /* Enable it. */
 115:Generated_Source\PSoC4/D_Interrupt.c ****     D_Interrupt_Enable();
 116:Generated_Source\PSoC4/D_Interrupt.c **** }
 117:Generated_Source\PSoC4/D_Interrupt.c **** 
 118:Generated_Source\PSoC4/D_Interrupt.c **** 
 119:Generated_Source\PSoC4/D_Interrupt.c **** /*******************************************************************************
 120:Generated_Source\PSoC4/D_Interrupt.c **** * Function Name: D_Interrupt_Stop
 121:Generated_Source\PSoC4/D_Interrupt.c **** ********************************************************************************
 122:Generated_Source\PSoC4/D_Interrupt.c **** *
 123:Generated_Source\PSoC4/D_Interrupt.c **** * Summary:
 124:Generated_Source\PSoC4/D_Interrupt.c **** *   Disables and removes the interrupt.
 125:Generated_Source\PSoC4/D_Interrupt.c **** *
 126:Generated_Source\PSoC4/D_Interrupt.c **** * Parameters:  
 127:Generated_Source\PSoC4/D_Interrupt.c **** *   None
 128:Generated_Source\PSoC4/D_Interrupt.c **** *
 129:Generated_Source\PSoC4/D_Interrupt.c **** * Return:
 130:Generated_Source\PSoC4/D_Interrupt.c **** *   None
 131:Generated_Source\PSoC4/D_Interrupt.c **** *
 132:Generated_Source\PSoC4/D_Interrupt.c **** *******************************************************************************/
 133:Generated_Source\PSoC4/D_Interrupt.c **** void D_Interrupt_Stop(void)
 134:Generated_Source\PSoC4/D_Interrupt.c **** {
 135:Generated_Source\PSoC4/D_Interrupt.c ****     /* Disable this interrupt. */
 136:Generated_Source\PSoC4/D_Interrupt.c ****     D_Interrupt_Disable();
 137:Generated_Source\PSoC4/D_Interrupt.c **** 
 138:Generated_Source\PSoC4/D_Interrupt.c ****     /* Set the ISR to point to the passive one. */
 139:Generated_Source\PSoC4/D_Interrupt.c ****     D_Interrupt_SetVector(&IntDefaultHandler);
 140:Generated_Source\PSoC4/D_Interrupt.c **** }
 141:Generated_Source\PSoC4/D_Interrupt.c **** 
 142:Generated_Source\PSoC4/D_Interrupt.c **** 
 143:Generated_Source\PSoC4/D_Interrupt.c **** /*******************************************************************************
 144:Generated_Source\PSoC4/D_Interrupt.c **** * Function Name: D_Interrupt_Interrupt
ARM GAS  C:\Users\quint\AppData\Local\Temp\ccJgvGOZ.s 			page 4


 145:Generated_Source\PSoC4/D_Interrupt.c **** ********************************************************************************
 146:Generated_Source\PSoC4/D_Interrupt.c **** *
 147:Generated_Source\PSoC4/D_Interrupt.c **** * Summary:
 148:Generated_Source\PSoC4/D_Interrupt.c **** *   The default Interrupt Service Routine for D_Interrupt.
 149:Generated_Source\PSoC4/D_Interrupt.c **** *
 150:Generated_Source\PSoC4/D_Interrupt.c **** *   Add custom code between the START and END comments to keep the next version
 151:Generated_Source\PSoC4/D_Interrupt.c **** *   of this file from over-writing your code.
 152:Generated_Source\PSoC4/D_Interrupt.c **** *
 153:Generated_Source\PSoC4/D_Interrupt.c **** *   Note You may use either the default ISR by using this API, or you may define
 154:Generated_Source\PSoC4/D_Interrupt.c **** *   your own separate ISR through ISR_StartEx().
 155:Generated_Source\PSoC4/D_Interrupt.c **** *
 156:Generated_Source\PSoC4/D_Interrupt.c **** * Parameters:  
 157:Generated_Source\PSoC4/D_Interrupt.c **** *   None
 158:Generated_Source\PSoC4/D_Interrupt.c **** *
 159:Generated_Source\PSoC4/D_Interrupt.c **** * Return:
 160:Generated_Source\PSoC4/D_Interrupt.c **** *   None
 161:Generated_Source\PSoC4/D_Interrupt.c **** *
 162:Generated_Source\PSoC4/D_Interrupt.c **** *******************************************************************************/
 163:Generated_Source\PSoC4/D_Interrupt.c **** CY_ISR(D_Interrupt_Interrupt)
 164:Generated_Source\PSoC4/D_Interrupt.c **** {
 165:Generated_Source\PSoC4/D_Interrupt.c ****     #ifdef D_Interrupt_INTERRUPT_INTERRUPT_CALLBACK
 166:Generated_Source\PSoC4/D_Interrupt.c ****         D_Interrupt_Interrupt_InterruptCallback();
 167:Generated_Source\PSoC4/D_Interrupt.c ****     #endif /* D_Interrupt_INTERRUPT_INTERRUPT_CALLBACK */ 
 168:Generated_Source\PSoC4/D_Interrupt.c **** 
 169:Generated_Source\PSoC4/D_Interrupt.c ****     /*  Place your Interrupt code here. */
 170:Generated_Source\PSoC4/D_Interrupt.c ****     /* `#START D_Interrupt_Interrupt` */
 171:Generated_Source\PSoC4/D_Interrupt.c ****     while (D_Button_Read() == !PUSHED);
 172:Generated_Source\PSoC4/D_Interrupt.c **** 
 173:Generated_Source\PSoC4/D_Interrupt.c ****             //CyDelay(25);
 174:Generated_Source\PSoC4/D_Interrupt.c **** 	
 175:Generated_Source\PSoC4/D_Interrupt.c ****             while (D_Button_Read() == PUSHED)
 176:Generated_Source\PSoC4/D_Interrupt.c ****             {  
 177:Generated_Source\PSoC4/D_Interrupt.c ****                 count--;
 178:Generated_Source\PSoC4/D_Interrupt.c ****                  //sprintf(mystring, "%5d", count);
 179:Generated_Source\PSoC4/D_Interrupt.c ****             //GLCD_PrintString(mystring, 10, 10, GLCD_WHITE, GLCD_BLACK);
 180:Generated_Source\PSoC4/D_Interrupt.c ****                  CyDelay(10); 
 181:Generated_Source\PSoC4/D_Interrupt.c ****             }
 182:Generated_Source\PSoC4/D_Interrupt.c ****   
 183:Generated_Source\PSoC4/D_Interrupt.c ****             D_Interrupt_ClearPending(); 
 184:Generated_Source\PSoC4/D_Interrupt.c ****     /* `#END` */
 185:Generated_Source\PSoC4/D_Interrupt.c **** }
 186:Generated_Source\PSoC4/D_Interrupt.c **** 
 187:Generated_Source\PSoC4/D_Interrupt.c **** 
 188:Generated_Source\PSoC4/D_Interrupt.c **** /*******************************************************************************
 189:Generated_Source\PSoC4/D_Interrupt.c **** * Function Name: D_Interrupt_SetVector
 190:Generated_Source\PSoC4/D_Interrupt.c **** ********************************************************************************
 191:Generated_Source\PSoC4/D_Interrupt.c **** *
 192:Generated_Source\PSoC4/D_Interrupt.c **** * Summary:
 193:Generated_Source\PSoC4/D_Interrupt.c **** *   Change the ISR vector for the Interrupt. Note calling D_Interrupt_Start
 194:Generated_Source\PSoC4/D_Interrupt.c **** *   will override any effect this method would have had. To set the vector 
 195:Generated_Source\PSoC4/D_Interrupt.c **** *   before the component has been started use D_Interrupt_StartEx instead.
 196:Generated_Source\PSoC4/D_Interrupt.c **** * 
 197:Generated_Source\PSoC4/D_Interrupt.c **** *   When defining ISR functions, the CY_ISR and CY_ISR_PROTO macros should be 
 198:Generated_Source\PSoC4/D_Interrupt.c **** *   used to provide consistent definition across compilers:
 199:Generated_Source\PSoC4/D_Interrupt.c **** *
 200:Generated_Source\PSoC4/D_Interrupt.c **** *   Function definition example:
 201:Generated_Source\PSoC4/D_Interrupt.c **** *   CY_ISR(MyISR)
ARM GAS  C:\Users\quint\AppData\Local\Temp\ccJgvGOZ.s 			page 5


 202:Generated_Source\PSoC4/D_Interrupt.c **** *   {
 203:Generated_Source\PSoC4/D_Interrupt.c **** *   }
 204:Generated_Source\PSoC4/D_Interrupt.c **** *
 205:Generated_Source\PSoC4/D_Interrupt.c **** *   Function prototype example:
 206:Generated_Source\PSoC4/D_Interrupt.c **** *     CY_ISR_PROTO(MyISR);
 207:Generated_Source\PSoC4/D_Interrupt.c **** *
 208:Generated_Source\PSoC4/D_Interrupt.c **** * Parameters:
 209:Generated_Source\PSoC4/D_Interrupt.c **** *   address: Address of the ISR to set in the interrupt vector table.
 210:Generated_Source\PSoC4/D_Interrupt.c **** *
 211:Generated_Source\PSoC4/D_Interrupt.c **** * Return:
 212:Generated_Source\PSoC4/D_Interrupt.c **** *   None
 213:Generated_Source\PSoC4/D_Interrupt.c **** *
 214:Generated_Source\PSoC4/D_Interrupt.c **** *******************************************************************************/
 215:Generated_Source\PSoC4/D_Interrupt.c **** void D_Interrupt_SetVector(cyisraddress address)
 216:Generated_Source\PSoC4/D_Interrupt.c **** {
  28              		.loc 1 216 0
  29              		.cfi_startproc
  30              		@ args = 0, pretend = 0, frame = 0
  31              		@ frame_needed = 0, uses_anonymous_args = 0
  32              		@ link register save eliminated.
  33              	.LVL0:
 217:Generated_Source\PSoC4/D_Interrupt.c ****     CyRamVectors[CYINT_IRQ_BASE + D_Interrupt__INTC_NUMBER] = address;
  34              		.loc 1 217 0
  35 0000 014B     		ldr	r3, .L2
  36 0002 1865     		str	r0, [r3, #80]
 218:Generated_Source\PSoC4/D_Interrupt.c **** }
  37              		.loc 1 218 0
  38              		@ sp needed
  39 0004 7047     		bx	lr
  40              	.L3:
  41 0006 C046     		.align	2
  42              	.L2:
  43 0008 00000000 		.word	CyRamVectors
  44              		.cfi_endproc
  45              	.LFE39:
  46              		.size	D_Interrupt_SetVector, .-D_Interrupt_SetVector
  47              		.section	.text.D_Interrupt_GetVector,"ax",%progbits
  48              		.align	2
  49              		.global	D_Interrupt_GetVector
  50              		.code	16
  51              		.thumb_func
  52              		.type	D_Interrupt_GetVector, %function
  53              	D_Interrupt_GetVector:
  54              	.LFB40:
 219:Generated_Source\PSoC4/D_Interrupt.c **** 
 220:Generated_Source\PSoC4/D_Interrupt.c **** 
 221:Generated_Source\PSoC4/D_Interrupt.c **** /*******************************************************************************
 222:Generated_Source\PSoC4/D_Interrupt.c **** * Function Name: D_Interrupt_GetVector
 223:Generated_Source\PSoC4/D_Interrupt.c **** ********************************************************************************
 224:Generated_Source\PSoC4/D_Interrupt.c **** *
 225:Generated_Source\PSoC4/D_Interrupt.c **** * Summary:
 226:Generated_Source\PSoC4/D_Interrupt.c **** *   Gets the "address" of the current ISR vector for the Interrupt.
 227:Generated_Source\PSoC4/D_Interrupt.c **** *
 228:Generated_Source\PSoC4/D_Interrupt.c **** * Parameters:
 229:Generated_Source\PSoC4/D_Interrupt.c **** *   None
 230:Generated_Source\PSoC4/D_Interrupt.c **** *
 231:Generated_Source\PSoC4/D_Interrupt.c **** * Return:
ARM GAS  C:\Users\quint\AppData\Local\Temp\ccJgvGOZ.s 			page 6


 232:Generated_Source\PSoC4/D_Interrupt.c **** *   Address of the ISR in the interrupt vector table.
 233:Generated_Source\PSoC4/D_Interrupt.c **** *
 234:Generated_Source\PSoC4/D_Interrupt.c **** *******************************************************************************/
 235:Generated_Source\PSoC4/D_Interrupt.c **** cyisraddress D_Interrupt_GetVector(void)
 236:Generated_Source\PSoC4/D_Interrupt.c **** {
  55              		.loc 1 236 0
  56              		.cfi_startproc
  57              		@ args = 0, pretend = 0, frame = 0
  58              		@ frame_needed = 0, uses_anonymous_args = 0
  59              		@ link register save eliminated.
 237:Generated_Source\PSoC4/D_Interrupt.c ****     return CyRamVectors[CYINT_IRQ_BASE + D_Interrupt__INTC_NUMBER];
  60              		.loc 1 237 0
  61 0000 014B     		ldr	r3, .L5
  62 0002 186D     		ldr	r0, [r3, #80]
 238:Generated_Source\PSoC4/D_Interrupt.c **** }
  63              		.loc 1 238 0
  64              		@ sp needed
  65 0004 7047     		bx	lr
  66              	.L6:
  67 0006 C046     		.align	2
  68              	.L5:
  69 0008 00000000 		.word	CyRamVectors
  70              		.cfi_endproc
  71              	.LFE40:
  72              		.size	D_Interrupt_GetVector, .-D_Interrupt_GetVector
  73              		.section	.text.D_Interrupt_SetPriority,"ax",%progbits
  74              		.align	2
  75              		.global	D_Interrupt_SetPriority
  76              		.code	16
  77              		.thumb_func
  78              		.type	D_Interrupt_SetPriority, %function
  79              	D_Interrupt_SetPriority:
  80              	.LFB41:
 239:Generated_Source\PSoC4/D_Interrupt.c **** 
 240:Generated_Source\PSoC4/D_Interrupt.c **** 
 241:Generated_Source\PSoC4/D_Interrupt.c **** /*******************************************************************************
 242:Generated_Source\PSoC4/D_Interrupt.c **** * Function Name: D_Interrupt_SetPriority
 243:Generated_Source\PSoC4/D_Interrupt.c **** ********************************************************************************
 244:Generated_Source\PSoC4/D_Interrupt.c **** *
 245:Generated_Source\PSoC4/D_Interrupt.c **** * Summary:
 246:Generated_Source\PSoC4/D_Interrupt.c **** *   Sets the Priority of the Interrupt. 
 247:Generated_Source\PSoC4/D_Interrupt.c **** *
 248:Generated_Source\PSoC4/D_Interrupt.c **** *   Note calling D_Interrupt_Start or D_Interrupt_StartEx will 
 249:Generated_Source\PSoC4/D_Interrupt.c **** *   override any effect this API would have had. This API should only be called
 250:Generated_Source\PSoC4/D_Interrupt.c **** *   after D_Interrupt_Start or D_Interrupt_StartEx has been called. 
 251:Generated_Source\PSoC4/D_Interrupt.c **** *   To set the initial priority for the component, use the Design-Wide Resources
 252:Generated_Source\PSoC4/D_Interrupt.c **** *   Interrupt Editor.
 253:Generated_Source\PSoC4/D_Interrupt.c **** *
 254:Generated_Source\PSoC4/D_Interrupt.c **** *   Note This API has no effect on Non-maskable interrupt NMI).
 255:Generated_Source\PSoC4/D_Interrupt.c **** *
 256:Generated_Source\PSoC4/D_Interrupt.c **** * Parameters:
 257:Generated_Source\PSoC4/D_Interrupt.c **** *   priority: Priority of the interrupt, 0 being the highest priority
 258:Generated_Source\PSoC4/D_Interrupt.c **** *             PSoC 3 and PSoC 5LP: Priority is from 0 to 7.
 259:Generated_Source\PSoC4/D_Interrupt.c **** *             PSoC 4: Priority is from 0 to 3.
 260:Generated_Source\PSoC4/D_Interrupt.c **** *
 261:Generated_Source\PSoC4/D_Interrupt.c **** * Return:
 262:Generated_Source\PSoC4/D_Interrupt.c **** *   None
ARM GAS  C:\Users\quint\AppData\Local\Temp\ccJgvGOZ.s 			page 7


 263:Generated_Source\PSoC4/D_Interrupt.c **** *
 264:Generated_Source\PSoC4/D_Interrupt.c **** *******************************************************************************/
 265:Generated_Source\PSoC4/D_Interrupt.c **** void D_Interrupt_SetPriority(uint8 priority)
 266:Generated_Source\PSoC4/D_Interrupt.c **** {
  81              		.loc 1 266 0
  82              		.cfi_startproc
  83              		@ args = 0, pretend = 0, frame = 0
  84              		@ frame_needed = 0, uses_anonymous_args = 0
  85              	.LVL1:
  86 0000 10B5     		push	{r4, lr}
  87              		.cfi_def_cfa_offset 8
  88              		.cfi_offset 4, -8
  89              		.cfi_offset 14, -4
  90 0002 0400     		movs	r4, r0
  91              	.LVL2:
 267:Generated_Source\PSoC4/D_Interrupt.c **** 	uint8 interruptState;
 268:Generated_Source\PSoC4/D_Interrupt.c ****     uint32 priorityOffset = ((D_Interrupt__INTC_NUMBER % 4u) * 8u) + 6u;
 269:Generated_Source\PSoC4/D_Interrupt.c ****     
 270:Generated_Source\PSoC4/D_Interrupt.c **** 	interruptState = CyEnterCriticalSection();
  92              		.loc 1 270 0
  93 0004 FFF7FEFF 		bl	CyEnterCriticalSection
  94              	.LVL3:
 271:Generated_Source\PSoC4/D_Interrupt.c ****     *D_Interrupt_INTC_PRIOR = (*D_Interrupt_INTC_PRIOR & (uint32)(~D_Interrupt__INTC_PRIOR_MASK)) |
  95              		.loc 1 271 0
  96 0008 044A     		ldr	r2, .L8
  97 000a 1368     		ldr	r3, [r2]
  98 000c C021     		movs	r1, #192
  99 000e 8B43     		bics	r3, r1
 272:Generated_Source\PSoC4/D_Interrupt.c ****                                     ((uint32)priority << priorityOffset);
 100              		.loc 1 272 0
 101 0010 A401     		lsls	r4, r4, #6
 271:Generated_Source\PSoC4/D_Interrupt.c ****     *D_Interrupt_INTC_PRIOR = (*D_Interrupt_INTC_PRIOR & (uint32)(~D_Interrupt__INTC_PRIOR_MASK)) |
 102              		.loc 1 271 0
 103 0012 1C43     		orrs	r4, r3
 104 0014 1460     		str	r4, [r2]
 273:Generated_Source\PSoC4/D_Interrupt.c **** 	CyExitCriticalSection(interruptState);
 105              		.loc 1 273 0
 106 0016 FFF7FEFF 		bl	CyExitCriticalSection
 107              	.LVL4:
 274:Generated_Source\PSoC4/D_Interrupt.c **** }
 108              		.loc 1 274 0
 109              		@ sp needed
 110 001a 10BD     		pop	{r4, pc}
 111              	.L9:
 112              		.align	2
 113              	.L8:
 114 001c 04E400E0 		.word	-536812540
 115              		.cfi_endproc
 116              	.LFE41:
 117              		.size	D_Interrupt_SetPriority, .-D_Interrupt_SetPriority
 118              		.section	.text.D_Interrupt_GetPriority,"ax",%progbits
 119              		.align	2
 120              		.global	D_Interrupt_GetPriority
 121              		.code	16
 122              		.thumb_func
 123              		.type	D_Interrupt_GetPriority, %function
 124              	D_Interrupt_GetPriority:
ARM GAS  C:\Users\quint\AppData\Local\Temp\ccJgvGOZ.s 			page 8


 125              	.LFB42:
 275:Generated_Source\PSoC4/D_Interrupt.c **** 
 276:Generated_Source\PSoC4/D_Interrupt.c **** 
 277:Generated_Source\PSoC4/D_Interrupt.c **** /*******************************************************************************
 278:Generated_Source\PSoC4/D_Interrupt.c **** * Function Name: D_Interrupt_GetPriority
 279:Generated_Source\PSoC4/D_Interrupt.c **** ********************************************************************************
 280:Generated_Source\PSoC4/D_Interrupt.c **** *
 281:Generated_Source\PSoC4/D_Interrupt.c **** * Summary:
 282:Generated_Source\PSoC4/D_Interrupt.c **** *   Gets the Priority of the Interrupt.
 283:Generated_Source\PSoC4/D_Interrupt.c **** *
 284:Generated_Source\PSoC4/D_Interrupt.c **** * Parameters:
 285:Generated_Source\PSoC4/D_Interrupt.c **** *   None
 286:Generated_Source\PSoC4/D_Interrupt.c **** *
 287:Generated_Source\PSoC4/D_Interrupt.c **** * Return:
 288:Generated_Source\PSoC4/D_Interrupt.c **** *   Priority of the interrupt, 0 being the highest priority
 289:Generated_Source\PSoC4/D_Interrupt.c **** *    PSoC 3 and PSoC 5LP: Priority is from 0 to 7.
 290:Generated_Source\PSoC4/D_Interrupt.c **** *    PSoC 4: Priority is from 0 to 3.
 291:Generated_Source\PSoC4/D_Interrupt.c **** *
 292:Generated_Source\PSoC4/D_Interrupt.c **** *******************************************************************************/
 293:Generated_Source\PSoC4/D_Interrupt.c **** uint8 D_Interrupt_GetPriority(void)
 294:Generated_Source\PSoC4/D_Interrupt.c **** {
 126              		.loc 1 294 0
 127              		.cfi_startproc
 128              		@ args = 0, pretend = 0, frame = 0
 129              		@ frame_needed = 0, uses_anonymous_args = 0
 130              		@ link register save eliminated.
 131              	.LVL5:
 295:Generated_Source\PSoC4/D_Interrupt.c ****     uint32 priority;
 296:Generated_Source\PSoC4/D_Interrupt.c **** 	uint32 priorityOffset = ((D_Interrupt__INTC_NUMBER % 4u) * 8u) + 6u;
 297:Generated_Source\PSoC4/D_Interrupt.c **** 
 298:Generated_Source\PSoC4/D_Interrupt.c ****     priority = (*D_Interrupt_INTC_PRIOR & D_Interrupt__INTC_PRIOR_MASK) >> priorityOffset;
 132              		.loc 1 298 0
 133 0000 024B     		ldr	r3, .L11
 134 0002 1868     		ldr	r0, [r3]
 135 0004 8009     		lsrs	r0, r0, #6
 136              	.LVL6:
 299:Generated_Source\PSoC4/D_Interrupt.c **** 
 300:Generated_Source\PSoC4/D_Interrupt.c ****     return (uint8)priority;
 137              		.loc 1 300 0
 138 0006 0323     		movs	r3, #3
 139 0008 1840     		ands	r0, r3
 140              	.LVL7:
 301:Generated_Source\PSoC4/D_Interrupt.c **** }
 141              		.loc 1 301 0
 142              		@ sp needed
 143 000a 7047     		bx	lr
 144              	.L12:
 145              		.align	2
 146              	.L11:
 147 000c 04E400E0 		.word	-536812540
 148              		.cfi_endproc
 149              	.LFE42:
 150              		.size	D_Interrupt_GetPriority, .-D_Interrupt_GetPriority
 151              		.section	.text.D_Interrupt_Enable,"ax",%progbits
 152              		.align	2
 153              		.global	D_Interrupt_Enable
 154              		.code	16
ARM GAS  C:\Users\quint\AppData\Local\Temp\ccJgvGOZ.s 			page 9


 155              		.thumb_func
 156              		.type	D_Interrupt_Enable, %function
 157              	D_Interrupt_Enable:
 158              	.LFB43:
 302:Generated_Source\PSoC4/D_Interrupt.c **** 
 303:Generated_Source\PSoC4/D_Interrupt.c **** 
 304:Generated_Source\PSoC4/D_Interrupt.c **** /*******************************************************************************
 305:Generated_Source\PSoC4/D_Interrupt.c **** * Function Name: D_Interrupt_Enable
 306:Generated_Source\PSoC4/D_Interrupt.c **** ********************************************************************************
 307:Generated_Source\PSoC4/D_Interrupt.c **** *
 308:Generated_Source\PSoC4/D_Interrupt.c **** * Summary:
 309:Generated_Source\PSoC4/D_Interrupt.c **** *   Enables the interrupt to the interrupt controller. Do not call this function
 310:Generated_Source\PSoC4/D_Interrupt.c **** *   unless ISR_Start() has been called or the functionality of the ISR_Start() 
 311:Generated_Source\PSoC4/D_Interrupt.c **** *   function, which sets the vector and the priority, has been called.
 312:Generated_Source\PSoC4/D_Interrupt.c **** *
 313:Generated_Source\PSoC4/D_Interrupt.c **** * Parameters:
 314:Generated_Source\PSoC4/D_Interrupt.c **** *   None
 315:Generated_Source\PSoC4/D_Interrupt.c **** *
 316:Generated_Source\PSoC4/D_Interrupt.c **** * Return:
 317:Generated_Source\PSoC4/D_Interrupt.c **** *   None
 318:Generated_Source\PSoC4/D_Interrupt.c **** *
 319:Generated_Source\PSoC4/D_Interrupt.c **** *******************************************************************************/
 320:Generated_Source\PSoC4/D_Interrupt.c **** void D_Interrupt_Enable(void)
 321:Generated_Source\PSoC4/D_Interrupt.c **** {
 159              		.loc 1 321 0
 160              		.cfi_startproc
 161              		@ args = 0, pretend = 0, frame = 0
 162              		@ frame_needed = 0, uses_anonymous_args = 0
 163              		@ link register save eliminated.
 322:Generated_Source\PSoC4/D_Interrupt.c ****     /* Enable the general interrupt. */
 323:Generated_Source\PSoC4/D_Interrupt.c ****     *D_Interrupt_INTC_SET_EN = D_Interrupt__INTC_MASK;
 164              		.loc 1 323 0
 165 0000 1022     		movs	r2, #16
 166 0002 014B     		ldr	r3, .L14
 167 0004 1A60     		str	r2, [r3]
 324:Generated_Source\PSoC4/D_Interrupt.c **** }
 168              		.loc 1 324 0
 169              		@ sp needed
 170 0006 7047     		bx	lr
 171              	.L15:
 172              		.align	2
 173              	.L14:
 174 0008 00E100E0 		.word	-536813312
 175              		.cfi_endproc
 176              	.LFE43:
 177              		.size	D_Interrupt_Enable, .-D_Interrupt_Enable
 178              		.section	.text.D_Interrupt_GetState,"ax",%progbits
 179              		.align	2
 180              		.global	D_Interrupt_GetState
 181              		.code	16
 182              		.thumb_func
 183              		.type	D_Interrupt_GetState, %function
 184              	D_Interrupt_GetState:
 185              	.LFB44:
 325:Generated_Source\PSoC4/D_Interrupt.c **** 
 326:Generated_Source\PSoC4/D_Interrupt.c **** 
 327:Generated_Source\PSoC4/D_Interrupt.c **** /*******************************************************************************
ARM GAS  C:\Users\quint\AppData\Local\Temp\ccJgvGOZ.s 			page 10


 328:Generated_Source\PSoC4/D_Interrupt.c **** * Function Name: D_Interrupt_GetState
 329:Generated_Source\PSoC4/D_Interrupt.c **** ********************************************************************************
 330:Generated_Source\PSoC4/D_Interrupt.c **** *
 331:Generated_Source\PSoC4/D_Interrupt.c **** * Summary:
 332:Generated_Source\PSoC4/D_Interrupt.c **** *   Gets the state (enabled, disabled) of the Interrupt.
 333:Generated_Source\PSoC4/D_Interrupt.c **** *
 334:Generated_Source\PSoC4/D_Interrupt.c **** * Parameters:
 335:Generated_Source\PSoC4/D_Interrupt.c **** *   None
 336:Generated_Source\PSoC4/D_Interrupt.c **** *
 337:Generated_Source\PSoC4/D_Interrupt.c **** * Return:
 338:Generated_Source\PSoC4/D_Interrupt.c **** *   1 if enabled, 0 if disabled.
 339:Generated_Source\PSoC4/D_Interrupt.c **** *
 340:Generated_Source\PSoC4/D_Interrupt.c **** *******************************************************************************/
 341:Generated_Source\PSoC4/D_Interrupt.c **** uint8 D_Interrupt_GetState(void)
 342:Generated_Source\PSoC4/D_Interrupt.c **** {
 186              		.loc 1 342 0
 187              		.cfi_startproc
 188              		@ args = 0, pretend = 0, frame = 0
 189              		@ frame_needed = 0, uses_anonymous_args = 0
 190              		@ link register save eliminated.
 343:Generated_Source\PSoC4/D_Interrupt.c ****     /* Get the state of the general interrupt. */
 344:Generated_Source\PSoC4/D_Interrupt.c ****     return ((*D_Interrupt_INTC_SET_EN & (uint32)D_Interrupt__INTC_MASK) != 0u) ? 1u:0u;
 191              		.loc 1 344 0
 192 0000 034B     		ldr	r3, .L19
 193 0002 1B68     		ldr	r3, [r3]
 194 0004 DB06     		lsls	r3, r3, #27
 195 0006 01D5     		bpl	.L18
 196 0008 0120     		movs	r0, #1
 197 000a 00E0     		b	.L17
 198              	.L18:
 199 000c 0020     		movs	r0, #0
 200              	.L17:
 345:Generated_Source\PSoC4/D_Interrupt.c **** }
 201              		.loc 1 345 0 discriminator 4
 202              		@ sp needed
 203 000e 7047     		bx	lr
 204              	.L20:
 205              		.align	2
 206              	.L19:
 207 0010 00E100E0 		.word	-536813312
 208              		.cfi_endproc
 209              	.LFE44:
 210              		.size	D_Interrupt_GetState, .-D_Interrupt_GetState
 211              		.section	.text.D_Interrupt_Disable,"ax",%progbits
 212              		.align	2
 213              		.global	D_Interrupt_Disable
 214              		.code	16
 215              		.thumb_func
 216              		.type	D_Interrupt_Disable, %function
 217              	D_Interrupt_Disable:
 218              	.LFB45:
 346:Generated_Source\PSoC4/D_Interrupt.c **** 
 347:Generated_Source\PSoC4/D_Interrupt.c **** 
 348:Generated_Source\PSoC4/D_Interrupt.c **** /*******************************************************************************
 349:Generated_Source\PSoC4/D_Interrupt.c **** * Function Name: D_Interrupt_Disable
 350:Generated_Source\PSoC4/D_Interrupt.c **** ********************************************************************************
 351:Generated_Source\PSoC4/D_Interrupt.c **** *
ARM GAS  C:\Users\quint\AppData\Local\Temp\ccJgvGOZ.s 			page 11


 352:Generated_Source\PSoC4/D_Interrupt.c **** * Summary:
 353:Generated_Source\PSoC4/D_Interrupt.c **** *   Disables the Interrupt in the interrupt controller.
 354:Generated_Source\PSoC4/D_Interrupt.c **** *
 355:Generated_Source\PSoC4/D_Interrupt.c **** * Parameters:
 356:Generated_Source\PSoC4/D_Interrupt.c **** *   None
 357:Generated_Source\PSoC4/D_Interrupt.c **** *
 358:Generated_Source\PSoC4/D_Interrupt.c **** * Return:
 359:Generated_Source\PSoC4/D_Interrupt.c **** *   None
 360:Generated_Source\PSoC4/D_Interrupt.c **** *
 361:Generated_Source\PSoC4/D_Interrupt.c **** *******************************************************************************/
 362:Generated_Source\PSoC4/D_Interrupt.c **** void D_Interrupt_Disable(void)
 363:Generated_Source\PSoC4/D_Interrupt.c **** {
 219              		.loc 1 363 0
 220              		.cfi_startproc
 221              		@ args = 0, pretend = 0, frame = 0
 222              		@ frame_needed = 0, uses_anonymous_args = 0
 223              		@ link register save eliminated.
 364:Generated_Source\PSoC4/D_Interrupt.c ****     /* Disable the general interrupt. */
 365:Generated_Source\PSoC4/D_Interrupt.c ****     *D_Interrupt_INTC_CLR_EN = D_Interrupt__INTC_MASK;
 224              		.loc 1 365 0
 225 0000 1022     		movs	r2, #16
 226 0002 014B     		ldr	r3, .L22
 227 0004 1A60     		str	r2, [r3]
 366:Generated_Source\PSoC4/D_Interrupt.c **** }
 228              		.loc 1 366 0
 229              		@ sp needed
 230 0006 7047     		bx	lr
 231              	.L23:
 232              		.align	2
 233              	.L22:
 234 0008 80E100E0 		.word	-536813184
 235              		.cfi_endproc
 236              	.LFE45:
 237              		.size	D_Interrupt_Disable, .-D_Interrupt_Disable
 238              		.section	.text.D_Interrupt_Start,"ax",%progbits
 239              		.align	2
 240              		.global	D_Interrupt_Start
 241              		.code	16
 242              		.thumb_func
 243              		.type	D_Interrupt_Start, %function
 244              	D_Interrupt_Start:
 245              	.LFB35:
  61:Generated_Source\PSoC4/D_Interrupt.c ****     /* For all we know the interrupt is active. */
 246              		.loc 1 61 0
 247              		.cfi_startproc
 248              		@ args = 0, pretend = 0, frame = 0
 249              		@ frame_needed = 0, uses_anonymous_args = 0
 250 0000 10B5     		push	{r4, lr}
 251              		.cfi_def_cfa_offset 8
 252              		.cfi_offset 4, -8
 253              		.cfi_offset 14, -4
  63:Generated_Source\PSoC4/D_Interrupt.c **** 
 254              		.loc 1 63 0
 255 0002 FFF7FEFF 		bl	D_Interrupt_Disable
 256              	.LVL8:
  66:Generated_Source\PSoC4/D_Interrupt.c **** 
 257              		.loc 1 66 0
ARM GAS  C:\Users\quint\AppData\Local\Temp\ccJgvGOZ.s 			page 12


 258 0006 0448     		ldr	r0, .L25
 259 0008 FFF7FEFF 		bl	D_Interrupt_SetVector
 260              	.LVL9:
  69:Generated_Source\PSoC4/D_Interrupt.c **** 
 261              		.loc 1 69 0
 262 000c 0320     		movs	r0, #3
 263 000e FFF7FEFF 		bl	D_Interrupt_SetPriority
 264              	.LVL10:
  72:Generated_Source\PSoC4/D_Interrupt.c **** }
 265              		.loc 1 72 0
 266 0012 FFF7FEFF 		bl	D_Interrupt_Enable
 267              	.LVL11:
  73:Generated_Source\PSoC4/D_Interrupt.c **** 
 268              		.loc 1 73 0
 269              		@ sp needed
 270 0016 10BD     		pop	{r4, pc}
 271              	.L26:
 272              		.align	2
 273              	.L25:
 274 0018 00000000 		.word	D_Interrupt_Interrupt
 275              		.cfi_endproc
 276              	.LFE35:
 277              		.size	D_Interrupt_Start, .-D_Interrupt_Start
 278              		.section	.text.D_Interrupt_StartEx,"ax",%progbits
 279              		.align	2
 280              		.global	D_Interrupt_StartEx
 281              		.code	16
 282              		.thumb_func
 283              		.type	D_Interrupt_StartEx, %function
 284              	D_Interrupt_StartEx:
 285              	.LFB36:
 104:Generated_Source\PSoC4/D_Interrupt.c ****     /* For all we know the interrupt is active. */
 286              		.loc 1 104 0
 287              		.cfi_startproc
 288              		@ args = 0, pretend = 0, frame = 0
 289              		@ frame_needed = 0, uses_anonymous_args = 0
 290              	.LVL12:
 291 0000 10B5     		push	{r4, lr}
 292              		.cfi_def_cfa_offset 8
 293              		.cfi_offset 4, -8
 294              		.cfi_offset 14, -4
 295 0002 0400     		movs	r4, r0
 106:Generated_Source\PSoC4/D_Interrupt.c **** 
 296              		.loc 1 106 0
 297 0004 FFF7FEFF 		bl	D_Interrupt_Disable
 298              	.LVL13:
 109:Generated_Source\PSoC4/D_Interrupt.c **** 
 299              		.loc 1 109 0
 300 0008 2000     		movs	r0, r4
 301 000a FFF7FEFF 		bl	D_Interrupt_SetVector
 302              	.LVL14:
 112:Generated_Source\PSoC4/D_Interrupt.c **** 
 303              		.loc 1 112 0
 304 000e 0320     		movs	r0, #3
 305 0010 FFF7FEFF 		bl	D_Interrupt_SetPriority
 306              	.LVL15:
 115:Generated_Source\PSoC4/D_Interrupt.c **** }
ARM GAS  C:\Users\quint\AppData\Local\Temp\ccJgvGOZ.s 			page 13


 307              		.loc 1 115 0
 308 0014 FFF7FEFF 		bl	D_Interrupt_Enable
 309              	.LVL16:
 116:Generated_Source\PSoC4/D_Interrupt.c **** 
 310              		.loc 1 116 0
 311              		@ sp needed
 312              	.LVL17:
 313 0018 10BD     		pop	{r4, pc}
 314              		.cfi_endproc
 315              	.LFE36:
 316              		.size	D_Interrupt_StartEx, .-D_Interrupt_StartEx
 317 001a C046     		.section	.text.D_Interrupt_Stop,"ax",%progbits
 318              		.align	2
 319              		.global	D_Interrupt_Stop
 320              		.code	16
 321              		.thumb_func
 322              		.type	D_Interrupt_Stop, %function
 323              	D_Interrupt_Stop:
 324              	.LFB37:
 134:Generated_Source\PSoC4/D_Interrupt.c ****     /* Disable this interrupt. */
 325              		.loc 1 134 0
 326              		.cfi_startproc
 327              		@ args = 0, pretend = 0, frame = 0
 328              		@ frame_needed = 0, uses_anonymous_args = 0
 329 0000 10B5     		push	{r4, lr}
 330              		.cfi_def_cfa_offset 8
 331              		.cfi_offset 4, -8
 332              		.cfi_offset 14, -4
 136:Generated_Source\PSoC4/D_Interrupt.c **** 
 333              		.loc 1 136 0
 334 0002 FFF7FEFF 		bl	D_Interrupt_Disable
 335              	.LVL18:
 139:Generated_Source\PSoC4/D_Interrupt.c **** }
 336              		.loc 1 139 0
 337 0006 0248     		ldr	r0, .L29
 338 0008 FFF7FEFF 		bl	D_Interrupt_SetVector
 339              	.LVL19:
 140:Generated_Source\PSoC4/D_Interrupt.c **** 
 340              		.loc 1 140 0
 341              		@ sp needed
 342 000c 10BD     		pop	{r4, pc}
 343              	.L30:
 344 000e C046     		.align	2
 345              	.L29:
 346 0010 00000000 		.word	IntDefaultHandler
 347              		.cfi_endproc
 348              	.LFE37:
 349              		.size	D_Interrupt_Stop, .-D_Interrupt_Stop
 350              		.section	.text.D_Interrupt_SetPending,"ax",%progbits
 351              		.align	2
 352              		.global	D_Interrupt_SetPending
 353              		.code	16
 354              		.thumb_func
 355              		.type	D_Interrupt_SetPending, %function
 356              	D_Interrupt_SetPending:
 357              	.LFB46:
 367:Generated_Source\PSoC4/D_Interrupt.c **** 
ARM GAS  C:\Users\quint\AppData\Local\Temp\ccJgvGOZ.s 			page 14


 368:Generated_Source\PSoC4/D_Interrupt.c **** 
 369:Generated_Source\PSoC4/D_Interrupt.c **** /*******************************************************************************
 370:Generated_Source\PSoC4/D_Interrupt.c **** * Function Name: D_Interrupt_SetPending
 371:Generated_Source\PSoC4/D_Interrupt.c **** ********************************************************************************
 372:Generated_Source\PSoC4/D_Interrupt.c **** *
 373:Generated_Source\PSoC4/D_Interrupt.c **** * Summary:
 374:Generated_Source\PSoC4/D_Interrupt.c **** *   Causes the Interrupt to enter the pending state, a software method of
 375:Generated_Source\PSoC4/D_Interrupt.c **** *   generating the interrupt.
 376:Generated_Source\PSoC4/D_Interrupt.c **** *
 377:Generated_Source\PSoC4/D_Interrupt.c **** * Parameters:
 378:Generated_Source\PSoC4/D_Interrupt.c **** *   None
 379:Generated_Source\PSoC4/D_Interrupt.c **** *
 380:Generated_Source\PSoC4/D_Interrupt.c **** * Return:
 381:Generated_Source\PSoC4/D_Interrupt.c **** *   None
 382:Generated_Source\PSoC4/D_Interrupt.c **** *
 383:Generated_Source\PSoC4/D_Interrupt.c **** * Side Effects:
 384:Generated_Source\PSoC4/D_Interrupt.c **** *   If interrupts are enabled and the interrupt is set up properly, the ISR is
 385:Generated_Source\PSoC4/D_Interrupt.c **** *   entered (depending on the priority of this interrupt and other pending 
 386:Generated_Source\PSoC4/D_Interrupt.c **** *   interrupts).
 387:Generated_Source\PSoC4/D_Interrupt.c **** *
 388:Generated_Source\PSoC4/D_Interrupt.c **** *******************************************************************************/
 389:Generated_Source\PSoC4/D_Interrupt.c **** void D_Interrupt_SetPending(void)
 390:Generated_Source\PSoC4/D_Interrupt.c **** {
 358              		.loc 1 390 0
 359              		.cfi_startproc
 360              		@ args = 0, pretend = 0, frame = 0
 361              		@ frame_needed = 0, uses_anonymous_args = 0
 362              		@ link register save eliminated.
 391:Generated_Source\PSoC4/D_Interrupt.c ****     *D_Interrupt_INTC_SET_PD = D_Interrupt__INTC_MASK;
 363              		.loc 1 391 0
 364 0000 1022     		movs	r2, #16
 365 0002 014B     		ldr	r3, .L32
 366 0004 1A60     		str	r2, [r3]
 392:Generated_Source\PSoC4/D_Interrupt.c **** }
 367              		.loc 1 392 0
 368              		@ sp needed
 369 0006 7047     		bx	lr
 370              	.L33:
 371              		.align	2
 372              	.L32:
 373 0008 00E200E0 		.word	-536813056
 374              		.cfi_endproc
 375              	.LFE46:
 376              		.size	D_Interrupt_SetPending, .-D_Interrupt_SetPending
 377              		.section	.text.D_Interrupt_ClearPending,"ax",%progbits
 378              		.align	2
 379              		.global	D_Interrupt_ClearPending
 380              		.code	16
 381              		.thumb_func
 382              		.type	D_Interrupt_ClearPending, %function
 383              	D_Interrupt_ClearPending:
 384              	.LFB47:
 393:Generated_Source\PSoC4/D_Interrupt.c **** 
 394:Generated_Source\PSoC4/D_Interrupt.c **** 
 395:Generated_Source\PSoC4/D_Interrupt.c **** /*******************************************************************************
 396:Generated_Source\PSoC4/D_Interrupt.c **** * Function Name: D_Interrupt_ClearPending
 397:Generated_Source\PSoC4/D_Interrupt.c **** ********************************************************************************
ARM GAS  C:\Users\quint\AppData\Local\Temp\ccJgvGOZ.s 			page 15


 398:Generated_Source\PSoC4/D_Interrupt.c **** *
 399:Generated_Source\PSoC4/D_Interrupt.c **** * Summary:
 400:Generated_Source\PSoC4/D_Interrupt.c **** *   Clears a pending interrupt in the interrupt controller.
 401:Generated_Source\PSoC4/D_Interrupt.c **** *
 402:Generated_Source\PSoC4/D_Interrupt.c **** *   Note Some interrupt sources are clear-on-read and require the block 
 403:Generated_Source\PSoC4/D_Interrupt.c **** *   interrupt/status register to be read/cleared with the appropriate block API 
 404:Generated_Source\PSoC4/D_Interrupt.c **** *   (GPIO, UART, and so on). Otherwise the ISR will continue to remain in 
 405:Generated_Source\PSoC4/D_Interrupt.c **** *   pending state even though the interrupt itself is cleared using this API.
 406:Generated_Source\PSoC4/D_Interrupt.c **** *
 407:Generated_Source\PSoC4/D_Interrupt.c **** * Parameters:
 408:Generated_Source\PSoC4/D_Interrupt.c **** *   None
 409:Generated_Source\PSoC4/D_Interrupt.c **** *
 410:Generated_Source\PSoC4/D_Interrupt.c **** * Return:
 411:Generated_Source\PSoC4/D_Interrupt.c **** *   None
 412:Generated_Source\PSoC4/D_Interrupt.c **** *
 413:Generated_Source\PSoC4/D_Interrupt.c **** *******************************************************************************/
 414:Generated_Source\PSoC4/D_Interrupt.c **** void D_Interrupt_ClearPending(void)
 415:Generated_Source\PSoC4/D_Interrupt.c **** {
 385              		.loc 1 415 0
 386              		.cfi_startproc
 387              		@ args = 0, pretend = 0, frame = 0
 388              		@ frame_needed = 0, uses_anonymous_args = 0
 389              		@ link register save eliminated.
 416:Generated_Source\PSoC4/D_Interrupt.c ****     *D_Interrupt_INTC_CLR_PD = D_Interrupt__INTC_MASK;
 390              		.loc 1 416 0
 391 0000 1022     		movs	r2, #16
 392 0002 014B     		ldr	r3, .L35
 393 0004 1A60     		str	r2, [r3]
 417:Generated_Source\PSoC4/D_Interrupt.c **** }
 394              		.loc 1 417 0
 395              		@ sp needed
 396 0006 7047     		bx	lr
 397              	.L36:
 398              		.align	2
 399              	.L35:
 400 0008 80E200E0 		.word	-536812928
 401              		.cfi_endproc
 402              	.LFE47:
 403              		.size	D_Interrupt_ClearPending, .-D_Interrupt_ClearPending
 404              		.section	.text.D_Interrupt_Interrupt,"ax",%progbits
 405              		.align	2
 406              		.global	D_Interrupt_Interrupt
 407              		.code	16
 408              		.thumb_func
 409              		.type	D_Interrupt_Interrupt, %function
 410              	D_Interrupt_Interrupt:
 411              	.LFB38:
 164:Generated_Source\PSoC4/D_Interrupt.c ****     #ifdef D_Interrupt_INTERRUPT_INTERRUPT_CALLBACK
 412              		.loc 1 164 0
 413              		.cfi_startproc
 414              		@ args = 0, pretend = 0, frame = 0
 415              		@ frame_needed = 0, uses_anonymous_args = 0
 416 0000 10B5     		push	{r4, lr}
 417              		.cfi_def_cfa_offset 8
 418              		.cfi_offset 4, -8
 419              		.cfi_offset 14, -4
 420              	.L38:
ARM GAS  C:\Users\quint\AppData\Local\Temp\ccJgvGOZ.s 			page 16


 171:Generated_Source\PSoC4/D_Interrupt.c **** 
 421              		.loc 1 171 0 discriminator 1
 422 0002 FFF7FEFF 		bl	D_Button_Read
 423              	.LVL20:
 424 0006 0128     		cmp	r0, #1
 425 0008 FBD0     		beq	.L38
 426 000a 06E0     		b	.L39
 427              	.L40:
 177:Generated_Source\PSoC4/D_Interrupt.c ****                  //sprintf(mystring, "%5d", count);
 428              		.loc 1 177 0
 429 000c 064A     		ldr	r2, .L41
 430 000e 1368     		ldr	r3, [r2]
 431 0010 013B     		subs	r3, r3, #1
 432 0012 1360     		str	r3, [r2]
 180:Generated_Source\PSoC4/D_Interrupt.c ****             }
 433              		.loc 1 180 0
 434 0014 0A20     		movs	r0, #10
 435 0016 FFF7FEFF 		bl	CyDelay
 436              	.LVL21:
 437              	.L39:
 175:Generated_Source\PSoC4/D_Interrupt.c ****             {  
 438              		.loc 1 175 0
 439 001a FFF7FEFF 		bl	D_Button_Read
 440              	.LVL22:
 441 001e 0028     		cmp	r0, #0
 442 0020 F4D0     		beq	.L40
 183:Generated_Source\PSoC4/D_Interrupt.c ****     /* `#END` */
 443              		.loc 1 183 0
 444 0022 FFF7FEFF 		bl	D_Interrupt_ClearPending
 445              	.LVL23:
 185:Generated_Source\PSoC4/D_Interrupt.c **** 
 446              		.loc 1 185 0
 447              		@ sp needed
 448 0026 10BD     		pop	{r4, pc}
 449              	.L42:
 450              		.align	2
 451              	.L41:
 452 0028 00000000 		.word	count
 453              		.cfi_endproc
 454              	.LFE38:
 455              		.size	D_Interrupt_Interrupt, .-D_Interrupt_Interrupt
 456              		.comm	GLCD_FONT8x16,1552,4
 457              		.text
 458              	.Letext0:
 459              		.file 2 "Generated_Source\\PSoC4/cytypes.h"
 460              		.file 3 "Generated_Source\\PSoC4\\GLCD.h"
 461              		.file 4 "Generated_Source\\PSoC4/CyLib.h"
 462              		.file 5 "Generated_Source\\PSoC4\\D_Button.h"