ARM GAS  C:\Users\quint\AppData\Local\Temp\ccYNBTnm.s 			page 1


   1              		.syntax unified
   2              		.cpu cortex-m0
   3              		.fpu softvfp
   4              		.eabi_attribute 20, 1
   5              		.eabi_attribute 21, 1
   6              		.eabi_attribute 23, 3
   7              		.eabi_attribute 24, 1
   8              		.eabi_attribute 25, 1
   9              		.eabi_attribute 26, 1
  10              		.eabi_attribute 30, 1
  11              		.eabi_attribute 34, 0
  12              		.eabi_attribute 18, 4
  13              		.thumb
  14              		.syntax unified
  15              		.file	"StickButton_Interrupt.c"
  16              		.text
  17              	.Ltext0:
  18              		.cfi_sections	.debug_frame
  19              		.section	.text.StickButton_Interrupt_SetVector,"ax",%progbits
  20              		.align	2
  21              		.global	StickButton_Interrupt_SetVector
  22              		.code	16
  23              		.thumb_func
  24              		.type	StickButton_Interrupt_SetVector, %function
  25              	StickButton_Interrupt_SetVector:
  26              	.LFB39:
  27              		.file 1 "Generated_Source\\PSoC4\\StickButton_Interrupt.c"
   1:Generated_Source\PSoC4/StickButton_Interrupt.c **** /*******************************************************************************
   2:Generated_Source\PSoC4/StickButton_Interrupt.c **** * File Name: StickButton_Interrupt.c  
   3:Generated_Source\PSoC4/StickButton_Interrupt.c **** * Version 1.70
   4:Generated_Source\PSoC4/StickButton_Interrupt.c **** *
   5:Generated_Source\PSoC4/StickButton_Interrupt.c **** *  Description:
   6:Generated_Source\PSoC4/StickButton_Interrupt.c **** *   API for controlling the state of an interrupt.
   7:Generated_Source\PSoC4/StickButton_Interrupt.c **** *
   8:Generated_Source\PSoC4/StickButton_Interrupt.c **** *
   9:Generated_Source\PSoC4/StickButton_Interrupt.c **** *  Note:
  10:Generated_Source\PSoC4/StickButton_Interrupt.c **** *
  11:Generated_Source\PSoC4/StickButton_Interrupt.c **** ********************************************************************************
  12:Generated_Source\PSoC4/StickButton_Interrupt.c **** * Copyright 2008-2015, Cypress Semiconductor Corporation.  All rights reserved.
  13:Generated_Source\PSoC4/StickButton_Interrupt.c **** * You may use this file only in accordance with the license, terms, conditions, 
  14:Generated_Source\PSoC4/StickButton_Interrupt.c **** * disclaimers, and limitations in the end user license agreement accompanying 
  15:Generated_Source\PSoC4/StickButton_Interrupt.c **** * the software package with which this file was provided.
  16:Generated_Source\PSoC4/StickButton_Interrupt.c **** *******************************************************************************/
  17:Generated_Source\PSoC4/StickButton_Interrupt.c **** 
  18:Generated_Source\PSoC4/StickButton_Interrupt.c **** 
  19:Generated_Source\PSoC4/StickButton_Interrupt.c **** #include <cydevice_trm.h>
  20:Generated_Source\PSoC4/StickButton_Interrupt.c **** #include <CyLib.h>
  21:Generated_Source\PSoC4/StickButton_Interrupt.c **** #include <StickButton_Interrupt.h>
  22:Generated_Source\PSoC4/StickButton_Interrupt.c **** #include "cyapicallbacks.h"
  23:Generated_Source\PSoC4/StickButton_Interrupt.c **** 
  24:Generated_Source\PSoC4/StickButton_Interrupt.c **** #if !defined(StickButton_Interrupt__REMOVED) /* Check for removal by optimization */
  25:Generated_Source\PSoC4/StickButton_Interrupt.c **** 
  26:Generated_Source\PSoC4/StickButton_Interrupt.c **** /*******************************************************************************
  27:Generated_Source\PSoC4/StickButton_Interrupt.c **** *  Place your includes, defines and code here 
  28:Generated_Source\PSoC4/StickButton_Interrupt.c **** ********************************************************************************/
  29:Generated_Source\PSoC4/StickButton_Interrupt.c **** /* `#START StickButton_Interrupt_intc` */
  30:Generated_Source\PSoC4/StickButton_Interrupt.c **** #include "project.h"
ARM GAS  C:\Users\quint\AppData\Local\Temp\ccYNBTnm.s 			page 2


  31:Generated_Source\PSoC4/StickButton_Interrupt.c **** #include <stdio.h>
  32:Generated_Source\PSoC4/StickButton_Interrupt.c **** #define PUSHED 0
  33:Generated_Source\PSoC4/StickButton_Interrupt.c **** extern int count; 
  34:Generated_Source\PSoC4/StickButton_Interrupt.c **** extern char mystring[20];
  35:Generated_Source\PSoC4/StickButton_Interrupt.c **** /* `#END` */
  36:Generated_Source\PSoC4/StickButton_Interrupt.c **** 
  37:Generated_Source\PSoC4/StickButton_Interrupt.c **** extern cyisraddress CyRamVectors[CYINT_IRQ_BASE + CY_NUM_INTERRUPTS];
  38:Generated_Source\PSoC4/StickButton_Interrupt.c **** 
  39:Generated_Source\PSoC4/StickButton_Interrupt.c **** /* Declared in startup, used to set unused interrupts to. */
  40:Generated_Source\PSoC4/StickButton_Interrupt.c **** CY_ISR_PROTO(IntDefaultHandler);
  41:Generated_Source\PSoC4/StickButton_Interrupt.c **** 
  42:Generated_Source\PSoC4/StickButton_Interrupt.c **** 
  43:Generated_Source\PSoC4/StickButton_Interrupt.c **** /*******************************************************************************
  44:Generated_Source\PSoC4/StickButton_Interrupt.c **** * Function Name: StickButton_Interrupt_Start
  45:Generated_Source\PSoC4/StickButton_Interrupt.c **** ********************************************************************************
  46:Generated_Source\PSoC4/StickButton_Interrupt.c **** *
  47:Generated_Source\PSoC4/StickButton_Interrupt.c **** * Summary:
  48:Generated_Source\PSoC4/StickButton_Interrupt.c **** *  Set up the interrupt and enable it. This function disables the interrupt, 
  49:Generated_Source\PSoC4/StickButton_Interrupt.c **** *  sets the default interrupt vector, sets the priority from the value in the
  50:Generated_Source\PSoC4/StickButton_Interrupt.c **** *  Design Wide Resources Interrupt Editor, then enables the interrupt to the 
  51:Generated_Source\PSoC4/StickButton_Interrupt.c **** *  interrupt controller.
  52:Generated_Source\PSoC4/StickButton_Interrupt.c **** *
  53:Generated_Source\PSoC4/StickButton_Interrupt.c **** * Parameters:  
  54:Generated_Source\PSoC4/StickButton_Interrupt.c **** *   None
  55:Generated_Source\PSoC4/StickButton_Interrupt.c **** *
  56:Generated_Source\PSoC4/StickButton_Interrupt.c **** * Return:
  57:Generated_Source\PSoC4/StickButton_Interrupt.c **** *   None
  58:Generated_Source\PSoC4/StickButton_Interrupt.c **** *
  59:Generated_Source\PSoC4/StickButton_Interrupt.c **** *******************************************************************************/
  60:Generated_Source\PSoC4/StickButton_Interrupt.c **** void StickButton_Interrupt_Start(void)
  61:Generated_Source\PSoC4/StickButton_Interrupt.c **** {
  62:Generated_Source\PSoC4/StickButton_Interrupt.c ****     /* For all we know the interrupt is active. */
  63:Generated_Source\PSoC4/StickButton_Interrupt.c ****     StickButton_Interrupt_Disable();
  64:Generated_Source\PSoC4/StickButton_Interrupt.c **** 
  65:Generated_Source\PSoC4/StickButton_Interrupt.c ****     /* Set the ISR to point to the StickButton_Interrupt Interrupt. */
  66:Generated_Source\PSoC4/StickButton_Interrupt.c ****     StickButton_Interrupt_SetVector(&StickButton_Interrupt_Interrupt);
  67:Generated_Source\PSoC4/StickButton_Interrupt.c **** 
  68:Generated_Source\PSoC4/StickButton_Interrupt.c ****     /* Set the priority. */
  69:Generated_Source\PSoC4/StickButton_Interrupt.c ****     StickButton_Interrupt_SetPriority((uint8)StickButton_Interrupt_INTC_PRIOR_NUMBER);
  70:Generated_Source\PSoC4/StickButton_Interrupt.c **** 
  71:Generated_Source\PSoC4/StickButton_Interrupt.c ****     /* Enable it. */
  72:Generated_Source\PSoC4/StickButton_Interrupt.c ****     StickButton_Interrupt_Enable();
  73:Generated_Source\PSoC4/StickButton_Interrupt.c **** }
  74:Generated_Source\PSoC4/StickButton_Interrupt.c **** 
  75:Generated_Source\PSoC4/StickButton_Interrupt.c **** 
  76:Generated_Source\PSoC4/StickButton_Interrupt.c **** /*******************************************************************************
  77:Generated_Source\PSoC4/StickButton_Interrupt.c **** * Function Name: StickButton_Interrupt_StartEx
  78:Generated_Source\PSoC4/StickButton_Interrupt.c **** ********************************************************************************
  79:Generated_Source\PSoC4/StickButton_Interrupt.c **** *
  80:Generated_Source\PSoC4/StickButton_Interrupt.c **** * Summary:
  81:Generated_Source\PSoC4/StickButton_Interrupt.c **** *  Sets up the interrupt and enables it. This function disables the interrupt,
  82:Generated_Source\PSoC4/StickButton_Interrupt.c **** *  sets the interrupt vector based on the address passed in, sets the priority 
  83:Generated_Source\PSoC4/StickButton_Interrupt.c **** *  from the value in the Design Wide Resources Interrupt Editor, then enables 
  84:Generated_Source\PSoC4/StickButton_Interrupt.c **** *  the interrupt to the interrupt controller.
  85:Generated_Source\PSoC4/StickButton_Interrupt.c **** *  
  86:Generated_Source\PSoC4/StickButton_Interrupt.c **** *  When defining ISR functions, the CY_ISR and CY_ISR_PROTO macros should be 
  87:Generated_Source\PSoC4/StickButton_Interrupt.c **** *  used to provide consistent definition across compilers:
ARM GAS  C:\Users\quint\AppData\Local\Temp\ccYNBTnm.s 			page 3


  88:Generated_Source\PSoC4/StickButton_Interrupt.c **** *  
  89:Generated_Source\PSoC4/StickButton_Interrupt.c **** *  Function definition example:
  90:Generated_Source\PSoC4/StickButton_Interrupt.c **** *   CY_ISR(MyISR)
  91:Generated_Source\PSoC4/StickButton_Interrupt.c **** *   {
  92:Generated_Source\PSoC4/StickButton_Interrupt.c **** *   }
  93:Generated_Source\PSoC4/StickButton_Interrupt.c **** *   Function prototype example:
  94:Generated_Source\PSoC4/StickButton_Interrupt.c **** *   CY_ISR_PROTO(MyISR);
  95:Generated_Source\PSoC4/StickButton_Interrupt.c **** *
  96:Generated_Source\PSoC4/StickButton_Interrupt.c **** * Parameters:  
  97:Generated_Source\PSoC4/StickButton_Interrupt.c **** *   address: Address of the ISR to set in the interrupt vector table.
  98:Generated_Source\PSoC4/StickButton_Interrupt.c **** *
  99:Generated_Source\PSoC4/StickButton_Interrupt.c **** * Return:
 100:Generated_Source\PSoC4/StickButton_Interrupt.c **** *   None
 101:Generated_Source\PSoC4/StickButton_Interrupt.c **** *
 102:Generated_Source\PSoC4/StickButton_Interrupt.c **** *******************************************************************************/
 103:Generated_Source\PSoC4/StickButton_Interrupt.c **** void StickButton_Interrupt_StartEx(cyisraddress address)
 104:Generated_Source\PSoC4/StickButton_Interrupt.c **** {
 105:Generated_Source\PSoC4/StickButton_Interrupt.c ****     /* For all we know the interrupt is active. */
 106:Generated_Source\PSoC4/StickButton_Interrupt.c ****     StickButton_Interrupt_Disable();
 107:Generated_Source\PSoC4/StickButton_Interrupt.c **** 
 108:Generated_Source\PSoC4/StickButton_Interrupt.c ****     /* Set the ISR to point to the StickButton_Interrupt Interrupt. */
 109:Generated_Source\PSoC4/StickButton_Interrupt.c ****     StickButton_Interrupt_SetVector(address);
 110:Generated_Source\PSoC4/StickButton_Interrupt.c **** 
 111:Generated_Source\PSoC4/StickButton_Interrupt.c ****     /* Set the priority. */
 112:Generated_Source\PSoC4/StickButton_Interrupt.c ****     StickButton_Interrupt_SetPriority((uint8)StickButton_Interrupt_INTC_PRIOR_NUMBER);
 113:Generated_Source\PSoC4/StickButton_Interrupt.c **** 
 114:Generated_Source\PSoC4/StickButton_Interrupt.c ****     /* Enable it. */
 115:Generated_Source\PSoC4/StickButton_Interrupt.c ****     StickButton_Interrupt_Enable();
 116:Generated_Source\PSoC4/StickButton_Interrupt.c **** }
 117:Generated_Source\PSoC4/StickButton_Interrupt.c **** 
 118:Generated_Source\PSoC4/StickButton_Interrupt.c **** 
 119:Generated_Source\PSoC4/StickButton_Interrupt.c **** /*******************************************************************************
 120:Generated_Source\PSoC4/StickButton_Interrupt.c **** * Function Name: StickButton_Interrupt_Stop
 121:Generated_Source\PSoC4/StickButton_Interrupt.c **** ********************************************************************************
 122:Generated_Source\PSoC4/StickButton_Interrupt.c **** *
 123:Generated_Source\PSoC4/StickButton_Interrupt.c **** * Summary:
 124:Generated_Source\PSoC4/StickButton_Interrupt.c **** *   Disables and removes the interrupt.
 125:Generated_Source\PSoC4/StickButton_Interrupt.c **** *
 126:Generated_Source\PSoC4/StickButton_Interrupt.c **** * Parameters:  
 127:Generated_Source\PSoC4/StickButton_Interrupt.c **** *   None
 128:Generated_Source\PSoC4/StickButton_Interrupt.c **** *
 129:Generated_Source\PSoC4/StickButton_Interrupt.c **** * Return:
 130:Generated_Source\PSoC4/StickButton_Interrupt.c **** *   None
 131:Generated_Source\PSoC4/StickButton_Interrupt.c **** *
 132:Generated_Source\PSoC4/StickButton_Interrupt.c **** *******************************************************************************/
 133:Generated_Source\PSoC4/StickButton_Interrupt.c **** void StickButton_Interrupt_Stop(void)
 134:Generated_Source\PSoC4/StickButton_Interrupt.c **** {
 135:Generated_Source\PSoC4/StickButton_Interrupt.c ****     /* Disable this interrupt. */
 136:Generated_Source\PSoC4/StickButton_Interrupt.c ****     StickButton_Interrupt_Disable();
 137:Generated_Source\PSoC4/StickButton_Interrupt.c **** 
 138:Generated_Source\PSoC4/StickButton_Interrupt.c ****     /* Set the ISR to point to the passive one. */
 139:Generated_Source\PSoC4/StickButton_Interrupt.c ****     StickButton_Interrupt_SetVector(&IntDefaultHandler);
 140:Generated_Source\PSoC4/StickButton_Interrupt.c **** }
 141:Generated_Source\PSoC4/StickButton_Interrupt.c **** 
 142:Generated_Source\PSoC4/StickButton_Interrupt.c **** 
 143:Generated_Source\PSoC4/StickButton_Interrupt.c **** /*******************************************************************************
 144:Generated_Source\PSoC4/StickButton_Interrupt.c **** * Function Name: StickButton_Interrupt_Interrupt
ARM GAS  C:\Users\quint\AppData\Local\Temp\ccYNBTnm.s 			page 4


 145:Generated_Source\PSoC4/StickButton_Interrupt.c **** ********************************************************************************
 146:Generated_Source\PSoC4/StickButton_Interrupt.c **** *
 147:Generated_Source\PSoC4/StickButton_Interrupt.c **** * Summary:
 148:Generated_Source\PSoC4/StickButton_Interrupt.c **** *   The default Interrupt Service Routine for StickButton_Interrupt.
 149:Generated_Source\PSoC4/StickButton_Interrupt.c **** *
 150:Generated_Source\PSoC4/StickButton_Interrupt.c **** *   Add custom code between the START and END comments to keep the next version
 151:Generated_Source\PSoC4/StickButton_Interrupt.c **** *   of this file from over-writing your code.
 152:Generated_Source\PSoC4/StickButton_Interrupt.c **** *
 153:Generated_Source\PSoC4/StickButton_Interrupt.c **** *   Note You may use either the default ISR by using this API, or you may define
 154:Generated_Source\PSoC4/StickButton_Interrupt.c **** *   your own separate ISR through ISR_StartEx().
 155:Generated_Source\PSoC4/StickButton_Interrupt.c **** *
 156:Generated_Source\PSoC4/StickButton_Interrupt.c **** * Parameters:  
 157:Generated_Source\PSoC4/StickButton_Interrupt.c **** *   None
 158:Generated_Source\PSoC4/StickButton_Interrupt.c **** *
 159:Generated_Source\PSoC4/StickButton_Interrupt.c **** * Return:
 160:Generated_Source\PSoC4/StickButton_Interrupt.c **** *   None
 161:Generated_Source\PSoC4/StickButton_Interrupt.c **** *
 162:Generated_Source\PSoC4/StickButton_Interrupt.c **** *******************************************************************************/
 163:Generated_Source\PSoC4/StickButton_Interrupt.c **** CY_ISR(StickButton_Interrupt_Interrupt)
 164:Generated_Source\PSoC4/StickButton_Interrupt.c **** {
 165:Generated_Source\PSoC4/StickButton_Interrupt.c ****     #ifdef StickButton_Interrupt_INTERRUPT_INTERRUPT_CALLBACK
 166:Generated_Source\PSoC4/StickButton_Interrupt.c ****         StickButton_Interrupt_Interrupt_InterruptCallback();
 167:Generated_Source\PSoC4/StickButton_Interrupt.c ****     #endif /* StickButton_Interrupt_INTERRUPT_INTERRUPT_CALLBACK */ 
 168:Generated_Source\PSoC4/StickButton_Interrupt.c **** 
 169:Generated_Source\PSoC4/StickButton_Interrupt.c ****     /*  Place your Interrupt code here. */
 170:Generated_Source\PSoC4/StickButton_Interrupt.c ****     /* `#START StickButton_Interrupt_Interrupt` */
 171:Generated_Source\PSoC4/StickButton_Interrupt.c **** while (StickButton_Read() == !PUSHED);
 172:Generated_Source\PSoC4/StickButton_Interrupt.c ****             
 173:Generated_Source\PSoC4/StickButton_Interrupt.c ****             count=0;
 174:Generated_Source\PSoC4/StickButton_Interrupt.c ****             
 175:Generated_Source\PSoC4/StickButton_Interrupt.c ****             //CyDelay(25);
 176:Generated_Source\PSoC4/StickButton_Interrupt.c **** 	
 177:Generated_Source\PSoC4/StickButton_Interrupt.c ****             while (StickButton_Read() == PUSHED);
 178:Generated_Source\PSoC4/StickButton_Interrupt.c ****             CyDelay(25);
 179:Generated_Source\PSoC4/StickButton_Interrupt.c ****             StickButton_Interrupt_ClearPending(); 
 180:Generated_Source\PSoC4/StickButton_Interrupt.c ****     /* `#END` */
 181:Generated_Source\PSoC4/StickButton_Interrupt.c **** }
 182:Generated_Source\PSoC4/StickButton_Interrupt.c **** 
 183:Generated_Source\PSoC4/StickButton_Interrupt.c **** 
 184:Generated_Source\PSoC4/StickButton_Interrupt.c **** /*******************************************************************************
 185:Generated_Source\PSoC4/StickButton_Interrupt.c **** * Function Name: StickButton_Interrupt_SetVector
 186:Generated_Source\PSoC4/StickButton_Interrupt.c **** ********************************************************************************
 187:Generated_Source\PSoC4/StickButton_Interrupt.c **** *
 188:Generated_Source\PSoC4/StickButton_Interrupt.c **** * Summary:
 189:Generated_Source\PSoC4/StickButton_Interrupt.c **** *   Change the ISR vector for the Interrupt. Note calling StickButton_Interrupt_Start
 190:Generated_Source\PSoC4/StickButton_Interrupt.c **** *   will override any effect this method would have had. To set the vector 
 191:Generated_Source\PSoC4/StickButton_Interrupt.c **** *   before the component has been started use StickButton_Interrupt_StartEx instead.
 192:Generated_Source\PSoC4/StickButton_Interrupt.c **** * 
 193:Generated_Source\PSoC4/StickButton_Interrupt.c **** *   When defining ISR functions, the CY_ISR and CY_ISR_PROTO macros should be 
 194:Generated_Source\PSoC4/StickButton_Interrupt.c **** *   used to provide consistent definition across compilers:
 195:Generated_Source\PSoC4/StickButton_Interrupt.c **** *
 196:Generated_Source\PSoC4/StickButton_Interrupt.c **** *   Function definition example:
 197:Generated_Source\PSoC4/StickButton_Interrupt.c **** *   CY_ISR(MyISR)
 198:Generated_Source\PSoC4/StickButton_Interrupt.c **** *   {
 199:Generated_Source\PSoC4/StickButton_Interrupt.c **** *   }
 200:Generated_Source\PSoC4/StickButton_Interrupt.c **** *
 201:Generated_Source\PSoC4/StickButton_Interrupt.c **** *   Function prototype example:
ARM GAS  C:\Users\quint\AppData\Local\Temp\ccYNBTnm.s 			page 5


 202:Generated_Source\PSoC4/StickButton_Interrupt.c **** *     CY_ISR_PROTO(MyISR);
 203:Generated_Source\PSoC4/StickButton_Interrupt.c **** *
 204:Generated_Source\PSoC4/StickButton_Interrupt.c **** * Parameters:
 205:Generated_Source\PSoC4/StickButton_Interrupt.c **** *   address: Address of the ISR to set in the interrupt vector table.
 206:Generated_Source\PSoC4/StickButton_Interrupt.c **** *
 207:Generated_Source\PSoC4/StickButton_Interrupt.c **** * Return:
 208:Generated_Source\PSoC4/StickButton_Interrupt.c **** *   None
 209:Generated_Source\PSoC4/StickButton_Interrupt.c **** *
 210:Generated_Source\PSoC4/StickButton_Interrupt.c **** *******************************************************************************/
 211:Generated_Source\PSoC4/StickButton_Interrupt.c **** void StickButton_Interrupt_SetVector(cyisraddress address)
 212:Generated_Source\PSoC4/StickButton_Interrupt.c **** {
  28              		.loc 1 212 0
  29              		.cfi_startproc
  30              		@ args = 0, pretend = 0, frame = 0
  31              		@ frame_needed = 0, uses_anonymous_args = 0
  32              		@ link register save eliminated.
  33              	.LVL0:
 213:Generated_Source\PSoC4/StickButton_Interrupt.c ****     CyRamVectors[CYINT_IRQ_BASE + StickButton_Interrupt__INTC_NUMBER] = address;
  34              		.loc 1 213 0
  35 0000 014B     		ldr	r3, .L2
  36 0002 5865     		str	r0, [r3, #84]
 214:Generated_Source\PSoC4/StickButton_Interrupt.c **** }
  37              		.loc 1 214 0
  38              		@ sp needed
  39 0004 7047     		bx	lr
  40              	.L3:
  41 0006 C046     		.align	2
  42              	.L2:
  43 0008 00000000 		.word	CyRamVectors
  44              		.cfi_endproc
  45              	.LFE39:
  46              		.size	StickButton_Interrupt_SetVector, .-StickButton_Interrupt_SetVector
  47              		.section	.text.StickButton_Interrupt_GetVector,"ax",%progbits
  48              		.align	2
  49              		.global	StickButton_Interrupt_GetVector
  50              		.code	16
  51              		.thumb_func
  52              		.type	StickButton_Interrupt_GetVector, %function
  53              	StickButton_Interrupt_GetVector:
  54              	.LFB40:
 215:Generated_Source\PSoC4/StickButton_Interrupt.c **** 
 216:Generated_Source\PSoC4/StickButton_Interrupt.c **** 
 217:Generated_Source\PSoC4/StickButton_Interrupt.c **** /*******************************************************************************
 218:Generated_Source\PSoC4/StickButton_Interrupt.c **** * Function Name: StickButton_Interrupt_GetVector
 219:Generated_Source\PSoC4/StickButton_Interrupt.c **** ********************************************************************************
 220:Generated_Source\PSoC4/StickButton_Interrupt.c **** *
 221:Generated_Source\PSoC4/StickButton_Interrupt.c **** * Summary:
 222:Generated_Source\PSoC4/StickButton_Interrupt.c **** *   Gets the "address" of the current ISR vector for the Interrupt.
 223:Generated_Source\PSoC4/StickButton_Interrupt.c **** *
 224:Generated_Source\PSoC4/StickButton_Interrupt.c **** * Parameters:
 225:Generated_Source\PSoC4/StickButton_Interrupt.c **** *   None
 226:Generated_Source\PSoC4/StickButton_Interrupt.c **** *
 227:Generated_Source\PSoC4/StickButton_Interrupt.c **** * Return:
 228:Generated_Source\PSoC4/StickButton_Interrupt.c **** *   Address of the ISR in the interrupt vector table.
 229:Generated_Source\PSoC4/StickButton_Interrupt.c **** *
 230:Generated_Source\PSoC4/StickButton_Interrupt.c **** *******************************************************************************/
 231:Generated_Source\PSoC4/StickButton_Interrupt.c **** cyisraddress StickButton_Interrupt_GetVector(void)
ARM GAS  C:\Users\quint\AppData\Local\Temp\ccYNBTnm.s 			page 6


 232:Generated_Source\PSoC4/StickButton_Interrupt.c **** {
  55              		.loc 1 232 0
  56              		.cfi_startproc
  57              		@ args = 0, pretend = 0, frame = 0
  58              		@ frame_needed = 0, uses_anonymous_args = 0
  59              		@ link register save eliminated.
 233:Generated_Source\PSoC4/StickButton_Interrupt.c ****     return CyRamVectors[CYINT_IRQ_BASE + StickButton_Interrupt__INTC_NUMBER];
  60              		.loc 1 233 0
  61 0000 014B     		ldr	r3, .L5
  62 0002 586D     		ldr	r0, [r3, #84]
 234:Generated_Source\PSoC4/StickButton_Interrupt.c **** }
  63              		.loc 1 234 0
  64              		@ sp needed
  65 0004 7047     		bx	lr
  66              	.L6:
  67 0006 C046     		.align	2
  68              	.L5:
  69 0008 00000000 		.word	CyRamVectors
  70              		.cfi_endproc
  71              	.LFE40:
  72              		.size	StickButton_Interrupt_GetVector, .-StickButton_Interrupt_GetVector
  73              		.section	.text.StickButton_Interrupt_SetPriority,"ax",%progbits
  74              		.align	2
  75              		.global	StickButton_Interrupt_SetPriority
  76              		.code	16
  77              		.thumb_func
  78              		.type	StickButton_Interrupt_SetPriority, %function
  79              	StickButton_Interrupt_SetPriority:
  80              	.LFB41:
 235:Generated_Source\PSoC4/StickButton_Interrupt.c **** 
 236:Generated_Source\PSoC4/StickButton_Interrupt.c **** 
 237:Generated_Source\PSoC4/StickButton_Interrupt.c **** /*******************************************************************************
 238:Generated_Source\PSoC4/StickButton_Interrupt.c **** * Function Name: StickButton_Interrupt_SetPriority
 239:Generated_Source\PSoC4/StickButton_Interrupt.c **** ********************************************************************************
 240:Generated_Source\PSoC4/StickButton_Interrupt.c **** *
 241:Generated_Source\PSoC4/StickButton_Interrupt.c **** * Summary:
 242:Generated_Source\PSoC4/StickButton_Interrupt.c **** *   Sets the Priority of the Interrupt. 
 243:Generated_Source\PSoC4/StickButton_Interrupt.c **** *
 244:Generated_Source\PSoC4/StickButton_Interrupt.c **** *   Note calling StickButton_Interrupt_Start or StickButton_Interrupt_StartEx will 
 245:Generated_Source\PSoC4/StickButton_Interrupt.c **** *   override any effect this API would have had. This API should only be called
 246:Generated_Source\PSoC4/StickButton_Interrupt.c **** *   after StickButton_Interrupt_Start or StickButton_Interrupt_StartEx has been called. 
 247:Generated_Source\PSoC4/StickButton_Interrupt.c **** *   To set the initial priority for the component, use the Design-Wide Resources
 248:Generated_Source\PSoC4/StickButton_Interrupt.c **** *   Interrupt Editor.
 249:Generated_Source\PSoC4/StickButton_Interrupt.c **** *
 250:Generated_Source\PSoC4/StickButton_Interrupt.c **** *   Note This API has no effect on Non-maskable interrupt NMI).
 251:Generated_Source\PSoC4/StickButton_Interrupt.c **** *
 252:Generated_Source\PSoC4/StickButton_Interrupt.c **** * Parameters:
 253:Generated_Source\PSoC4/StickButton_Interrupt.c **** *   priority: Priority of the interrupt, 0 being the highest priority
 254:Generated_Source\PSoC4/StickButton_Interrupt.c **** *             PSoC 3 and PSoC 5LP: Priority is from 0 to 7.
 255:Generated_Source\PSoC4/StickButton_Interrupt.c **** *             PSoC 4: Priority is from 0 to 3.
 256:Generated_Source\PSoC4/StickButton_Interrupt.c **** *
 257:Generated_Source\PSoC4/StickButton_Interrupt.c **** * Return:
 258:Generated_Source\PSoC4/StickButton_Interrupt.c **** *   None
 259:Generated_Source\PSoC4/StickButton_Interrupt.c **** *
 260:Generated_Source\PSoC4/StickButton_Interrupt.c **** *******************************************************************************/
 261:Generated_Source\PSoC4/StickButton_Interrupt.c **** void StickButton_Interrupt_SetPriority(uint8 priority)
 262:Generated_Source\PSoC4/StickButton_Interrupt.c **** {
ARM GAS  C:\Users\quint\AppData\Local\Temp\ccYNBTnm.s 			page 7


  81              		.loc 1 262 0
  82              		.cfi_startproc
  83              		@ args = 0, pretend = 0, frame = 0
  84              		@ frame_needed = 0, uses_anonymous_args = 0
  85              	.LVL1:
  86 0000 10B5     		push	{r4, lr}
  87              		.cfi_def_cfa_offset 8
  88              		.cfi_offset 4, -8
  89              		.cfi_offset 14, -4
  90 0002 0400     		movs	r4, r0
  91              	.LVL2:
 263:Generated_Source\PSoC4/StickButton_Interrupt.c **** 	uint8 interruptState;
 264:Generated_Source\PSoC4/StickButton_Interrupt.c ****     uint32 priorityOffset = ((StickButton_Interrupt__INTC_NUMBER % 4u) * 8u) + 6u;
 265:Generated_Source\PSoC4/StickButton_Interrupt.c ****     
 266:Generated_Source\PSoC4/StickButton_Interrupt.c **** 	interruptState = CyEnterCriticalSection();
  92              		.loc 1 266 0
  93 0004 FFF7FEFF 		bl	CyEnterCriticalSection
  94              	.LVL3:
 267:Generated_Source\PSoC4/StickButton_Interrupt.c ****     *StickButton_Interrupt_INTC_PRIOR = (*StickButton_Interrupt_INTC_PRIOR & (uint32)(~StickButton_
  95              		.loc 1 267 0
  96 0008 044A     		ldr	r2, .L8
  97 000a 1168     		ldr	r1, [r2]
  98 000c 044B     		ldr	r3, .L8+4
  99 000e 0B40     		ands	r3, r1
 268:Generated_Source\PSoC4/StickButton_Interrupt.c ****                                     ((uint32)priority << priorityOffset);
 100              		.loc 1 268 0
 101 0010 A403     		lsls	r4, r4, #14
 267:Generated_Source\PSoC4/StickButton_Interrupt.c ****     *StickButton_Interrupt_INTC_PRIOR = (*StickButton_Interrupt_INTC_PRIOR & (uint32)(~StickButton_
 102              		.loc 1 267 0
 103 0012 1C43     		orrs	r4, r3
 104 0014 1460     		str	r4, [r2]
 269:Generated_Source\PSoC4/StickButton_Interrupt.c **** 	CyExitCriticalSection(interruptState);
 105              		.loc 1 269 0
 106 0016 FFF7FEFF 		bl	CyExitCriticalSection
 107              	.LVL4:
 270:Generated_Source\PSoC4/StickButton_Interrupt.c **** }
 108              		.loc 1 270 0
 109              		@ sp needed
 110 001a 10BD     		pop	{r4, pc}
 111              	.L9:
 112              		.align	2
 113              	.L8:
 114 001c 04E400E0 		.word	-536812540
 115 0020 FF3FFFFF 		.word	-49153
 116              		.cfi_endproc
 117              	.LFE41:
 118              		.size	StickButton_Interrupt_SetPriority, .-StickButton_Interrupt_SetPriority
 119              		.section	.text.StickButton_Interrupt_GetPriority,"ax",%progbits
 120              		.align	2
 121              		.global	StickButton_Interrupt_GetPriority
 122              		.code	16
 123              		.thumb_func
 124              		.type	StickButton_Interrupt_GetPriority, %function
 125              	StickButton_Interrupt_GetPriority:
 126              	.LFB42:
 271:Generated_Source\PSoC4/StickButton_Interrupt.c **** 
 272:Generated_Source\PSoC4/StickButton_Interrupt.c **** 
ARM GAS  C:\Users\quint\AppData\Local\Temp\ccYNBTnm.s 			page 8


 273:Generated_Source\PSoC4/StickButton_Interrupt.c **** /*******************************************************************************
 274:Generated_Source\PSoC4/StickButton_Interrupt.c **** * Function Name: StickButton_Interrupt_GetPriority
 275:Generated_Source\PSoC4/StickButton_Interrupt.c **** ********************************************************************************
 276:Generated_Source\PSoC4/StickButton_Interrupt.c **** *
 277:Generated_Source\PSoC4/StickButton_Interrupt.c **** * Summary:
 278:Generated_Source\PSoC4/StickButton_Interrupt.c **** *   Gets the Priority of the Interrupt.
 279:Generated_Source\PSoC4/StickButton_Interrupt.c **** *
 280:Generated_Source\PSoC4/StickButton_Interrupt.c **** * Parameters:
 281:Generated_Source\PSoC4/StickButton_Interrupt.c **** *   None
 282:Generated_Source\PSoC4/StickButton_Interrupt.c **** *
 283:Generated_Source\PSoC4/StickButton_Interrupt.c **** * Return:
 284:Generated_Source\PSoC4/StickButton_Interrupt.c **** *   Priority of the interrupt, 0 being the highest priority
 285:Generated_Source\PSoC4/StickButton_Interrupt.c **** *    PSoC 3 and PSoC 5LP: Priority is from 0 to 7.
 286:Generated_Source\PSoC4/StickButton_Interrupt.c **** *    PSoC 4: Priority is from 0 to 3.
 287:Generated_Source\PSoC4/StickButton_Interrupt.c **** *
 288:Generated_Source\PSoC4/StickButton_Interrupt.c **** *******************************************************************************/
 289:Generated_Source\PSoC4/StickButton_Interrupt.c **** uint8 StickButton_Interrupt_GetPriority(void)
 290:Generated_Source\PSoC4/StickButton_Interrupt.c **** {
 127              		.loc 1 290 0
 128              		.cfi_startproc
 129              		@ args = 0, pretend = 0, frame = 0
 130              		@ frame_needed = 0, uses_anonymous_args = 0
 131              		@ link register save eliminated.
 132              	.LVL5:
 291:Generated_Source\PSoC4/StickButton_Interrupt.c ****     uint32 priority;
 292:Generated_Source\PSoC4/StickButton_Interrupt.c **** 	uint32 priorityOffset = ((StickButton_Interrupt__INTC_NUMBER % 4u) * 8u) + 6u;
 293:Generated_Source\PSoC4/StickButton_Interrupt.c **** 
 294:Generated_Source\PSoC4/StickButton_Interrupt.c ****     priority = (*StickButton_Interrupt_INTC_PRIOR & StickButton_Interrupt__INTC_PRIOR_MASK) >> prio
 133              		.loc 1 294 0
 134 0000 024B     		ldr	r3, .L11
 135 0002 1868     		ldr	r0, [r3]
 136 0004 800B     		lsrs	r0, r0, #14
 137              	.LVL6:
 295:Generated_Source\PSoC4/StickButton_Interrupt.c **** 
 296:Generated_Source\PSoC4/StickButton_Interrupt.c ****     return (uint8)priority;
 138              		.loc 1 296 0
 139 0006 0323     		movs	r3, #3
 140 0008 1840     		ands	r0, r3
 141              	.LVL7:
 297:Generated_Source\PSoC4/StickButton_Interrupt.c **** }
 142              		.loc 1 297 0
 143              		@ sp needed
 144 000a 7047     		bx	lr
 145              	.L12:
 146              		.align	2
 147              	.L11:
 148 000c 04E400E0 		.word	-536812540
 149              		.cfi_endproc
 150              	.LFE42:
 151              		.size	StickButton_Interrupt_GetPriority, .-StickButton_Interrupt_GetPriority
 152              		.section	.text.StickButton_Interrupt_Enable,"ax",%progbits
 153              		.align	2
 154              		.global	StickButton_Interrupt_Enable
 155              		.code	16
 156              		.thumb_func
 157              		.type	StickButton_Interrupt_Enable, %function
 158              	StickButton_Interrupt_Enable:
ARM GAS  C:\Users\quint\AppData\Local\Temp\ccYNBTnm.s 			page 9


 159              	.LFB43:
 298:Generated_Source\PSoC4/StickButton_Interrupt.c **** 
 299:Generated_Source\PSoC4/StickButton_Interrupt.c **** 
 300:Generated_Source\PSoC4/StickButton_Interrupt.c **** /*******************************************************************************
 301:Generated_Source\PSoC4/StickButton_Interrupt.c **** * Function Name: StickButton_Interrupt_Enable
 302:Generated_Source\PSoC4/StickButton_Interrupt.c **** ********************************************************************************
 303:Generated_Source\PSoC4/StickButton_Interrupt.c **** *
 304:Generated_Source\PSoC4/StickButton_Interrupt.c **** * Summary:
 305:Generated_Source\PSoC4/StickButton_Interrupt.c **** *   Enables the interrupt to the interrupt controller. Do not call this function
 306:Generated_Source\PSoC4/StickButton_Interrupt.c **** *   unless ISR_Start() has been called or the functionality of the ISR_Start() 
 307:Generated_Source\PSoC4/StickButton_Interrupt.c **** *   function, which sets the vector and the priority, has been called.
 308:Generated_Source\PSoC4/StickButton_Interrupt.c **** *
 309:Generated_Source\PSoC4/StickButton_Interrupt.c **** * Parameters:
 310:Generated_Source\PSoC4/StickButton_Interrupt.c **** *   None
 311:Generated_Source\PSoC4/StickButton_Interrupt.c **** *
 312:Generated_Source\PSoC4/StickButton_Interrupt.c **** * Return:
 313:Generated_Source\PSoC4/StickButton_Interrupt.c **** *   None
 314:Generated_Source\PSoC4/StickButton_Interrupt.c **** *
 315:Generated_Source\PSoC4/StickButton_Interrupt.c **** *******************************************************************************/
 316:Generated_Source\PSoC4/StickButton_Interrupt.c **** void StickButton_Interrupt_Enable(void)
 317:Generated_Source\PSoC4/StickButton_Interrupt.c **** {
 160              		.loc 1 317 0
 161              		.cfi_startproc
 162              		@ args = 0, pretend = 0, frame = 0
 163              		@ frame_needed = 0, uses_anonymous_args = 0
 164              		@ link register save eliminated.
 318:Generated_Source\PSoC4/StickButton_Interrupt.c ****     /* Enable the general interrupt. */
 319:Generated_Source\PSoC4/StickButton_Interrupt.c ****     *StickButton_Interrupt_INTC_SET_EN = StickButton_Interrupt__INTC_MASK;
 165              		.loc 1 319 0
 166 0000 2022     		movs	r2, #32
 167 0002 014B     		ldr	r3, .L14
 168 0004 1A60     		str	r2, [r3]
 320:Generated_Source\PSoC4/StickButton_Interrupt.c **** }
 169              		.loc 1 320 0
 170              		@ sp needed
 171 0006 7047     		bx	lr
 172              	.L15:
 173              		.align	2
 174              	.L14:
 175 0008 00E100E0 		.word	-536813312
 176              		.cfi_endproc
 177              	.LFE43:
 178              		.size	StickButton_Interrupt_Enable, .-StickButton_Interrupt_Enable
 179              		.section	.text.StickButton_Interrupt_GetState,"ax",%progbits
 180              		.align	2
 181              		.global	StickButton_Interrupt_GetState
 182              		.code	16
 183              		.thumb_func
 184              		.type	StickButton_Interrupt_GetState, %function
 185              	StickButton_Interrupt_GetState:
 186              	.LFB44:
 321:Generated_Source\PSoC4/StickButton_Interrupt.c **** 
 322:Generated_Source\PSoC4/StickButton_Interrupt.c **** 
 323:Generated_Source\PSoC4/StickButton_Interrupt.c **** /*******************************************************************************
 324:Generated_Source\PSoC4/StickButton_Interrupt.c **** * Function Name: StickButton_Interrupt_GetState
 325:Generated_Source\PSoC4/StickButton_Interrupt.c **** ********************************************************************************
 326:Generated_Source\PSoC4/StickButton_Interrupt.c **** *
ARM GAS  C:\Users\quint\AppData\Local\Temp\ccYNBTnm.s 			page 10


 327:Generated_Source\PSoC4/StickButton_Interrupt.c **** * Summary:
 328:Generated_Source\PSoC4/StickButton_Interrupt.c **** *   Gets the state (enabled, disabled) of the Interrupt.
 329:Generated_Source\PSoC4/StickButton_Interrupt.c **** *
 330:Generated_Source\PSoC4/StickButton_Interrupt.c **** * Parameters:
 331:Generated_Source\PSoC4/StickButton_Interrupt.c **** *   None
 332:Generated_Source\PSoC4/StickButton_Interrupt.c **** *
 333:Generated_Source\PSoC4/StickButton_Interrupt.c **** * Return:
 334:Generated_Source\PSoC4/StickButton_Interrupt.c **** *   1 if enabled, 0 if disabled.
 335:Generated_Source\PSoC4/StickButton_Interrupt.c **** *
 336:Generated_Source\PSoC4/StickButton_Interrupt.c **** *******************************************************************************/
 337:Generated_Source\PSoC4/StickButton_Interrupt.c **** uint8 StickButton_Interrupt_GetState(void)
 338:Generated_Source\PSoC4/StickButton_Interrupt.c **** {
 187              		.loc 1 338 0
 188              		.cfi_startproc
 189              		@ args = 0, pretend = 0, frame = 0
 190              		@ frame_needed = 0, uses_anonymous_args = 0
 191              		@ link register save eliminated.
 339:Generated_Source\PSoC4/StickButton_Interrupt.c ****     /* Get the state of the general interrupt. */
 340:Generated_Source\PSoC4/StickButton_Interrupt.c ****     return ((*StickButton_Interrupt_INTC_SET_EN & (uint32)StickButton_Interrupt__INTC_MASK) != 0u) 
 192              		.loc 1 340 0
 193 0000 034B     		ldr	r3, .L19
 194 0002 1B68     		ldr	r3, [r3]
 195 0004 9B06     		lsls	r3, r3, #26
 196 0006 01D5     		bpl	.L18
 197 0008 0120     		movs	r0, #1
 198 000a 00E0     		b	.L17
 199              	.L18:
 200 000c 0020     		movs	r0, #0
 201              	.L17:
 341:Generated_Source\PSoC4/StickButton_Interrupt.c **** }
 202              		.loc 1 341 0 discriminator 4
 203              		@ sp needed
 204 000e 7047     		bx	lr
 205              	.L20:
 206              		.align	2
 207              	.L19:
 208 0010 00E100E0 		.word	-536813312
 209              		.cfi_endproc
 210              	.LFE44:
 211              		.size	StickButton_Interrupt_GetState, .-StickButton_Interrupt_GetState
 212              		.section	.text.StickButton_Interrupt_Disable,"ax",%progbits
 213              		.align	2
 214              		.global	StickButton_Interrupt_Disable
 215              		.code	16
 216              		.thumb_func
 217              		.type	StickButton_Interrupt_Disable, %function
 218              	StickButton_Interrupt_Disable:
 219              	.LFB45:
 342:Generated_Source\PSoC4/StickButton_Interrupt.c **** 
 343:Generated_Source\PSoC4/StickButton_Interrupt.c **** 
 344:Generated_Source\PSoC4/StickButton_Interrupt.c **** /*******************************************************************************
 345:Generated_Source\PSoC4/StickButton_Interrupt.c **** * Function Name: StickButton_Interrupt_Disable
 346:Generated_Source\PSoC4/StickButton_Interrupt.c **** ********************************************************************************
 347:Generated_Source\PSoC4/StickButton_Interrupt.c **** *
 348:Generated_Source\PSoC4/StickButton_Interrupt.c **** * Summary:
 349:Generated_Source\PSoC4/StickButton_Interrupt.c **** *   Disables the Interrupt in the interrupt controller.
 350:Generated_Source\PSoC4/StickButton_Interrupt.c **** *
ARM GAS  C:\Users\quint\AppData\Local\Temp\ccYNBTnm.s 			page 11


 351:Generated_Source\PSoC4/StickButton_Interrupt.c **** * Parameters:
 352:Generated_Source\PSoC4/StickButton_Interrupt.c **** *   None
 353:Generated_Source\PSoC4/StickButton_Interrupt.c **** *
 354:Generated_Source\PSoC4/StickButton_Interrupt.c **** * Return:
 355:Generated_Source\PSoC4/StickButton_Interrupt.c **** *   None
 356:Generated_Source\PSoC4/StickButton_Interrupt.c **** *
 357:Generated_Source\PSoC4/StickButton_Interrupt.c **** *******************************************************************************/
 358:Generated_Source\PSoC4/StickButton_Interrupt.c **** void StickButton_Interrupt_Disable(void)
 359:Generated_Source\PSoC4/StickButton_Interrupt.c **** {
 220              		.loc 1 359 0
 221              		.cfi_startproc
 222              		@ args = 0, pretend = 0, frame = 0
 223              		@ frame_needed = 0, uses_anonymous_args = 0
 224              		@ link register save eliminated.
 360:Generated_Source\PSoC4/StickButton_Interrupt.c ****     /* Disable the general interrupt. */
 361:Generated_Source\PSoC4/StickButton_Interrupt.c ****     *StickButton_Interrupt_INTC_CLR_EN = StickButton_Interrupt__INTC_MASK;
 225              		.loc 1 361 0
 226 0000 2022     		movs	r2, #32
 227 0002 014B     		ldr	r3, .L22
 228 0004 1A60     		str	r2, [r3]
 362:Generated_Source\PSoC4/StickButton_Interrupt.c **** }
 229              		.loc 1 362 0
 230              		@ sp needed
 231 0006 7047     		bx	lr
 232              	.L23:
 233              		.align	2
 234              	.L22:
 235 0008 80E100E0 		.word	-536813184
 236              		.cfi_endproc
 237              	.LFE45:
 238              		.size	StickButton_Interrupt_Disable, .-StickButton_Interrupt_Disable
 239              		.section	.text.StickButton_Interrupt_Start,"ax",%progbits
 240              		.align	2
 241              		.global	StickButton_Interrupt_Start
 242              		.code	16
 243              		.thumb_func
 244              		.type	StickButton_Interrupt_Start, %function
 245              	StickButton_Interrupt_Start:
 246              	.LFB35:
  61:Generated_Source\PSoC4/StickButton_Interrupt.c ****     /* For all we know the interrupt is active. */
 247              		.loc 1 61 0
 248              		.cfi_startproc
 249              		@ args = 0, pretend = 0, frame = 0
 250              		@ frame_needed = 0, uses_anonymous_args = 0
 251 0000 10B5     		push	{r4, lr}
 252              		.cfi_def_cfa_offset 8
 253              		.cfi_offset 4, -8
 254              		.cfi_offset 14, -4
  63:Generated_Source\PSoC4/StickButton_Interrupt.c **** 
 255              		.loc 1 63 0
 256 0002 FFF7FEFF 		bl	StickButton_Interrupt_Disable
 257              	.LVL8:
  66:Generated_Source\PSoC4/StickButton_Interrupt.c **** 
 258              		.loc 1 66 0
 259 0006 0448     		ldr	r0, .L25
 260 0008 FFF7FEFF 		bl	StickButton_Interrupt_SetVector
 261              	.LVL9:
ARM GAS  C:\Users\quint\AppData\Local\Temp\ccYNBTnm.s 			page 12


  69:Generated_Source\PSoC4/StickButton_Interrupt.c **** 
 262              		.loc 1 69 0
 263 000c 0320     		movs	r0, #3
 264 000e FFF7FEFF 		bl	StickButton_Interrupt_SetPriority
 265              	.LVL10:
  72:Generated_Source\PSoC4/StickButton_Interrupt.c **** }
 266              		.loc 1 72 0
 267 0012 FFF7FEFF 		bl	StickButton_Interrupt_Enable
 268              	.LVL11:
  73:Generated_Source\PSoC4/StickButton_Interrupt.c **** 
 269              		.loc 1 73 0
 270              		@ sp needed
 271 0016 10BD     		pop	{r4, pc}
 272              	.L26:
 273              		.align	2
 274              	.L25:
 275 0018 00000000 		.word	StickButton_Interrupt_Interrupt
 276              		.cfi_endproc
 277              	.LFE35:
 278              		.size	StickButton_Interrupt_Start, .-StickButton_Interrupt_Start
 279              		.section	.text.StickButton_Interrupt_StartEx,"ax",%progbits
 280              		.align	2
 281              		.global	StickButton_Interrupt_StartEx
 282              		.code	16
 283              		.thumb_func
 284              		.type	StickButton_Interrupt_StartEx, %function
 285              	StickButton_Interrupt_StartEx:
 286              	.LFB36:
 104:Generated_Source\PSoC4/StickButton_Interrupt.c ****     /* For all we know the interrupt is active. */
 287              		.loc 1 104 0
 288              		.cfi_startproc
 289              		@ args = 0, pretend = 0, frame = 0
 290              		@ frame_needed = 0, uses_anonymous_args = 0
 291              	.LVL12:
 292 0000 10B5     		push	{r4, lr}
 293              		.cfi_def_cfa_offset 8
 294              		.cfi_offset 4, -8
 295              		.cfi_offset 14, -4
 296 0002 0400     		movs	r4, r0
 106:Generated_Source\PSoC4/StickButton_Interrupt.c **** 
 297              		.loc 1 106 0
 298 0004 FFF7FEFF 		bl	StickButton_Interrupt_Disable
 299              	.LVL13:
 109:Generated_Source\PSoC4/StickButton_Interrupt.c **** 
 300              		.loc 1 109 0
 301 0008 2000     		movs	r0, r4
 302 000a FFF7FEFF 		bl	StickButton_Interrupt_SetVector
 303              	.LVL14:
 112:Generated_Source\PSoC4/StickButton_Interrupt.c **** 
 304              		.loc 1 112 0
 305 000e 0320     		movs	r0, #3
 306 0010 FFF7FEFF 		bl	StickButton_Interrupt_SetPriority
 307              	.LVL15:
 115:Generated_Source\PSoC4/StickButton_Interrupt.c **** }
 308              		.loc 1 115 0
 309 0014 FFF7FEFF 		bl	StickButton_Interrupt_Enable
 310              	.LVL16:
ARM GAS  C:\Users\quint\AppData\Local\Temp\ccYNBTnm.s 			page 13


 116:Generated_Source\PSoC4/StickButton_Interrupt.c **** 
 311              		.loc 1 116 0
 312              		@ sp needed
 313              	.LVL17:
 314 0018 10BD     		pop	{r4, pc}
 315              		.cfi_endproc
 316              	.LFE36:
 317              		.size	StickButton_Interrupt_StartEx, .-StickButton_Interrupt_StartEx
 318 001a C046     		.section	.text.StickButton_Interrupt_Stop,"ax",%progbits
 319              		.align	2
 320              		.global	StickButton_Interrupt_Stop
 321              		.code	16
 322              		.thumb_func
 323              		.type	StickButton_Interrupt_Stop, %function
 324              	StickButton_Interrupt_Stop:
 325              	.LFB37:
 134:Generated_Source\PSoC4/StickButton_Interrupt.c ****     /* Disable this interrupt. */
 326              		.loc 1 134 0
 327              		.cfi_startproc
 328              		@ args = 0, pretend = 0, frame = 0
 329              		@ frame_needed = 0, uses_anonymous_args = 0
 330 0000 10B5     		push	{r4, lr}
 331              		.cfi_def_cfa_offset 8
 332              		.cfi_offset 4, -8
 333              		.cfi_offset 14, -4
 136:Generated_Source\PSoC4/StickButton_Interrupt.c **** 
 334              		.loc 1 136 0
 335 0002 FFF7FEFF 		bl	StickButton_Interrupt_Disable
 336              	.LVL18:
 139:Generated_Source\PSoC4/StickButton_Interrupt.c **** }
 337              		.loc 1 139 0
 338 0006 0248     		ldr	r0, .L29
 339 0008 FFF7FEFF 		bl	StickButton_Interrupt_SetVector
 340              	.LVL19:
 140:Generated_Source\PSoC4/StickButton_Interrupt.c **** 
 341              		.loc 1 140 0
 342              		@ sp needed
 343 000c 10BD     		pop	{r4, pc}
 344              	.L30:
 345 000e C046     		.align	2
 346              	.L29:
 347 0010 00000000 		.word	IntDefaultHandler
 348              		.cfi_endproc
 349              	.LFE37:
 350              		.size	StickButton_Interrupt_Stop, .-StickButton_Interrupt_Stop
 351              		.section	.text.StickButton_Interrupt_SetPending,"ax",%progbits
 352              		.align	2
 353              		.global	StickButton_Interrupt_SetPending
 354              		.code	16
 355              		.thumb_func
 356              		.type	StickButton_Interrupt_SetPending, %function
 357              	StickButton_Interrupt_SetPending:
 358              	.LFB46:
 363:Generated_Source\PSoC4/StickButton_Interrupt.c **** 
 364:Generated_Source\PSoC4/StickButton_Interrupt.c **** 
 365:Generated_Source\PSoC4/StickButton_Interrupt.c **** /*******************************************************************************
 366:Generated_Source\PSoC4/StickButton_Interrupt.c **** * Function Name: StickButton_Interrupt_SetPending
ARM GAS  C:\Users\quint\AppData\Local\Temp\ccYNBTnm.s 			page 14


 367:Generated_Source\PSoC4/StickButton_Interrupt.c **** ********************************************************************************
 368:Generated_Source\PSoC4/StickButton_Interrupt.c **** *
 369:Generated_Source\PSoC4/StickButton_Interrupt.c **** * Summary:
 370:Generated_Source\PSoC4/StickButton_Interrupt.c **** *   Causes the Interrupt to enter the pending state, a software method of
 371:Generated_Source\PSoC4/StickButton_Interrupt.c **** *   generating the interrupt.
 372:Generated_Source\PSoC4/StickButton_Interrupt.c **** *
 373:Generated_Source\PSoC4/StickButton_Interrupt.c **** * Parameters:
 374:Generated_Source\PSoC4/StickButton_Interrupt.c **** *   None
 375:Generated_Source\PSoC4/StickButton_Interrupt.c **** *
 376:Generated_Source\PSoC4/StickButton_Interrupt.c **** * Return:
 377:Generated_Source\PSoC4/StickButton_Interrupt.c **** *   None
 378:Generated_Source\PSoC4/StickButton_Interrupt.c **** *
 379:Generated_Source\PSoC4/StickButton_Interrupt.c **** * Side Effects:
 380:Generated_Source\PSoC4/StickButton_Interrupt.c **** *   If interrupts are enabled and the interrupt is set up properly, the ISR is
 381:Generated_Source\PSoC4/StickButton_Interrupt.c **** *   entered (depending on the priority of this interrupt and other pending 
 382:Generated_Source\PSoC4/StickButton_Interrupt.c **** *   interrupts).
 383:Generated_Source\PSoC4/StickButton_Interrupt.c **** *
 384:Generated_Source\PSoC4/StickButton_Interrupt.c **** *******************************************************************************/
 385:Generated_Source\PSoC4/StickButton_Interrupt.c **** void StickButton_Interrupt_SetPending(void)
 386:Generated_Source\PSoC4/StickButton_Interrupt.c **** {
 359              		.loc 1 386 0
 360              		.cfi_startproc
 361              		@ args = 0, pretend = 0, frame = 0
 362              		@ frame_needed = 0, uses_anonymous_args = 0
 363              		@ link register save eliminated.
 387:Generated_Source\PSoC4/StickButton_Interrupt.c ****     *StickButton_Interrupt_INTC_SET_PD = StickButton_Interrupt__INTC_MASK;
 364              		.loc 1 387 0
 365 0000 2022     		movs	r2, #32
 366 0002 014B     		ldr	r3, .L32
 367 0004 1A60     		str	r2, [r3]
 388:Generated_Source\PSoC4/StickButton_Interrupt.c **** }
 368              		.loc 1 388 0
 369              		@ sp needed
 370 0006 7047     		bx	lr
 371              	.L33:
 372              		.align	2
 373              	.L32:
 374 0008 00E200E0 		.word	-536813056
 375              		.cfi_endproc
 376              	.LFE46:
 377              		.size	StickButton_Interrupt_SetPending, .-StickButton_Interrupt_SetPending
 378              		.section	.text.StickButton_Interrupt_ClearPending,"ax",%progbits
 379              		.align	2
 380              		.global	StickButton_Interrupt_ClearPending
 381              		.code	16
 382              		.thumb_func
 383              		.type	StickButton_Interrupt_ClearPending, %function
 384              	StickButton_Interrupt_ClearPending:
 385              	.LFB47:
 389:Generated_Source\PSoC4/StickButton_Interrupt.c **** 
 390:Generated_Source\PSoC4/StickButton_Interrupt.c **** 
 391:Generated_Source\PSoC4/StickButton_Interrupt.c **** /*******************************************************************************
 392:Generated_Source\PSoC4/StickButton_Interrupt.c **** * Function Name: StickButton_Interrupt_ClearPending
 393:Generated_Source\PSoC4/StickButton_Interrupt.c **** ********************************************************************************
 394:Generated_Source\PSoC4/StickButton_Interrupt.c **** *
 395:Generated_Source\PSoC4/StickButton_Interrupt.c **** * Summary:
 396:Generated_Source\PSoC4/StickButton_Interrupt.c **** *   Clears a pending interrupt in the interrupt controller.
ARM GAS  C:\Users\quint\AppData\Local\Temp\ccYNBTnm.s 			page 15


 397:Generated_Source\PSoC4/StickButton_Interrupt.c **** *
 398:Generated_Source\PSoC4/StickButton_Interrupt.c **** *   Note Some interrupt sources are clear-on-read and require the block 
 399:Generated_Source\PSoC4/StickButton_Interrupt.c **** *   interrupt/status register to be read/cleared with the appropriate block API 
 400:Generated_Source\PSoC4/StickButton_Interrupt.c **** *   (GPIO, UART, and so on). Otherwise the ISR will continue to remain in 
 401:Generated_Source\PSoC4/StickButton_Interrupt.c **** *   pending state even though the interrupt itself is cleared using this API.
 402:Generated_Source\PSoC4/StickButton_Interrupt.c **** *
 403:Generated_Source\PSoC4/StickButton_Interrupt.c **** * Parameters:
 404:Generated_Source\PSoC4/StickButton_Interrupt.c **** *   None
 405:Generated_Source\PSoC4/StickButton_Interrupt.c **** *
 406:Generated_Source\PSoC4/StickButton_Interrupt.c **** * Return:
 407:Generated_Source\PSoC4/StickButton_Interrupt.c **** *   None
 408:Generated_Source\PSoC4/StickButton_Interrupt.c **** *
 409:Generated_Source\PSoC4/StickButton_Interrupt.c **** *******************************************************************************/
 410:Generated_Source\PSoC4/StickButton_Interrupt.c **** void StickButton_Interrupt_ClearPending(void)
 411:Generated_Source\PSoC4/StickButton_Interrupt.c **** {
 386              		.loc 1 411 0
 387              		.cfi_startproc
 388              		@ args = 0, pretend = 0, frame = 0
 389              		@ frame_needed = 0, uses_anonymous_args = 0
 390              		@ link register save eliminated.
 412:Generated_Source\PSoC4/StickButton_Interrupt.c ****     *StickButton_Interrupt_INTC_CLR_PD = StickButton_Interrupt__INTC_MASK;
 391              		.loc 1 412 0
 392 0000 2022     		movs	r2, #32
 393 0002 014B     		ldr	r3, .L35
 394 0004 1A60     		str	r2, [r3]
 413:Generated_Source\PSoC4/StickButton_Interrupt.c **** }
 395              		.loc 1 413 0
 396              		@ sp needed
 397 0006 7047     		bx	lr
 398              	.L36:
 399              		.align	2
 400              	.L35:
 401 0008 80E200E0 		.word	-536812928
 402              		.cfi_endproc
 403              	.LFE47:
 404              		.size	StickButton_Interrupt_ClearPending, .-StickButton_Interrupt_ClearPending
 405              		.section	.text.StickButton_Interrupt_Interrupt,"ax",%progbits
 406              		.align	2
 407              		.global	StickButton_Interrupt_Interrupt
 408              		.code	16
 409              		.thumb_func
 410              		.type	StickButton_Interrupt_Interrupt, %function
 411              	StickButton_Interrupt_Interrupt:
 412              	.LFB38:
 164:Generated_Source\PSoC4/StickButton_Interrupt.c ****     #ifdef StickButton_Interrupt_INTERRUPT_INTERRUPT_CALLBACK
 413              		.loc 1 164 0
 414              		.cfi_startproc
 415              		@ args = 0, pretend = 0, frame = 0
 416              		@ frame_needed = 0, uses_anonymous_args = 0
 417 0000 10B5     		push	{r4, lr}
 418              		.cfi_def_cfa_offset 8
 419              		.cfi_offset 4, -8
 420              		.cfi_offset 14, -4
 421              	.L38:
 171:Generated_Source\PSoC4/StickButton_Interrupt.c ****             
 422              		.loc 1 171 0 discriminator 1
 423 0002 FFF7FEFF 		bl	StickButton_Read
ARM GAS  C:\Users\quint\AppData\Local\Temp\ccYNBTnm.s 			page 16


 424              	.LVL20:
 425 0006 0128     		cmp	r0, #1
 426 0008 FBD0     		beq	.L38
 173:Generated_Source\PSoC4/StickButton_Interrupt.c ****             
 427              		.loc 1 173 0
 428 000a 0022     		movs	r2, #0
 429 000c 054B     		ldr	r3, .L40
 430 000e 1A60     		str	r2, [r3]
 431              	.L39:
 177:Generated_Source\PSoC4/StickButton_Interrupt.c ****             CyDelay(25);
 432              		.loc 1 177 0 discriminator 1
 433 0010 FFF7FEFF 		bl	StickButton_Read
 434              	.LVL21:
 435 0014 0028     		cmp	r0, #0
 436 0016 FBD0     		beq	.L39
 178:Generated_Source\PSoC4/StickButton_Interrupt.c ****             StickButton_Interrupt_ClearPending(); 
 437              		.loc 1 178 0
 438 0018 1920     		movs	r0, #25
 439 001a FFF7FEFF 		bl	CyDelay
 440              	.LVL22:
 179:Generated_Source\PSoC4/StickButton_Interrupt.c ****     /* `#END` */
 441              		.loc 1 179 0
 442 001e FFF7FEFF 		bl	StickButton_Interrupt_ClearPending
 443              	.LVL23:
 181:Generated_Source\PSoC4/StickButton_Interrupt.c **** 
 444              		.loc 1 181 0
 445              		@ sp needed
 446 0022 10BD     		pop	{r4, pc}
 447              	.L41:
 448              		.align	2
 449              	.L40:
 450 0024 00000000 		.word	count
 451              		.cfi_endproc
 452              	.LFE38:
 453              		.size	StickButton_Interrupt_Interrupt, .-StickButton_Interrupt_Interrupt
 454              		.comm	GLCD_FONT8x16,1552,4
 455              		.text
 456              	.Letext0:
 457              		.file 2 "Generated_Source\\PSoC4/cytypes.h"
 458              		.file 3 "Generated_Source\\PSoC4\\GLCD.h"
 459              		.file 4 "Generated_Source\\PSoC4/CyLib.h"
 460              		.file 5 "Generated_Source\\PSoC4\\StickButton.h"